
median.riscv:     file format elf32-littleriscv


Disassembly of section .text:

00000000 <_start>:
   0:	00000093          	li	ra,0
   4:	00000113          	li	sp,0
   8:	00000193          	li	gp,0
   c:	00000213          	li	tp,0
  10:	00000293          	li	t0,0
  14:	00000313          	li	t1,0
  18:	00000393          	li	t2,0
  1c:	00000413          	li	s0,0
  20:	00000493          	li	s1,0
  24:	00000513          	li	a0,0
  28:	00000593          	li	a1,0
  2c:	00000613          	li	a2,0
  30:	00000693          	li	a3,0
  34:	00000713          	li	a4,0
  38:	00000793          	li	a5,0
  3c:	00000813          	li	a6,0
  40:	00000893          	li	a7,0
  44:	00000913          	li	s2,0
  48:	00000993          	li	s3,0
  4c:	00000a13          	li	s4,0
  50:	00000a93          	li	s5,0
  54:	00000b13          	li	s6,0
  58:	00000b93          	li	s7,0
  5c:	00000c13          	li	s8,0
  60:	00000c93          	li	s9,0
  64:	00000d13          	li	s10,0
  68:	00000d93          	li	s11,0
  6c:	00000e13          	li	t3,0
  70:	00000e93          	li	t4,0
  74:	00000f13          	li	t5,0
  78:	00000f93          	li	t6,0
  7c:	00002117          	auipc	sp,0x2
  80:	17c10113          	addi	sp,sp,380 # 21f8 <STACK>
  84:	25c000ef          	jal	ra,2e0 <main>
  88:	2d40006f          	j	35c <end>

0000008c <median>:
  8c:	00251793          	slli	a5,a0,0x2
  90:	ffc78793          	addi	a5,a5,-4
  94:	00f60733          	add	a4,a2,a5
  98:	00062023          	sw	zero,0(a2)
  9c:	00072023          	sw	zero,0(a4)
  a0:	00200713          	li	a4,2
  a4:	02a75c63          	ble	a0,a4,dc <median+0x50>
  a8:	00b78533          	add	a0,a5,a1
  ac:	00460613          	addi	a2,a2,4
  b0:	ffc50513          	addi	a0,a0,-4
  b4:	0005a703          	lw	a4,0(a1)
  b8:	0045a783          	lw	a5,4(a1)
  bc:	0085a683          	lw	a3,8(a1)
  c0:	02f75063          	ble	a5,a4,e0 <median+0x54>
  c4:	02d7c663          	blt	a5,a3,f0 <median+0x64>
  c8:	02e6d063          	ble	a4,a3,e8 <median+0x5c>
  cc:	00e62023          	sw	a4,0(a2)
  d0:	00458593          	addi	a1,a1,4
  d4:	00460613          	addi	a2,a2,4
  d8:	fca59ee3          	bne	a1,a0,b4 <median+0x28>
  dc:	00008067          	ret
  e0:	fed746e3          	blt	a4,a3,cc <median+0x40>
  e4:	00f6c663          	blt	a3,a5,f0 <median+0x64>
  e8:	00d62023          	sw	a3,0(a2)
  ec:	fe5ff06f          	j	d0 <median+0x44>
  f0:	00f62023          	sw	a5,0(a2)
  f4:	fddff06f          	j	d0 <median+0x44>

000000f8 <setStats>:
  f8:	00008067          	ret

000000fc <memcpy>:
  fc:	00c5e7b3          	or	a5,a1,a2
 100:	00f567b3          	or	a5,a0,a5
 104:	0037f793          	andi	a5,a5,3
 108:	00c506b3          	add	a3,a0,a2
 10c:	02078463          	beqz	a5,134 <memcpy+0x38>
 110:	00c58633          	add	a2,a1,a2
 114:	00050793          	mv	a5,a0
 118:	02d57e63          	bleu	a3,a0,154 <memcpy+0x58>
 11c:	00158593          	addi	a1,a1,1
 120:	fff5c703          	lbu	a4,-1(a1)
 124:	00178793          	addi	a5,a5,1
 128:	fee78fa3          	sb	a4,-1(a5)
 12c:	feb618e3          	bne	a2,a1,11c <memcpy+0x20>
 130:	00008067          	ret
 134:	fed57ee3          	bleu	a3,a0,130 <memcpy+0x34>
 138:	00050793          	mv	a5,a0
 13c:	00458593          	addi	a1,a1,4
 140:	ffc5a703          	lw	a4,-4(a1)
 144:	00478793          	addi	a5,a5,4
 148:	fee7ae23          	sw	a4,-4(a5)
 14c:	fed7e8e3          	bltu	a5,a3,13c <memcpy+0x40>
 150:	00008067          	ret
 154:	00008067          	ret

00000158 <memset>:
 158:	00c567b3          	or	a5,a0,a2
 15c:	0037f793          	andi	a5,a5,3
 160:	00c50633          	add	a2,a0,a2
 164:	02078063          	beqz	a5,184 <memset+0x2c>
 168:	0ff5f593          	andi	a1,a1,255
 16c:	00050793          	mv	a5,a0
 170:	04c57063          	bleu	a2,a0,1b0 <memset+0x58>
 174:	00178793          	addi	a5,a5,1
 178:	feb78fa3          	sb	a1,-1(a5)
 17c:	fef61ce3          	bne	a2,a5,174 <memset+0x1c>
 180:	00008067          	ret
 184:	0ff5f593          	andi	a1,a1,255
 188:	00859793          	slli	a5,a1,0x8
 18c:	00b7e7b3          	or	a5,a5,a1
 190:	01079593          	slli	a1,a5,0x10
 194:	00f5e5b3          	or	a1,a1,a5
 198:	fec574e3          	bleu	a2,a0,180 <memset+0x28>
 19c:	00050793          	mv	a5,a0
 1a0:	00478793          	addi	a5,a5,4
 1a4:	feb7ae23          	sw	a1,-4(a5)
 1a8:	fec7ece3          	bltu	a5,a2,1a0 <memset+0x48>
 1ac:	00008067          	ret
 1b0:	00008067          	ret

000001b4 <strlen>:
 1b4:	00054783          	lbu	a5,0(a0)
 1b8:	00050713          	mv	a4,a0
 1bc:	00078c63          	beqz	a5,1d4 <strlen+0x20>
 1c0:	00150513          	addi	a0,a0,1
 1c4:	00054783          	lbu	a5,0(a0)
 1c8:	fe079ce3          	bnez	a5,1c0 <strlen+0xc>
 1cc:	40e50533          	sub	a0,a0,a4
 1d0:	00008067          	ret
 1d4:	00000513          	li	a0,0
 1d8:	00008067          	ret

000001dc <strnlen>:
 1dc:	00050713          	mv	a4,a0
 1e0:	02058663          	beqz	a1,20c <strnlen+0x30>
 1e4:	00054783          	lbu	a5,0(a0)
 1e8:	02078263          	beqz	a5,20c <strnlen+0x30>
 1ec:	00b505b3          	add	a1,a0,a1
 1f0:	00c0006f          	j	1fc <strnlen+0x20>
 1f4:	00054783          	lbu	a5,0(a0)
 1f8:	00078663          	beqz	a5,204 <strnlen+0x28>
 1fc:	00150513          	addi	a0,a0,1
 200:	feb51ae3          	bne	a0,a1,1f4 <strnlen+0x18>
 204:	40e50533          	sub	a0,a0,a4
 208:	00008067          	ret
 20c:	00000513          	li	a0,0
 210:	00008067          	ret

00000214 <strcmp>:
 214:	00150513          	addi	a0,a0,1
 218:	fff54783          	lbu	a5,-1(a0)
 21c:	00158593          	addi	a1,a1,1
 220:	fff5c703          	lbu	a4,-1(a1)
 224:	00078863          	beqz	a5,234 <strcmp+0x20>
 228:	fee786e3          	beq	a5,a4,214 <strcmp>
 22c:	40e78533          	sub	a0,a5,a4
 230:	00008067          	ret
 234:	00000793          	li	a5,0
 238:	ff5ff06f          	j	22c <strcmp+0x18>

0000023c <strcpy>:
 23c:	00050793          	mv	a5,a0
 240:	00158593          	addi	a1,a1,1
 244:	fff5c703          	lbu	a4,-1(a1)
 248:	00178793          	addi	a5,a5,1
 24c:	fee78fa3          	sb	a4,-1(a5)
 250:	fe0718e3          	bnez	a4,240 <strcpy+0x4>
 254:	00008067          	ret

00000258 <atol>:
 258:	00054783          	lbu	a5,0(a0)
 25c:	02000713          	li	a4,32
 260:	00e79863          	bne	a5,a4,270 <atol+0x18>
 264:	00150513          	addi	a0,a0,1
 268:	00054783          	lbu	a5,0(a0)
 26c:	fee78ce3          	beq	a5,a4,264 <atol+0xc>
 270:	fd578713          	addi	a4,a5,-43
 274:	0fd77713          	andi	a4,a4,253
 278:	04070263          	beqz	a4,2bc <atol+0x64>
 27c:	00054683          	lbu	a3,0(a0)
 280:	00050793          	mv	a5,a0
 284:	00000613          	li	a2,0
 288:	04068863          	beqz	a3,2d8 <atol+0x80>
 28c:	00000513          	li	a0,0
 290:	00178793          	addi	a5,a5,1
 294:	fd068593          	addi	a1,a3,-48
 298:	00251713          	slli	a4,a0,0x2
 29c:	0007c683          	lbu	a3,0(a5)
 2a0:	00a70533          	add	a0,a4,a0
 2a4:	00151513          	slli	a0,a0,0x1
 2a8:	00a58533          	add	a0,a1,a0
 2ac:	fe0692e3          	bnez	a3,290 <atol+0x38>
 2b0:	00060463          	beqz	a2,2b8 <atol+0x60>
 2b4:	40a00533          	neg	a0,a0
 2b8:	00008067          	ret
 2bc:	00154683          	lbu	a3,1(a0)
 2c0:	fd378793          	addi	a5,a5,-45
 2c4:	0017b613          	seqz	a2,a5
 2c8:	00150793          	addi	a5,a0,1
 2cc:	fc0690e3          	bnez	a3,28c <atol+0x34>
 2d0:	00000513          	li	a0,0
 2d4:	fddff06f          	j	2b0 <atol+0x58>
 2d8:	00000513          	li	a0,0
 2dc:	00008067          	ret

000002e0 <main>:
 2e0:	9b010113          	addi	sp,sp,-1616
 2e4:	47800593          	li	a1,1144
 2e8:	19000513          	li	a0,400
 2ec:	00010613          	mv	a2,sp
 2f0:	64112623          	sw	ra,1612(sp)
 2f4:	d99ff0ef          	jal	ra,8c <median>
 2f8:	19000513          	li	a0,400
 2fc:	00010613          	mv	a2,sp
 300:	47800593          	li	a1,1144
 304:	d89ff0ef          	jal	ra,8c <median>
 308:	00010793          	mv	a5,sp
 30c:	00000717          	auipc	a4,0x0
 310:	7ac70713          	addi	a4,a4,1964 # ab8 <verify_data>
 314:	00000513          	li	a0,0
 318:	19000893          	li	a7,400
 31c:	0007a603          	lw	a2,0(a5)
 320:	00072683          	lw	a3,0(a4)
 324:	0047a803          	lw	a6,4(a5)
 328:	00472583          	lw	a1,4(a4)
 32c:	02d61463          	bne	a2,a3,354 <main+0x74>
 330:	00250513          	addi	a0,a0,2
 334:	00b81a63          	bne	a6,a1,348 <main+0x68>
 338:	00878793          	addi	a5,a5,8
 33c:	00870713          	addi	a4,a4,8
 340:	fd151ee3          	bne	a0,a7,31c <main+0x3c>
 344:	00000513          	li	a0,0
 348:	64c12083          	lw	ra,1612(sp)
 34c:	65010113          	addi	sp,sp,1616
 350:	00008067          	ret
 354:	00150513          	addi	a0,a0,1
 358:	ff1ff06f          	j	348 <main+0x68>

0000035c <end>:
 35c:	00000013          	nop
 360:	00000013          	nop
 364:	00000013          	nop
 368:	00000013          	nop
 36c:	00000013          	nop
 370:	00000013          	nop

00000374 <_last>:
 374:	fe9ff06f          	j	35c <end>

Disassembly of section .data:

00000478 <input_data>:
     478:	0029                	c.nop	10
     47a:	0000                	unimp
     47c:	01c6                	slli	gp,gp,0x11
     47e:	0000                	unimp
     480:	0341                	addi	t1,t1,16
     482:	0000                	unimp
     484:	0000014f          	fnmadd.s	ft2,ft0,ft0,ft0,rne
     488:	0234                	addi	a3,sp,264
     48a:	0000                	unimp
     48c:	0001                	nop
     48e:	0000                	unimp
     490:	000000bb          	0xbb
     494:	03dd                	addi	t2,t2,23
     496:	0000                	unimp
     498:	02ed                	addi	t0,t0,27
     49a:	0000                	unimp
     49c:	016d                	addi	sp,sp,27
     49e:	0000                	unimp
     4a0:	015e                	slli	sp,sp,0x17
     4a2:	0000                	unimp
     4a4:	023c                	addi	a5,sp,264
     4a6:	0000                	unimp
     4a8:	0084                	addi	s1,sp,64
     4aa:	0000                	unimp
     4ac:	0040                	addi	s0,sp,4
     4ae:	0000                	unimp
     4b0:	03b5                	addi	t2,t2,13
     4b2:	0000                	unimp
     4b4:	0099                	addi	ra,ra,6
     4b6:	0000                	unimp
     4b8:	0248                	addi	a0,sp,260
     4ba:	0000                	unimp
     4bc:	00d8                	addi	a4,sp,68
     4be:	0000                	unimp
     4c0:	0325                	addi	t1,t1,9
     4c2:	0000                	unimp
     4c4:	008c                	addi	a1,sp,64
     4c6:	0000                	unimp
     4c8:	026d                	addi	tp,tp,27
     4ca:	0000                	unimp
     4cc:	00d2                	slli	ra,ra,0x14
     4ce:	0000                	unimp
     4d0:	0006                	c.slli	zero,0x1
     4d2:	0000                	unimp
     4d4:	023c                	addi	a5,sp,264
     4d6:	0000                	unimp
     4d8:	000003a3          	sb	zero,7(zero) # 7 <_start+0x7>
     4dc:	00000153          	fadd.s	ft2,ft0,ft0,rne
     4e0:	037a                	slli	t1,t1,0x1e
     4e2:	0000                	unimp
     4e4:	0251                	addi	tp,tp,20
     4e6:	0000                	unimp
     4e8:	0188                	addi	a0,sp,192
     4ea:	0000                	unimp
     4ec:	0382                	slli	t2,t2,0x0
     4ee:	0000                	unimp
     4f0:	02b6                	slli	t0,t0,0xd
     4f2:	0000                	unimp
     4f4:	00e4                	addi	s1,sp,76
     4f6:	0000                	unimp
     4f8:	03c1                	addi	t2,t2,16
     4fa:	0000                	unimp
     4fc:	000c                	0xc
     4fe:	0000                	unimp
     500:	006e                	c.slli	zero,0x1b
     502:	0000                	unimp
     504:	00000373          	0x373
     508:	0074                	addi	a3,sp,12
     50a:	0000                	unimp
     50c:	02ee                	slli	t0,t0,0x1b
     50e:	0000                	unimp
     510:	0128                	addi	a0,sp,136
     512:	0000                	unimp
     514:	0286                	slli	t0,t0,0x1
     516:	0000                	unimp
     518:	01aa                	slli	gp,gp,0xa
     51a:	0000                	unimp
     51c:	01f4                	addi	a3,sp,204
     51e:	0000                	unimp
     520:	013a                	slli	sp,sp,0xe
     522:	0000                	unimp
     524:	01b4                	addi	a3,sp,200
     526:	0000                	unimp
     528:	00000293          	li	t0,0
     52c:	02bd                	addi	t0,t0,15
     52e:	0000                	unimp
     530:	0306                	slli	t1,t1,0x1
     532:	0000                	unimp
     534:	032c                	addi	a1,sp,392
     536:	0000                	unimp
     538:	0000013f 000003d5 	0x3d50000013f
     540:	02a6                	slli	t0,t0,0x9
     542:	0000                	unimp
     544:	0096                	slli	ra,ra,0x5
     546:	0000                	unimp
     548:	0000036b          	0x36b
     54c:	02b8                	addi	a4,sp,328
     54e:	0000                	unimp
     550:	0178                	addi	a4,sp,140
     552:	0000                	unimp
     554:	0234                	addi	a3,sp,264
     556:	0000                	unimp
     558:	01da                	slli	gp,gp,0x16
     55a:	0000                	unimp
     55c:	0110                	addi	a2,sp,128
     55e:	0000                	unimp
     560:	03aa                	slli	t2,t2,0xa
     562:	0000                	unimp
     564:	0102                	slli	sp,sp,0x0
     566:	0000                	unimp
     568:	0000021b          	0x21b
     56c:	00000287          	0x287
     570:	0239                	addi	tp,tp,14
     572:	0000                	unimp
     574:	01fd                	addi	gp,gp,31
     576:	0000                	unimp
     578:	000000cb          	fnmsub.s	ft1,ft0,ft0,ft0,rne
     57c:	0058                	addi	a4,sp,4
     57e:	0000                	unimp
     580:	0118                	addi	a4,sp,128
     582:	0000                	unimp
     584:	000002bf 000002f7 	0x2f7000002bf
     58c:	029d                	addi	t0,t0,7
     58e:	0000                	unimp
     590:	025e                	slli	tp,tp,0x17
     592:	0000                	unimp
     594:	00000177          	0x177
     598:	01ff                	0x1ff
     59a:	0000                	unimp
     59c:	00000227          	0x227
     5a0:	0291                	addi	t0,t0,4
     5a2:	0000                	unimp
     5a4:	03a8                	addi	a0,sp,456
     5a6:	0000                	unimp
     5a8:	000000c3          	fmadd.s	ft1,ft0,ft0,ft0,rne
     5ac:	0250                	addi	a2,sp,260
     5ae:	0000                	unimp
     5b0:	0051                	c.nop	20
     5b2:	0000                	unimp
     5b4:	0239                	addi	tp,tp,14
     5b6:	0000                	unimp
     5b8:	0000010b          	0x10b
     5bc:	03b8                	addi	a4,sp,456
     5be:	0000                	unimp
     5c0:	00e5                	addi	ra,ra,25
     5c2:	0000                	unimp
     5c4:	0320                	addi	s0,sp,392
     5c6:	0000                	unimp
     5c8:	0151                	addi	sp,sp,20
     5ca:	0000                	unimp
     5cc:	0248                	addi	a0,sp,260
     5ce:	0000                	unimp
     5d0:	03b0                	addi	a2,sp,456
     5d2:	0000                	unimp
     5d4:	00000283          	lb	t0,0(zero) # 0 <_start>
     5d8:	0386                	slli	t2,t2,0x1
     5da:	0000                	unimp
     5dc:	0170                	addi	a2,sp,140
     5de:	0000                	unimp
     5e0:	00f1                	addi	ra,ra,28
     5e2:	0000                	unimp
     5e4:	01e9                	addi	gp,gp,26
     5e6:	0000                	unimp
     5e8:	0391                	addi	t2,t2,4
     5ea:	0000                	unimp
     5ec:	0148                	addi	a0,sp,132
     5ee:	0000                	unimp
     5f0:	033a                	slli	t1,t1,0xe
     5f2:	0000                	unimp
     5f4:	0139                	addi	sp,sp,14
     5f6:	0000                	unimp
     5f8:	03a5                	addi	t2,t2,9
     5fa:	0000                	unimp
     5fc:	0250                	addi	a2,sp,260
     5fe:	0000                	unimp
     600:	03d9                	addi	t2,t2,22
     602:	0000                	unimp
     604:	0184                	addi	s1,sp,192
     606:	0000                	unimp
     608:	000000c3          	fmadd.s	ft1,ft0,ft0,ft0,rne
     60c:	021f 0000 03c0      	0x3c00000021f
     612:	0000                	unimp
     614:	0289                	addi	t0,t0,2
     616:	0000                	unimp
     618:	0236                	slli	tp,tp,0xd
     61a:	0000                	unimp
     61c:	000003d3          	fadd.s	ft7,ft0,ft0,rne
     620:	015e                	slli	sp,sp,0x17
     622:	0000                	unimp
     624:	03e5                	addi	t2,t2,25
     626:	0000                	unimp
     628:	0289                	addi	t0,t0,2
     62a:	0000                	unimp
     62c:	032e                	slli	t1,t1,0xb
     62e:	0000                	unimp
     630:	0291                	addi	t0,t0,4
     632:	0000                	unimp
     634:	0000004f          	fnmadd.s	ft0,ft0,ft0,ft0,rne
     638:	00b5                	addi	ra,ra,13
     63a:	0000                	unimp
     63c:	00d0                	addi	a2,sp,68
     63e:	0000                	unimp
     640:	0000006f          	j	640 <input_data+0x1c8>
     644:	03e6                	slli	t2,t2,0x19
     646:	0000                	unimp
     648:	0000035b          	0x35b
     64c:	0275                	addi	tp,tp,29
     64e:	0000                	unimp
     650:	0041                	c.nop	16
     652:	0000                	unimp
     654:	0000034f          	fnmadd.s	ft6,ft0,ft0,ft0,rne
     658:	0120                	addi	s0,sp,136
     65a:	0000                	unimp
     65c:	02c0                	addi	s0,sp,324
     65e:	0000                	unimp
     660:	015d                	addi	sp,sp,23
     662:	0000                	unimp
     664:	03e5                	addi	t2,t2,25
     666:	0000                	unimp
     668:	008d                	addi	ra,ra,3
     66a:	0000                	unimp
     66c:	00fd                	addi	ra,ra,31
     66e:	0000                	unimp
     670:	0389                	addi	t2,t2,2
     672:	0000                	unimp
     674:	000002cb          	fnmsub.s	ft5,ft0,ft0,ft0,rne
     678:	0376                	slli	t1,t1,0x1d
     67a:	0000                	unimp
     67c:	01ae                	slli	gp,gp,0xb
     67e:	0000                	unimp
     680:	0108                	addi	a0,sp,128
     682:	0000                	unimp
     684:	019f 0000 0240      	0x2400000019f
     68a:	0000                	unimp
     68c:	021a                	slli	tp,tp,0x6
     68e:	0000                	unimp
     690:	000003d3          	fadd.s	ft7,ft0,ft0,rne
     694:	02bc                	addi	a5,sp,328
     696:	0000                	unimp
     698:	02f9                	addi	t0,t0,30
     69a:	0000                	unimp
     69c:	0004                	0x4
     69e:	0000                	unimp
     6a0:	00f1                	addi	ra,ra,28
     6a2:	0000                	unimp
     6a4:	01ee                	slli	gp,gp,0x1b
     6a6:	0000                	unimp
     6a8:	01de                	slli	gp,gp,0x17
     6aa:	0000                	unimp
     6ac:	0064                	addi	s1,sp,12
     6ae:	0000                	unimp
     6b0:	000001f3          	0x1f3
     6b4:	0360                	addi	s0,sp,396
     6b6:	0000                	unimp
     6b8:	00000193          	li	gp,0
     6bc:	02b5                	addi	t0,t0,13
     6be:	0000                	unimp
     6c0:	00de                	slli	ra,ra,0x17
     6c2:	0000                	unimp
     6c4:	01a0                	addi	s0,sp,200
     6c6:	0000                	unimp
     6c8:	01bc                	addi	a5,sp,200
     6ca:	0000                	unimp
     6cc:	0128                	addi	a0,sp,136
     6ce:	0000                	unimp
     6d0:	02d1                	addi	t0,t0,20
     6d2:	0000                	unimp
     6d4:	011d                	addi	sp,sp,7
     6d6:	0000                	unimp
     6d8:	02a4                	addi	s1,sp,328
     6da:	0000                	unimp
     6dc:	026c                	addi	a1,sp,268
     6de:	0000                	unimp
     6e0:	013d                	addi	sp,sp,15
     6e2:	0000                	unimp
     6e4:	004e                	c.slli	zero,0x13
     6e6:	0000                	unimp
     6e8:	00e0                	addi	s0,sp,76
     6ea:	0000                	unimp
     6ec:	015f 0000 03a9      	0x3a90000015f
     6f2:	0000                	unimp
     6f4:	021c                	addi	a5,sp,256
     6f6:	0000                	unimp
     6f8:	0120                	addi	s0,sp,136
     6fa:	0000                	unimp
     6fc:	0286                	slli	t0,t0,0x1
     6fe:	0000                	unimp
     700:	00000077          	0x77
     704:	00a9                	addi	ra,ra,10
     706:	0000                	unimp
     708:	00000267          	jalr	tp,zero
     70c:	0000020f          	0x20f
     710:	025e                	slli	tp,tp,0x17
     712:	0000                	unimp
     714:	0121                	addi	sp,sp,8
     716:	0000                	unimp
     718:	0185                	addi	gp,gp,1
     71a:	0000                	unimp
     71c:	031c                	addi	a5,sp,384
     71e:	0000                	unimp
     720:	015f 0000 0321      	0x3210000015f
     726:	0000                	unimp
     728:	000001c7          	fmsub.s	ft3,ft0,ft0,ft0,rne
     72c:	02d0                	addi	a2,sp,324
     72e:	0000                	unimp
     730:	0116                	slli	sp,sp,0x5
     732:	0000                	unimp
     734:	02f6                	slli	t0,t0,0x1d
     736:	0000                	unimp
     738:	0000016f          	jal	sp,738 <input_data+0x2c0>
     73c:	02e9                	addi	t0,t0,26
     73e:	0000                	unimp
     740:	0166                	slli	sp,sp,0x19
     742:	0000                	unimp
     744:	005c                	addi	a5,sp,4
     746:	0000                	unimp
     748:	0248                	addi	a0,sp,260
     74a:	0000                	unimp
     74c:	03dd                	addi	t2,t2,23
     74e:	0000                	unimp
     750:	003e                	c.slli	zero,0xf
     752:	0000                	unimp
     754:	0000010f          	0x10f
     758:	03d9                	addi	t2,t2,22
     75a:	0000                	unimp
     75c:	0355                	addi	t1,t1,21
     75e:	0000                	unimp
     760:	00000193          	li	gp,0
     764:	0314                	addi	a3,sp,384
     766:	0000                	unimp
     768:	015a                	slli	sp,sp,0x16
     76a:	0000                	unimp
     76c:	00000213          	li	tp,0
     770:	0205                	addi	tp,tp,1
     772:	0000                	unimp
     774:	00de                	slli	ra,ra,0x17
     776:	0000                	unimp
     778:	0000022f          	0x22f
     77c:	01cd                	addi	gp,gp,19
     77e:	0000                	unimp
     780:	038c                	addi	a1,sp,448
     782:	0000                	unimp
     784:	00f1                	addi	ra,ra,28
     786:	0000                	unimp
     788:	00000307          	0x307
     78c:	0166                	slli	sp,sp,0x19
     78e:	0000                	unimp
     790:	00ff                	0xff
     792:	0000                	unimp
     794:	014c                	addi	a1,sp,132
     796:	0000                	unimp
     798:	030a                	slli	t1,t1,0x2
     79a:	0000                	unimp
     79c:	02ac                	addi	a1,sp,328
     79e:	0000                	unimp
     7a0:	0256                	slli	tp,tp,0x15
     7a2:	0000                	unimp
     7a4:	02e4                	addi	s1,sp,332
     7a6:	0000                	unimp
     7a8:	0000008f          	0x8f
     7ac:	01be                	slli	gp,gp,0xf
     7ae:	0000                	unimp
     7b0:	0021                	c.nop	8
     7b2:	0000                	unimp
     7b4:	00000137          	lui	sp,0x0
     7b8:	007d                	c.nop	31
     7ba:	0000                	unimp
     7bc:	000002e7          	jalr	t0,zero
     7c0:	03ad                	addi	t2,t2,11
     7c2:	0000                	unimp
     7c4:	022d                	addi	tp,tp,11
     7c6:	0000                	unimp
     7c8:	03a5                	addi	t2,t2,9
     7ca:	0000                	unimp
     7cc:	01df 0000 031f      	0x31f000001df
     7d2:	0000                	unimp
     7d4:	022d                	addi	tp,tp,11
     7d6:	0000                	unimp
     7d8:	0229                	addi	tp,tp,10
     7da:	0000                	unimp
     7dc:	039d                	addi	t2,t2,7
     7de:	0000                	unimp
     7e0:	000001af          	0x1af
     7e4:	031c                	addi	a5,sp,384
     7e6:	0000                	unimp
     7e8:	0288                	addi	a0,sp,320
     7ea:	0000                	unimp
     7ec:	0165                	addi	sp,sp,25
     7ee:	0000                	unimp
     7f0:	03b8                	addi	a4,sp,456
     7f2:	0000                	unimp
     7f4:	0000037b          	0x37b
     7f8:	011f 0000 029a      	0x29a0000011f
     7fe:	0000                	unimp
     800:	00000013          	nop
     804:	0202                	slli	tp,tp,0x0
     806:	0000                	unimp
     808:	0031                	c.nop	12
     80a:	0000                	unimp
     80c:	022d                	addi	tp,tp,11
     80e:	0000                	unimp
     810:	0056                	c.slli	zero,0x15
     812:	0000                	unimp
     814:	0366                	slli	t1,t1,0x19
     816:	0000                	unimp
     818:	005f 0000 0355      	0x3550000005f
     81e:	0000                	unimp
     820:	01b9                	addi	gp,gp,14
     822:	0000                	unimp
     824:	01b8                	addi	a4,sp,200
     826:	0000                	unimp
     828:	0000024b          	fnmsub.s	ft4,ft0,ft0,ft0,rne
     82c:	003d                	c.nop	15
     82e:	0000                	unimp
     830:	0266                	slli	tp,tp,0x19
     832:	0000                	unimp
     834:	02a6                	slli	t0,t0,0x9
     836:	0000                	unimp
     838:	017e                	slli	sp,sp,0x1f
     83a:	0000                	unimp
     83c:	018c                	addi	a1,sp,192
     83e:	0000                	unimp
     840:	0118                	addi	a4,sp,128
     842:	0000                	unimp
     844:	0009                	c.nop	2
     846:	0000                	unimp
     848:	0328                	addi	a0,sp,392
     84a:	0000                	unimp
     84c:	0011                	c.nop	4
     84e:	0000                	unimp
     850:	000003cb          	fnmsub.s	ft7,ft0,ft0,ft0,rne
     854:	00aa                	slli	ra,ra,0xa
     856:	0000                	unimp
     858:	00000333          	add	t1,zero,zero
     85c:	00000123          	sb	zero,2(zero) # 2 <_start+0x2>
     860:	0158                	addi	a4,sp,132
     862:	0000                	unimp
     864:	017c                	addi	a5,sp,140
     866:	0000                	unimp
     868:	01c2                	slli	gp,gp,0x10
     86a:	0000                	unimp
     86c:	0218                	addi	a4,sp,256
     86e:	0000                	unimp
     870:	0200                	addi	s0,sp,256
     872:	0000                	unimp
     874:	00b9                	addi	ra,ra,14
     876:	0000                	unimp
     878:	03c5                	addi	t2,t2,17
     87a:	0000                	unimp
     87c:	0395                	addi	t2,t2,5
     87e:	0000                	unimp
     880:	0000015b          	0x15b
     884:	0000021b          	0x21b
     888:	0328                	addi	a0,sp,392
     88a:	0000                	unimp
     88c:	000003d7          	0x3d7
     890:	0372                	slli	t1,t1,0x1c
     892:	0000                	unimp
     894:	00000377          	0x377
     898:	0219                	addi	tp,tp,6
     89a:	0000                	unimp
     89c:	0036                	c.slli	zero,0xd
     89e:	0000                	unimp
     8a0:	03b2                	slli	t2,t2,0xc
     8a2:	0000                	unimp
     8a4:	0264                	addi	s1,sp,268
     8a6:	0000                	unimp
     8a8:	02bd                	addi	t0,t0,15
     8aa:	0000                	unimp
     8ac:	000003b7          	lui	t2,0x0
     8b0:	0164                	addi	s1,sp,140
     8b2:	0000                	unimp
     8b4:	01df 0000 0237      	0x237000001df
     8ba:	0000                	unimp
     8bc:	00000097          	auipc	ra,0x0
     8c0:	0000037b          	0x37b
     8c4:	00000007          	0x7
     8c8:	0016                	c.slli	zero,0x5
     8ca:	0000                	unimp
     8cc:	0281                	addi	t0,t0,0
     8ce:	0000                	unimp
     8d0:	0238                	addi	a4,sp,264
     8d2:	0000                	unimp
     8d4:	0000014f          	fnmadd.s	ft2,ft0,ft0,ft0,rne
     8d8:	0299                	addi	t0,t0,6
     8da:	0000                	unimp
     8dc:	02da                	slli	t0,t0,0x16
     8de:	0000                	unimp
     8e0:	000001a7          	0x1a7
     8e4:	005f 0000 01b2      	0x1b20000005f
     8ea:	0000                	unimp
     8ec:	02d8                	addi	a4,sp,324
     8ee:	0000                	unimp
     8f0:	009e                	slli	ra,ra,0x7
     8f2:	0000                	unimp
     8f4:	0118                	addi	a4,sp,128
     8f6:	0000                	unimp
     8f8:	0002                	c.slli	zero,0x0
     8fa:	0000                	unimp
     8fc:	0000018b          	0x18b
     900:	0054                	addi	a3,sp,4
     902:	0000                	unimp
     904:	02b0                	addi	a2,sp,328
     906:	0000                	unimp
     908:	000000f7          	0xf7
     90c:	0000038f          	0x38f
     910:	0031                	c.nop	12
     912:	0000                	unimp
     914:	01dc                	addi	a5,sp,196
     916:	0000                	unimp
     918:	000001b3          	add	gp,zero,zero
     91c:	0000032f          	0x32f
     920:	0318                	addi	a4,sp,384
     922:	0000                	unimp
     924:	02d9                	addi	t0,t0,22
     926:	0000                	unimp
     928:	0365                	addi	t1,t1,25
     92a:	0000                	unimp
     92c:	0109                	addi	sp,sp,2
     92e:	0000                	unimp
     930:	01e6                	slli	gp,gp,0x19
     932:	0000                	unimp
     934:	007f                	0x7f
     936:	0000                	unimp
     938:	019e                	slli	gp,gp,0x7
     93a:	0000                	unimp
     93c:	00ec                	addi	a1,sp,76
     93e:	0000                	unimp
     940:	0171                	addi	sp,sp,28
     942:	0000                	unimp
     944:	00d6                	slli	ra,ra,0x15
     946:	0000                	unimp
     948:	0224                	addi	s1,sp,264
     94a:	0000                	unimp
     94c:	00b4                	addi	a3,sp,72
     94e:	0000                	unimp
     950:	0206                	slli	tp,tp,0x1
     952:	0000                	unimp
     954:	0006                	c.slli	zero,0x1
     956:	0000                	unimp
     958:	0378                	addi	a4,sp,396
     95a:	0000                	unimp
     95c:	000001f7          	0x1f7
     960:	02aa                	slli	t0,t0,0xa
     962:	0000                	unimp
     964:	0254                	addi	a3,sp,260
     966:	0000                	unimp
     968:	011c                	addi	a5,sp,128
     96a:	0000                	unimp
     96c:	00ad                	addi	ra,ra,11
     96e:	0000                	unimp
     970:	0108                	addi	a0,sp,128
     972:	0000                	unimp
     974:	00000283          	lb	t0,0(zero) # 0 <_start>
     978:	000001f3          	0x1f3
     97c:	015a                	slli	sp,sp,0x16
     97e:	0000                	unimp
     980:	0122                	slli	sp,sp,0x8
     982:	0000                	unimp
     984:	00000257          	0x257
     988:	0381                	addi	t2,t2,0
     98a:	0000                	unimp
     98c:	0044                	addi	s1,sp,4
     98e:	0000                	unimp
     990:	000000d7          	0xd7
     994:	0351                	addi	t1,t1,20
     996:	0000                	unimp
     998:	000002db          	0x2db
     99c:	0292                	slli	t0,t0,0x4
     99e:	0000                	unimp
     9a0:	02b0                	addi	a2,sp,328
     9a2:	0000                	unimp
     9a4:	0000026b          	0x26b
     9a8:	000000fb          	0xfb
     9ac:	0079                	c.nop	30
     9ae:	0000                	unimp
     9b0:	0312                	slli	t1,t1,0x4
     9b2:	0000                	unimp
     9b4:	00000083          	lb	ra,0(zero) # 0 <_start>
     9b8:	0000022b          	0x22b
     9bc:	033c                	addi	a5,sp,392
     9be:	0000                	unimp
     9c0:	012e                	slli	sp,sp,0xb
     9c2:	0000                	unimp
     9c4:	0000029b          	0x29b
     9c8:	0210                	addi	a2,sp,256
     9ca:	0000                	unimp
     9cc:	01b1                	addi	gp,gp,12
     9ce:	0000                	unimp
     9d0:	0220                	addi	s0,sp,264
     9d2:	0000                	unimp
     9d4:	000001e7          	jalr	gp,zero
     9d8:	0142                	slli	sp,sp,0x10
     9da:	0000                	unimp
     9dc:	02f1                	addi	t0,t0,28
     9de:	0000                	unimp
     9e0:	000003b3          	add	t2,zero,zero
     9e4:	007d                	c.nop	31
     9e6:	0000                	unimp
     9e8:	011f 0000 0272      	0x2720000011f
     9ee:	0000                	unimp
     9f0:	0338                	addi	a4,sp,392
     9f2:	0000                	unimp
     9f4:	000e                	c.slli	zero,0x3
     9f6:	0000                	unimp
     9f8:	0130                	addi	a2,sp,136
     9fa:	0000                	unimp
     9fc:	000a                	c.slli	zero,0x2
     9fe:	0000                	unimp
     a00:	0314                	addi	a3,sp,384
     a02:	0000                	unimp
     a04:	00000193          	li	gp,0
     a08:	02dd                	addi	t0,t0,23
     a0a:	0000                	unimp
     a0c:	006a                	c.slli	zero,0x1a
     a0e:	0000                	unimp
     a10:	000003bf 000002bf 	0x2bf000003bf
     a18:	016e                	slli	sp,sp,0x1b
     a1a:	0000                	unimp
     a1c:	0332                	slli	t1,t1,0xc
     a1e:	0000                	unimp
     a20:	02d2                	slli	t0,t0,0x14
     a22:	0000                	unimp
     a24:	03c4                	addi	s1,sp,452
     a26:	0000                	unimp
     a28:	0126                	slli	sp,sp,0x9
     a2a:	0000                	unimp
     a2c:	0196                	slli	gp,gp,0x5
     a2e:	0000                	unimp
     a30:	000003cf          	fnmadd.s	ft7,ft0,ft0,ft0,rne
     a34:	036a                	slli	t1,t1,0x1a
     a36:	0000                	unimp
     a38:	028d                	addi	t0,t0,3
     a3a:	0000                	unimp
     a3c:	0358                	addi	a4,sp,388
     a3e:	0000                	unimp
     a40:	02ec                	addi	a1,sp,332
     a42:	0000                	unimp
     a44:	0056                	c.slli	zero,0x15
     a46:	0000                	unimp
     a48:	0000005b          	0x5b
     a4c:	003c                	addi	a5,sp,8
     a4e:	0000                	unimp
     a50:	017a                	slli	sp,sp,0x1e
     a52:	0000                	unimp
     a54:	0294                	addi	a3,sp,320
     a56:	0000                	unimp
     a58:	0069                	c.nop	26
     a5a:	0000                	unimp
     a5c:	0000029b          	0x29b
     a60:	0066                	c.slli	zero,0x19
     a62:	0000                	unimp
     a64:	0099                	addi	ra,ra,6
     a66:	0000                	unimp
     a68:	017d                	addi	sp,sp,31
     a6a:	0000                	unimp
     a6c:	0079                	c.nop	30
     a6e:	0000                	unimp
     a70:	0000028b          	0x28b
     a74:	0062                	c.slli	zero,0x18
     a76:	0000                	unimp
     a78:	0339                	addi	t1,t1,14
     a7a:	0000                	unimp
     a7c:	019c                	addi	a5,sp,192
     a7e:	0000                	unimp
     a80:	0348                	addi	a0,sp,388
     a82:	0000                	unimp
     a84:	00ec                	addi	a1,sp,76
     a86:	0000                	unimp
     a88:	0164                	addi	s1,sp,140
     a8a:	0000                	unimp
     a8c:	000c                	0xc
     a8e:	0000                	unimp
     a90:	0094                	addi	a3,sp,64
     a92:	0000                	unimp
     a94:	000001a7          	0x1a7
     a98:	0036                	c.slli	zero,0xd
     a9a:	0000                	unimp
     a9c:	03c5                	addi	t2,t2,17
     a9e:	0000                	unimp
     aa0:	008c                	addi	a1,sp,64
     aa2:	0000                	unimp
     aa4:	00d8                	addi	a4,sp,68
     aa6:	0000                	unimp
     aa8:	000003bb          	0x3bb
     aac:	026d                	addi	tp,tp,27
     aae:	0000                	unimp
     ab0:	00000157          	0x157
     ab4:	0169                	addi	sp,sp,26
     ab6:	0000                	unimp

00000ab8 <verify_data>:
     ab8:	0000                	unimp
     aba:	0000                	unimp
     abc:	01c6                	slli	gp,gp,0x11
     abe:	0000                	unimp
     ac0:	01c6                	slli	gp,gp,0x11
     ac2:	0000                	unimp
     ac4:	0234                	addi	a3,sp,264
     ac6:	0000                	unimp
     ac8:	0000014f          	fnmadd.s	ft2,ft0,ft0,ft0,rne
     acc:	000000bb          	0xbb
     ad0:	000000bb          	0xbb
     ad4:	02ed                	addi	t0,t0,27
     ad6:	0000                	unimp
     ad8:	02ed                	addi	t0,t0,27
     ada:	0000                	unimp
     adc:	016d                	addi	sp,sp,27
     ade:	0000                	unimp
     ae0:	016d                	addi	sp,sp,27
     ae2:	0000                	unimp
     ae4:	015e                	slli	sp,sp,0x17
     ae6:	0000                	unimp
     ae8:	0084                	addi	s1,sp,64
     aea:	0000                	unimp
     aec:	0084                	addi	s1,sp,64
     aee:	0000                	unimp
     af0:	0099                	addi	ra,ra,6
     af2:	0000                	unimp
     af4:	0248                	addi	a0,sp,260
     af6:	0000                	unimp
     af8:	00d8                	addi	a4,sp,68
     afa:	0000                	unimp
     afc:	0248                	addi	a0,sp,260
     afe:	0000                	unimp
     b00:	00d8                	addi	a4,sp,68
     b02:	0000                	unimp
     b04:	026d                	addi	tp,tp,27
     b06:	0000                	unimp
     b08:	00d2                	slli	ra,ra,0x14
     b0a:	0000                	unimp
     b0c:	00d2                	slli	ra,ra,0x14
     b0e:	0000                	unimp
     b10:	00d2                	slli	ra,ra,0x14
     b12:	0000                	unimp
     b14:	023c                	addi	a5,sp,264
     b16:	0000                	unimp
     b18:	023c                	addi	a5,sp,264
     b1a:	0000                	unimp
     b1c:	037a                	slli	t1,t1,0x1e
     b1e:	0000                	unimp
     b20:	0251                	addi	tp,tp,20
     b22:	0000                	unimp
     b24:	0251                	addi	tp,tp,20
     b26:	0000                	unimp
     b28:	0251                	addi	tp,tp,20
     b2a:	0000                	unimp
     b2c:	02b6                	slli	t0,t0,0xd
     b2e:	0000                	unimp
     b30:	02b6                	slli	t0,t0,0xd
     b32:	0000                	unimp
     b34:	02b6                	slli	t0,t0,0xd
     b36:	0000                	unimp
     b38:	00e4                	addi	s1,sp,76
     b3a:	0000                	unimp
     b3c:	006e                	c.slli	zero,0x1b
     b3e:	0000                	unimp
     b40:	006e                	c.slli	zero,0x1b
     b42:	0000                	unimp
     b44:	0074                	addi	a3,sp,12
     b46:	0000                	unimp
     b48:	02ee                	slli	t0,t0,0x1b
     b4a:	0000                	unimp
     b4c:	0128                	addi	a0,sp,136
     b4e:	0000                	unimp
     b50:	0286                	slli	t0,t0,0x1
     b52:	0000                	unimp
     b54:	01aa                	slli	gp,gp,0xa
     b56:	0000                	unimp
     b58:	01f4                	addi	a3,sp,204
     b5a:	0000                	unimp
     b5c:	01aa                	slli	gp,gp,0xa
     b5e:	0000                	unimp
     b60:	01b4                	addi	a3,sp,200
     b62:	0000                	unimp
     b64:	01b4                	addi	a3,sp,200
     b66:	0000                	unimp
     b68:	00000293          	li	t0,0
     b6c:	02bd                	addi	t0,t0,15
     b6e:	0000                	unimp
     b70:	0306                	slli	t1,t1,0x1
     b72:	0000                	unimp
     b74:	0306                	slli	t1,t1,0x1
     b76:	0000                	unimp
     b78:	032c                	addi	a1,sp,392
     b7a:	0000                	unimp
     b7c:	02a6                	slli	t0,t0,0x9
     b7e:	0000                	unimp
     b80:	02a6                	slli	t0,t0,0x9
     b82:	0000                	unimp
     b84:	02a6                	slli	t0,t0,0x9
     b86:	0000                	unimp
     b88:	02b8                	addi	a4,sp,328
     b8a:	0000                	unimp
     b8c:	02b8                	addi	a4,sp,328
     b8e:	0000                	unimp
     b90:	0234                	addi	a3,sp,264
     b92:	0000                	unimp
     b94:	01da                	slli	gp,gp,0x16
     b96:	0000                	unimp
     b98:	01da                	slli	gp,gp,0x16
     b9a:	0000                	unimp
     b9c:	01da                	slli	gp,gp,0x16
     b9e:	0000                	unimp
     ba0:	0110                	addi	a2,sp,128
     ba2:	0000                	unimp
     ba4:	0000021b          	0x21b
     ba8:	0000021b          	0x21b
     bac:	0239                	addi	tp,tp,14
     bae:	0000                	unimp
     bb0:	0239                	addi	tp,tp,14
     bb2:	0000                	unimp
     bb4:	01fd                	addi	gp,gp,31
     bb6:	0000                	unimp
     bb8:	000000cb          	fnmsub.s	ft1,ft0,ft0,ft0,rne
     bbc:	000000cb          	fnmsub.s	ft1,ft0,ft0,ft0,rne
     bc0:	0118                	addi	a4,sp,128
     bc2:	0000                	unimp
     bc4:	000002bf 000002bf 	0x2bf000002bf
     bcc:	029d                	addi	t0,t0,7
     bce:	0000                	unimp
     bd0:	025e                	slli	tp,tp,0x17
     bd2:	0000                	unimp
     bd4:	01ff                	0x1ff
     bd6:	0000                	unimp
     bd8:	01ff                	0x1ff
     bda:	0000                	unimp
     bdc:	00000227          	0x227
     be0:	0291                	addi	t0,t0,4
     be2:	0000                	unimp
     be4:	0291                	addi	t0,t0,4
     be6:	0000                	unimp
     be8:	0250                	addi	a2,sp,260
     bea:	0000                	unimp
     bec:	000000c3          	fmadd.s	ft1,ft0,ft0,ft0,rne
     bf0:	0239                	addi	tp,tp,14
     bf2:	0000                	unimp
     bf4:	0000010b          	0x10b
     bf8:	0239                	addi	tp,tp,14
     bfa:	0000                	unimp
     bfc:	0000010b          	0x10b
     c00:	0320                	addi	s0,sp,392
     c02:	0000                	unimp
     c04:	0151                	addi	sp,sp,20
     c06:	0000                	unimp
     c08:	0248                	addi	a0,sp,260
     c0a:	0000                	unimp
     c0c:	0248                	addi	a0,sp,260
     c0e:	0000                	unimp
     c10:	00000283          	lb	t0,0(zero) # 0 <_start>
     c14:	0386                	slli	t2,t2,0x1
     c16:	0000                	unimp
     c18:	00000283          	lb	t0,0(zero) # 0 <_start>
     c1c:	0170                	addi	a2,sp,140
     c1e:	0000                	unimp
     c20:	0170                	addi	a2,sp,140
     c22:	0000                	unimp
     c24:	01e9                	addi	gp,gp,26
     c26:	0000                	unimp
     c28:	01e9                	addi	gp,gp,26
     c2a:	0000                	unimp
     c2c:	033a                	slli	t1,t1,0xe
     c2e:	0000                	unimp
     c30:	0148                	addi	a0,sp,132
     c32:	0000                	unimp
     c34:	033a                	slli	t1,t1,0xe
     c36:	0000                	unimp
     c38:	0250                	addi	a2,sp,260
     c3a:	0000                	unimp
     c3c:	03a5                	addi	t2,t2,9
     c3e:	0000                	unimp
     c40:	0250                	addi	a2,sp,260
     c42:	0000                	unimp
     c44:	0184                	addi	s1,sp,192
     c46:	0000                	unimp
     c48:	0184                	addi	s1,sp,192
     c4a:	0000                	unimp
     c4c:	021f 0000 0289      	0x2890000021f
     c52:	0000                	unimp
     c54:	0289                	addi	t0,t0,2
     c56:	0000                	unimp
     c58:	0289                	addi	t0,t0,2
     c5a:	0000                	unimp
     c5c:	0236                	slli	tp,tp,0xd
     c5e:	0000                	unimp
     c60:	000003d3          	fadd.s	ft7,ft0,ft0,rne
     c64:	0289                	addi	t0,t0,2
     c66:	0000                	unimp
     c68:	032e                	slli	t1,t1,0xb
     c6a:	0000                	unimp
     c6c:	0291                	addi	t0,t0,4
     c6e:	0000                	unimp
     c70:	0291                	addi	t0,t0,4
     c72:	0000                	unimp
     c74:	00b5                	addi	ra,ra,13
     c76:	0000                	unimp
     c78:	00b5                	addi	ra,ra,13
     c7a:	0000                	unimp
     c7c:	00b5                	addi	ra,ra,13
     c7e:	0000                	unimp
     c80:	00d0                	addi	a2,sp,68
     c82:	0000                	unimp
     c84:	0000035b          	0x35b
     c88:	0000035b          	0x35b
     c8c:	0275                	addi	tp,tp,29
     c8e:	0000                	unimp
     c90:	0275                	addi	tp,tp,29
     c92:	0000                	unimp
     c94:	0120                	addi	s0,sp,136
     c96:	0000                	unimp
     c98:	02c0                	addi	s0,sp,324
     c9a:	0000                	unimp
     c9c:	015d                	addi	sp,sp,23
     c9e:	0000                	unimp
     ca0:	02c0                	addi	s0,sp,324
     ca2:	0000                	unimp
     ca4:	015d                	addi	sp,sp,23
     ca6:	0000                	unimp
     ca8:	00fd                	addi	ra,ra,31
     caa:	0000                	unimp
     cac:	00fd                	addi	ra,ra,31
     cae:	0000                	unimp
     cb0:	000002cb          	fnmsub.s	ft5,ft0,ft0,ft0,rne
     cb4:	0376                	slli	t1,t1,0x1d
     cb6:	0000                	unimp
     cb8:	000002cb          	fnmsub.s	ft5,ft0,ft0,ft0,rne
     cbc:	01ae                	slli	gp,gp,0xb
     cbe:	0000                	unimp
     cc0:	019f 0000 019f      	0x19f0000019f
     cc6:	0000                	unimp
     cc8:	021a                	slli	tp,tp,0x6
     cca:	0000                	unimp
     ccc:	0240                	addi	s0,sp,260
     cce:	0000                	unimp
     cd0:	02bc                	addi	a5,sp,328
     cd2:	0000                	unimp
     cd4:	02f9                	addi	t0,t0,30
     cd6:	0000                	unimp
     cd8:	02bc                	addi	a5,sp,328
     cda:	0000                	unimp
     cdc:	00f1                	addi	ra,ra,28
     cde:	0000                	unimp
     ce0:	00f1                	addi	ra,ra,28
     ce2:	0000                	unimp
     ce4:	01de                	slli	gp,gp,0x17
     ce6:	0000                	unimp
     ce8:	01de                	slli	gp,gp,0x17
     cea:	0000                	unimp
     cec:	01de                	slli	gp,gp,0x17
     cee:	0000                	unimp
     cf0:	000001f3          	0x1f3
     cf4:	000001f3          	0x1f3
     cf8:	02b5                	addi	t0,t0,13
     cfa:	0000                	unimp
     cfc:	00000193          	li	gp,0
     d00:	01a0                	addi	s0,sp,200
     d02:	0000                	unimp
     d04:	01a0                	addi	s0,sp,200
     d06:	0000                	unimp
     d08:	01a0                	addi	s0,sp,200
     d0a:	0000                	unimp
     d0c:	01bc                	addi	a5,sp,200
     d0e:	0000                	unimp
     d10:	0128                	addi	a0,sp,136
     d12:	0000                	unimp
     d14:	02a4                	addi	s1,sp,328
     d16:	0000                	unimp
     d18:	026c                	addi	a1,sp,268
     d1a:	0000                	unimp
     d1c:	026c                	addi	a1,sp,268
     d1e:	0000                	unimp
     d20:	013d                	addi	sp,sp,15
     d22:	0000                	unimp
     d24:	00e0                	addi	s0,sp,76
     d26:	0000                	unimp
     d28:	00e0                	addi	s0,sp,76
     d2a:	0000                	unimp
     d2c:	015f 0000 021c      	0x21c0000015f
     d32:	0000                	unimp
     d34:	021c                	addi	a5,sp,256
     d36:	0000                	unimp
     d38:	021c                	addi	a5,sp,256
     d3a:	0000                	unimp
     d3c:	0120                	addi	s0,sp,136
     d3e:	0000                	unimp
     d40:	00a9                	addi	ra,ra,10
     d42:	0000                	unimp
     d44:	00a9                	addi	ra,ra,10
     d46:	0000                	unimp
     d48:	0000020f          	0x20f
     d4c:	025e                	slli	tp,tp,0x17
     d4e:	0000                	unimp
     d50:	0000020f          	0x20f
     d54:	0185                	addi	gp,gp,1
     d56:	0000                	unimp
     d58:	0185                	addi	gp,gp,1
     d5a:	0000                	unimp
     d5c:	0185                	addi	gp,gp,1
     d5e:	0000                	unimp
     d60:	031c                	addi	a5,sp,384
     d62:	0000                	unimp
     d64:	000001c7          	fmsub.s	ft3,ft0,ft0,ft0,rne
     d68:	02d0                	addi	a2,sp,324
     d6a:	0000                	unimp
     d6c:	000001c7          	fmsub.s	ft3,ft0,ft0,ft0,rne
     d70:	02d0                	addi	a2,sp,324
     d72:	0000                	unimp
     d74:	0000016f          	jal	sp,d74 <verify_data+0x2bc>
     d78:	02e9                	addi	t0,t0,26
     d7a:	0000                	unimp
     d7c:	0000016f          	jal	sp,d7c <verify_data+0x2c4>
     d80:	0166                	slli	sp,sp,0x19
     d82:	0000                	unimp
     d84:	0166                	slli	sp,sp,0x19
     d86:	0000                	unimp
     d88:	0248                	addi	a0,sp,260
     d8a:	0000                	unimp
     d8c:	0248                	addi	a0,sp,260
     d8e:	0000                	unimp
     d90:	0000010f          	0x10f
     d94:	0000010f          	0x10f
     d98:	0355                	addi	t1,t1,21
     d9a:	0000                	unimp
     d9c:	0355                	addi	t1,t1,21
     d9e:	0000                	unimp
     da0:	0314                	addi	a3,sp,384
     da2:	0000                	unimp
     da4:	00000193          	li	gp,0
     da8:	00000213          	li	tp,0
     dac:	0205                	addi	tp,tp,1
     dae:	0000                	unimp
     db0:	0205                	addi	tp,tp,1
     db2:	0000                	unimp
     db4:	0205                	addi	tp,tp,1
     db6:	0000                	unimp
     db8:	01cd                	addi	gp,gp,19
     dba:	0000                	unimp
     dbc:	0000022f          	0x22f
     dc0:	01cd                	addi	gp,gp,19
     dc2:	0000                	unimp
     dc4:	00000307          	0x307
     dc8:	0166                	slli	sp,sp,0x19
     dca:	0000                	unimp
     dcc:	0166                	slli	sp,sp,0x19
     dce:	0000                	unimp
     dd0:	014c                	addi	a1,sp,132
     dd2:	0000                	unimp
     dd4:	014c                	addi	a1,sp,132
     dd6:	0000                	unimp
     dd8:	02ac                	addi	a1,sp,328
     dda:	0000                	unimp
     ddc:	02ac                	addi	a1,sp,328
     dde:	0000                	unimp
     de0:	02ac                	addi	a1,sp,328
     de2:	0000                	unimp
     de4:	0256                	slli	tp,tp,0x15
     de6:	0000                	unimp
     de8:	01be                	slli	gp,gp,0xf
     dea:	0000                	unimp
     dec:	0000008f          	0x8f
     df0:	00000137          	lui	sp,0x0
     df4:	007d                	c.nop	31
     df6:	0000                	unimp
     df8:	00000137          	lui	sp,0x0
     dfc:	000002e7          	jalr	t0,zero
     e00:	000002e7          	jalr	t0,zero
     e04:	03a5                	addi	t2,t2,9
     e06:	0000                	unimp
     e08:	022d                	addi	tp,tp,11
     e0a:	0000                	unimp
     e0c:	031f 0000 022d      	0x22d0000031f
     e12:	0000                	unimp
     e14:	022d                	addi	tp,tp,11
     e16:	0000                	unimp
     e18:	022d                	addi	tp,tp,11
     e1a:	0000                	unimp
     e1c:	0229                	addi	tp,tp,10
     e1e:	0000                	unimp
     e20:	031c                	addi	a5,sp,384
     e22:	0000                	unimp
     e24:	0288                	addi	a0,sp,320
     e26:	0000                	unimp
     e28:	0288                	addi	a0,sp,320
     e2a:	0000                	unimp
     e2c:	0288                	addi	a0,sp,320
     e2e:	0000                	unimp
     e30:	0000037b          	0x37b
     e34:	0000037b          	0x37b
     e38:	029a                	slli	t0,t0,0x6
     e3a:	0000                	unimp
     e3c:	011f 0000 0202      	0x2020000011f
     e42:	0000                	unimp
     e44:	0031                	c.nop	12
     e46:	0000                	unimp
     e48:	0202                	slli	tp,tp,0x0
     e4a:	0000                	unimp
     e4c:	0056                	c.slli	zero,0x15
     e4e:	0000                	unimp
     e50:	022d                	addi	tp,tp,11
     e52:	0000                	unimp
     e54:	005f 0000 0355      	0x3550000005f
     e5a:	0000                	unimp
     e5c:	01b9                	addi	gp,gp,14
     e5e:	0000                	unimp
     e60:	01b9                	addi	gp,gp,14
     e62:	0000                	unimp
     e64:	01b9                	addi	gp,gp,14
     e66:	0000                	unimp
     e68:	01b8                	addi	a4,sp,200
     e6a:	0000                	unimp
     e6c:	0000024b          	fnmsub.s	ft4,ft0,ft0,ft0,rne
     e70:	0266                	slli	tp,tp,0x19
     e72:	0000                	unimp
     e74:	0266                	slli	tp,tp,0x19
     e76:	0000                	unimp
     e78:	018c                	addi	a1,sp,192
     e7a:	0000                	unimp
     e7c:	017e                	slli	sp,sp,0x1f
     e7e:	0000                	unimp
     e80:	0118                	addi	a4,sp,128
     e82:	0000                	unimp
     e84:	0118                	addi	a4,sp,128
     e86:	0000                	unimp
     e88:	0011                	c.nop	4
     e8a:	0000                	unimp
     e8c:	0328                	addi	a0,sp,392
     e8e:	0000                	unimp
     e90:	00aa                	slli	ra,ra,0xa
     e92:	0000                	unimp
     e94:	00000333          	add	t1,zero,zero
     e98:	00000123          	sb	zero,2(zero) # 2 <_start+0x2>
     e9c:	0158                	addi	a4,sp,132
     e9e:	0000                	unimp
     ea0:	0158                	addi	a4,sp,132
     ea2:	0000                	unimp
     ea4:	017c                	addi	a5,sp,140
     ea6:	0000                	unimp
     ea8:	01c2                	slli	gp,gp,0x10
     eaa:	0000                	unimp
     eac:	0200                	addi	s0,sp,256
     eae:	0000                	unimp
     eb0:	0200                	addi	s0,sp,256
     eb2:	0000                	unimp
     eb4:	0200                	addi	s0,sp,256
     eb6:	0000                	unimp
     eb8:	0395                	addi	t2,t2,5
     eba:	0000                	unimp
     ebc:	0395                	addi	t2,t2,5
     ebe:	0000                	unimp
     ec0:	0000021b          	0x21b
     ec4:	0000021b          	0x21b
     ec8:	0328                	addi	a0,sp,392
     eca:	0000                	unimp
     ecc:	0372                	slli	t1,t1,0x1c
     ece:	0000                	unimp
     ed0:	00000377          	0x377
     ed4:	0372                	slli	t1,t1,0x1c
     ed6:	0000                	unimp
     ed8:	0219                	addi	tp,tp,6
     eda:	0000                	unimp
     edc:	0219                	addi	tp,tp,6
     ede:	0000                	unimp
     ee0:	0264                	addi	s1,sp,268
     ee2:	0000                	unimp
     ee4:	02bd                	addi	t0,t0,15
     ee6:	0000                	unimp
     ee8:	02bd                	addi	t0,t0,15
     eea:	0000                	unimp
     eec:	02bd                	addi	t0,t0,15
     eee:	0000                	unimp
     ef0:	01df 0000 01df      	0x1df000001df
     ef6:	0000                	unimp
     ef8:	01df 0000 0237      	0x237000001df
     efe:	0000                	unimp
     f00:	00000097          	auipc	ra,0x0
     f04:	0016                	c.slli	zero,0x5
     f06:	0000                	unimp
     f08:	0016                	c.slli	zero,0x5
     f0a:	0000                	unimp
     f0c:	0238                	addi	a4,sp,264
     f0e:	0000                	unimp
     f10:	0238                	addi	a4,sp,264
     f12:	0000                	unimp
     f14:	0238                	addi	a4,sp,264
     f16:	0000                	unimp
     f18:	0299                	addi	t0,t0,6
     f1a:	0000                	unimp
     f1c:	0299                	addi	t0,t0,6
     f1e:	0000                	unimp
     f20:	000001a7          	0x1a7
     f24:	000001a7          	0x1a7
     f28:	01b2                	slli	gp,gp,0xc
     f2a:	0000                	unimp
     f2c:	01b2                	slli	gp,gp,0xc
     f2e:	0000                	unimp
     f30:	0118                	addi	a4,sp,128
     f32:	0000                	unimp
     f34:	009e                	slli	ra,ra,0x7
     f36:	0000                	unimp
     f38:	0118                	addi	a4,sp,128
     f3a:	0000                	unimp
     f3c:	0054                	addi	a3,sp,4
     f3e:	0000                	unimp
     f40:	0000018b          	0x18b
     f44:	000000f7          	0xf7
     f48:	02b0                	addi	a2,sp,328
     f4a:	0000                	unimp
     f4c:	000000f7          	0xf7
     f50:	01dc                	addi	a5,sp,196
     f52:	0000                	unimp
     f54:	000001b3          	add	gp,zero,zero
     f58:	01dc                	addi	a5,sp,196
     f5a:	0000                	unimp
     f5c:	0318                	addi	a4,sp,384
     f5e:	0000                	unimp
     f60:	0318                	addi	a4,sp,384
     f62:	0000                	unimp
     f64:	0318                	addi	a4,sp,384
     f66:	0000                	unimp
     f68:	02d9                	addi	t0,t0,22
     f6a:	0000                	unimp
     f6c:	01e6                	slli	gp,gp,0x19
     f6e:	0000                	unimp
     f70:	0109                	addi	sp,sp,2
     f72:	0000                	unimp
     f74:	019e                	slli	gp,gp,0x7
     f76:	0000                	unimp
     f78:	00ec                	addi	a1,sp,76
     f7a:	0000                	unimp
     f7c:	0171                	addi	sp,sp,28
     f7e:	0000                	unimp
     f80:	00ec                	addi	a1,sp,76
     f82:	0000                	unimp
     f84:	0171                	addi	sp,sp,28
     f86:	0000                	unimp
     f88:	00d6                	slli	ra,ra,0x15
     f8a:	0000                	unimp
     f8c:	0206                	slli	tp,tp,0x1
     f8e:	0000                	unimp
     f90:	00b4                	addi	a3,sp,72
     f92:	0000                	unimp
     f94:	0206                	slli	tp,tp,0x1
     f96:	0000                	unimp
     f98:	000001f7          	0x1f7
     f9c:	02aa                	slli	t0,t0,0xa
     f9e:	0000                	unimp
     fa0:	0254                	addi	a3,sp,260
     fa2:	0000                	unimp
     fa4:	0254                	addi	a3,sp,260
     fa6:	0000                	unimp
     fa8:	011c                	addi	a5,sp,128
     faa:	0000                	unimp
     fac:	0108                	addi	a0,sp,128
     fae:	0000                	unimp
     fb0:	0108                	addi	a0,sp,128
     fb2:	0000                	unimp
     fb4:	000001f3          	0x1f3
     fb8:	000001f3          	0x1f3
     fbc:	015a                	slli	sp,sp,0x16
     fbe:	0000                	unimp
     fc0:	015a                	slli	sp,sp,0x16
     fc2:	0000                	unimp
     fc4:	00000257          	0x257
     fc8:	00000257          	0x257
     fcc:	000000d7          	0xd7
     fd0:	000000d7          	0xd7
     fd4:	000002db          	0x2db
     fd8:	000002db          	0x2db
     fdc:	02b0                	addi	a2,sp,328
     fde:	0000                	unimp
     fe0:	0292                	slli	t0,t0,0x4
     fe2:	0000                	unimp
     fe4:	0000026b          	0x26b
     fe8:	000000fb          	0xfb
     fec:	000000fb          	0xfb
     ff0:	00000083          	lb	ra,0(zero) # 0 <_start>
     ff4:	0000022b          	0x22b
     ff8:	0000022b          	0x22b
     ffc:	0000022b          	0x22b
    1000:	0000029b          	0x29b
    1004:	0210                	addi	a2,sp,256
    1006:	0000                	unimp
    1008:	0210                	addi	a2,sp,256
    100a:	0000                	unimp
    100c:	0210                	addi	a2,sp,256
    100e:	0000                	unimp
    1010:	000001e7          	jalr	gp,zero
    1014:	000001e7          	jalr	gp,zero
    1018:	000001e7          	jalr	gp,zero
    101c:	02f1                	addi	t0,t0,28
    101e:	0000                	unimp
    1020:	02f1                	addi	t0,t0,28
    1022:	0000                	unimp
    1024:	011f 0000 011f      	0x11f0000011f
    102a:	0000                	unimp
    102c:	0272                	slli	tp,tp,0x1c
    102e:	0000                	unimp
    1030:	0272                	slli	tp,tp,0x1c
    1032:	0000                	unimp
    1034:	0130                	addi	a2,sp,136
    1036:	0000                	unimp
    1038:	000e                	c.slli	zero,0x3
    103a:	0000                	unimp
    103c:	0130                	addi	a2,sp,136
    103e:	0000                	unimp
    1040:	00000193          	li	gp,0
    1044:	02dd                	addi	t0,t0,23
    1046:	0000                	unimp
    1048:	00000193          	li	gp,0
    104c:	02dd                	addi	t0,t0,23
    104e:	0000                	unimp
    1050:	000002bf 000002bf 	0x2bf000002bf
    1058:	000002bf 000002d2 	0x2d2000002bf
    1060:	0332                	slli	t1,t1,0xc
    1062:	0000                	unimp
    1064:	02d2                	slli	t0,t0,0x14
    1066:	0000                	unimp
    1068:	0196                	slli	gp,gp,0x5
    106a:	0000                	unimp
    106c:	0196                	slli	gp,gp,0x5
    106e:	0000                	unimp
    1070:	036a                	slli	t1,t1,0x1a
    1072:	0000                	unimp
    1074:	036a                	slli	t1,t1,0x1a
    1076:	0000                	unimp
    1078:	0358                	addi	a4,sp,388
    107a:	0000                	unimp
    107c:	02ec                	addi	a1,sp,332
    107e:	0000                	unimp
    1080:	02ec                	addi	a1,sp,332
    1082:	0000                	unimp
    1084:	0000005b          	0x5b
    1088:	0056                	c.slli	zero,0x15
    108a:	0000                	unimp
    108c:	0000005b          	0x5b
    1090:	017a                	slli	sp,sp,0x1e
    1092:	0000                	unimp
    1094:	017a                	slli	sp,sp,0x1e
    1096:	0000                	unimp
    1098:	0294                	addi	a3,sp,320
    109a:	0000                	unimp
    109c:	0069                	c.nop	26
    109e:	0000                	unimp
    10a0:	0099                	addi	ra,ra,6
    10a2:	0000                	unimp
    10a4:	0099                	addi	ra,ra,6
    10a6:	0000                	unimp
    10a8:	0099                	addi	ra,ra,6
    10aa:	0000                	unimp
    10ac:	017d                	addi	sp,sp,31
    10ae:	0000                	unimp
    10b0:	0079                	c.nop	30
    10b2:	0000                	unimp
    10b4:	0000028b          	0x28b
    10b8:	019c                	addi	a5,sp,192
    10ba:	0000                	unimp
    10bc:	0339                	addi	t1,t1,14
    10be:	0000                	unimp
    10c0:	019c                	addi	a5,sp,192
    10c2:	0000                	unimp
    10c4:	0164                	addi	s1,sp,140
    10c6:	0000                	unimp
    10c8:	00ec                	addi	a1,sp,76
    10ca:	0000                	unimp
    10cc:	0094                	addi	a3,sp,64
    10ce:	0000                	unimp
    10d0:	0094                	addi	a3,sp,64
    10d2:	0000                	unimp
    10d4:	0094                	addi	a3,sp,64
    10d6:	0000                	unimp
    10d8:	000001a7          	0x1a7
    10dc:	008c                	addi	a1,sp,64
    10de:	0000                	unimp
    10e0:	00d8                	addi	a4,sp,68
    10e2:	0000                	unimp
    10e4:	00d8                	addi	a4,sp,68
    10e6:	0000                	unimp
    10e8:	026d                	addi	tp,tp,27
    10ea:	0000                	unimp
    10ec:	026d                	addi	tp,tp,27
    10ee:	0000                	unimp
    10f0:	0169                	addi	sp,sp,26
    10f2:	0000                	unimp
    10f4:	0000                	unimp
    10f6:	0000                	unimp
    10f8:	0000                	unimp
    10fa:	0000                	unimp
    10fc:	0000                	unimp
    10fe:	0000                	unimp
    1100:	0000                	unimp
    1102:	0000                	unimp
    1104:	0000                	unimp
    1106:	0000                	unimp
    1108:	0000                	unimp
    110a:	0000                	unimp
    110c:	0000                	unimp
    110e:	0000                	unimp
    1110:	0000                	unimp
    1112:	0000                	unimp
    1114:	0000                	unimp
    1116:	0000                	unimp
    1118:	0000                	unimp
    111a:	0000                	unimp
    111c:	0000                	unimp
    111e:	0000                	unimp
    1120:	0000                	unimp
    1122:	0000                	unimp
    1124:	0000                	unimp
    1126:	0000                	unimp
    1128:	0000                	unimp
    112a:	0000                	unimp
    112c:	0000                	unimp
    112e:	0000                	unimp
    1130:	0000                	unimp
    1132:	0000                	unimp
    1134:	0000                	unimp
    1136:	0000                	unimp
    1138:	0000                	unimp
    113a:	0000                	unimp
    113c:	0000                	unimp
    113e:	0000                	unimp
    1140:	0000                	unimp
    1142:	0000                	unimp
    1144:	0000                	unimp
    1146:	0000                	unimp
    1148:	0000                	unimp
    114a:	0000                	unimp
    114c:	0000                	unimp
    114e:	0000                	unimp
    1150:	0000                	unimp
    1152:	0000                	unimp
    1154:	0000                	unimp
    1156:	0000                	unimp
    1158:	0000                	unimp
    115a:	0000                	unimp
    115c:	0000                	unimp
    115e:	0000                	unimp
    1160:	0000                	unimp
    1162:	0000                	unimp
    1164:	0000                	unimp
    1166:	0000                	unimp
    1168:	0000                	unimp
    116a:	0000                	unimp
    116c:	0000                	unimp
    116e:	0000                	unimp
    1170:	0000                	unimp
    1172:	0000                	unimp
    1174:	0000                	unimp
    1176:	0000                	unimp
    1178:	0000                	unimp
    117a:	0000                	unimp
    117c:	0000                	unimp
    117e:	0000                	unimp
    1180:	0000                	unimp
    1182:	0000                	unimp
    1184:	0000                	unimp
    1186:	0000                	unimp
    1188:	0000                	unimp
    118a:	0000                	unimp
    118c:	0000                	unimp
    118e:	0000                	unimp
    1190:	0000                	unimp
    1192:	0000                	unimp
    1194:	0000                	unimp
    1196:	0000                	unimp
    1198:	0000                	unimp
    119a:	0000                	unimp
    119c:	0000                	unimp
    119e:	0000                	unimp
    11a0:	0000                	unimp
    11a2:	0000                	unimp
    11a4:	0000                	unimp
    11a6:	0000                	unimp
    11a8:	0000                	unimp
    11aa:	0000                	unimp
    11ac:	0000                	unimp
    11ae:	0000                	unimp
    11b0:	0000                	unimp
    11b2:	0000                	unimp
    11b4:	0000                	unimp
    11b6:	0000                	unimp
    11b8:	0000                	unimp
    11ba:	0000                	unimp
    11bc:	0000                	unimp
    11be:	0000                	unimp
    11c0:	0000                	unimp
    11c2:	0000                	unimp
    11c4:	0000                	unimp
    11c6:	0000                	unimp
    11c8:	0000                	unimp
    11ca:	0000                	unimp
    11cc:	0000                	unimp
    11ce:	0000                	unimp
    11d0:	0000                	unimp
    11d2:	0000                	unimp
    11d4:	0000                	unimp
    11d6:	0000                	unimp
    11d8:	0000                	unimp
    11da:	0000                	unimp
    11dc:	0000                	unimp
    11de:	0000                	unimp
    11e0:	0000                	unimp
    11e2:	0000                	unimp
    11e4:	0000                	unimp
    11e6:	0000                	unimp
    11e8:	0000                	unimp
    11ea:	0000                	unimp
    11ec:	0000                	unimp
    11ee:	0000                	unimp
    11f0:	0000                	unimp
    11f2:	0000                	unimp
    11f4:	0000                	unimp
    11f6:	0000                	unimp
    11f8:	ffff                	0xffff
    11fa:	ffff                	0xffff
    11fc:	ffff                	0xffff
    11fe:	ffff                	0xffff
    1200:	ffff                	0xffff
    1202:	ffff                	0xffff
    1204:	ffff                	0xffff
    1206:	ffff                	0xffff
    1208:	ffff                	0xffff
    120a:	ffff                	0xffff
    120c:	ffff                	0xffff
    120e:	ffff                	0xffff
    1210:	ffff                	0xffff
    1212:	ffff                	0xffff
    1214:	ffff                	0xffff
    1216:	ffff                	0xffff
    1218:	ffff                	0xffff
    121a:	ffff                	0xffff
    121c:	ffff                	0xffff
    121e:	ffff                	0xffff
    1220:	ffff                	0xffff
    1222:	ffff                	0xffff
    1224:	ffff                	0xffff
    1226:	ffff                	0xffff
    1228:	ffff                	0xffff
    122a:	ffff                	0xffff
    122c:	ffff                	0xffff
    122e:	ffff                	0xffff
    1230:	ffff                	0xffff
    1232:	ffff                	0xffff
    1234:	ffff                	0xffff
    1236:	ffff                	0xffff
    1238:	ffff                	0xffff
    123a:	ffff                	0xffff
    123c:	ffff                	0xffff
    123e:	ffff                	0xffff
    1240:	ffff                	0xffff
    1242:	ffff                	0xffff
    1244:	ffff                	0xffff
    1246:	ffff                	0xffff
    1248:	ffff                	0xffff
    124a:	ffff                	0xffff
    124c:	ffff                	0xffff
    124e:	ffff                	0xffff
    1250:	ffff                	0xffff
    1252:	ffff                	0xffff
    1254:	ffff                	0xffff
    1256:	ffff                	0xffff
    1258:	ffff                	0xffff
    125a:	ffff                	0xffff
    125c:	ffff                	0xffff
    125e:	ffff                	0xffff
    1260:	ffff                	0xffff
    1262:	ffff                	0xffff
    1264:	ffff                	0xffff
    1266:	ffff                	0xffff
    1268:	ffff                	0xffff
    126a:	ffff                	0xffff
    126c:	ffff                	0xffff
    126e:	ffff                	0xffff
    1270:	ffff                	0xffff
    1272:	ffff                	0xffff
    1274:	ffff                	0xffff
    1276:	ffff                	0xffff
    1278:	ffff                	0xffff
    127a:	ffff                	0xffff
    127c:	ffff                	0xffff
    127e:	ffff                	0xffff
    1280:	ffff                	0xffff
    1282:	ffff                	0xffff
    1284:	ffff                	0xffff
    1286:	ffff                	0xffff
    1288:	ffff                	0xffff
    128a:	ffff                	0xffff
    128c:	ffff                	0xffff
    128e:	ffff                	0xffff
    1290:	ffff                	0xffff
    1292:	ffff                	0xffff
    1294:	ffff                	0xffff
    1296:	ffff                	0xffff
    1298:	ffff                	0xffff
    129a:	ffff                	0xffff
    129c:	ffff                	0xffff
    129e:	ffff                	0xffff
    12a0:	ffff                	0xffff
    12a2:	ffff                	0xffff
    12a4:	ffff                	0xffff
    12a6:	ffff                	0xffff
    12a8:	ffff                	0xffff
    12aa:	ffff                	0xffff
    12ac:	ffff                	0xffff
    12ae:	ffff                	0xffff
    12b0:	ffff                	0xffff
    12b2:	ffff                	0xffff
    12b4:	ffff                	0xffff
    12b6:	ffff                	0xffff
    12b8:	ffff                	0xffff
    12ba:	ffff                	0xffff
    12bc:	ffff                	0xffff
    12be:	ffff                	0xffff
    12c0:	ffff                	0xffff
    12c2:	ffff                	0xffff
    12c4:	ffff                	0xffff
    12c6:	ffff                	0xffff
    12c8:	ffff                	0xffff
    12ca:	ffff                	0xffff
    12cc:	ffff                	0xffff
    12ce:	ffff                	0xffff
    12d0:	ffff                	0xffff
    12d2:	ffff                	0xffff
    12d4:	ffff                	0xffff
    12d6:	ffff                	0xffff
    12d8:	ffff                	0xffff
    12da:	ffff                	0xffff
    12dc:	ffff                	0xffff
    12de:	ffff                	0xffff
    12e0:	ffff                	0xffff
    12e2:	ffff                	0xffff
    12e4:	ffff                	0xffff
    12e6:	ffff                	0xffff
    12e8:	ffff                	0xffff
    12ea:	ffff                	0xffff
    12ec:	ffff                	0xffff
    12ee:	ffff                	0xffff
    12f0:	ffff                	0xffff
    12f2:	ffff                	0xffff
    12f4:	ffff                	0xffff
    12f6:	ffff                	0xffff
    12f8:	ffff                	0xffff
    12fa:	ffff                	0xffff
    12fc:	ffff                	0xffff
    12fe:	ffff                	0xffff
    1300:	ffff                	0xffff
    1302:	ffff                	0xffff
    1304:	ffff                	0xffff
    1306:	ffff                	0xffff
    1308:	ffff                	0xffff
    130a:	ffff                	0xffff
    130c:	ffff                	0xffff
    130e:	ffff                	0xffff
    1310:	ffff                	0xffff
    1312:	ffff                	0xffff
    1314:	ffff                	0xffff
    1316:	ffff                	0xffff
    1318:	ffff                	0xffff
    131a:	ffff                	0xffff
    131c:	ffff                	0xffff
    131e:	ffff                	0xffff
    1320:	ffff                	0xffff
    1322:	ffff                	0xffff
    1324:	ffff                	0xffff
    1326:	ffff                	0xffff
    1328:	ffff                	0xffff
    132a:	ffff                	0xffff
    132c:	ffff                	0xffff
    132e:	ffff                	0xffff
    1330:	ffff                	0xffff
    1332:	ffff                	0xffff
    1334:	ffff                	0xffff
    1336:	ffff                	0xffff
    1338:	ffff                	0xffff
    133a:	ffff                	0xffff
    133c:	ffff                	0xffff
    133e:	ffff                	0xffff
    1340:	ffff                	0xffff
    1342:	ffff                	0xffff
    1344:	ffff                	0xffff
    1346:	ffff                	0xffff
    1348:	ffff                	0xffff
    134a:	ffff                	0xffff
    134c:	ffff                	0xffff
    134e:	ffff                	0xffff
    1350:	ffff                	0xffff
    1352:	ffff                	0xffff
    1354:	ffff                	0xffff
    1356:	ffff                	0xffff
    1358:	ffff                	0xffff
    135a:	ffff                	0xffff
    135c:	ffff                	0xffff
    135e:	ffff                	0xffff
    1360:	ffff                	0xffff
    1362:	ffff                	0xffff
    1364:	ffff                	0xffff
    1366:	ffff                	0xffff
    1368:	ffff                	0xffff
    136a:	ffff                	0xffff
    136c:	ffff                	0xffff
    136e:	ffff                	0xffff
    1370:	ffff                	0xffff
    1372:	ffff                	0xffff
    1374:	ffff                	0xffff
    1376:	ffff                	0xffff
    1378:	ffff                	0xffff
    137a:	ffff                	0xffff
    137c:	ffff                	0xffff
    137e:	ffff                	0xffff
    1380:	ffff                	0xffff
    1382:	ffff                	0xffff
    1384:	ffff                	0xffff
    1386:	ffff                	0xffff
    1388:	ffff                	0xffff
    138a:	ffff                	0xffff
    138c:	ffff                	0xffff
    138e:	ffff                	0xffff
    1390:	ffff                	0xffff
    1392:	ffff                	0xffff
    1394:	ffff                	0xffff
    1396:	ffff                	0xffff
    1398:	ffff                	0xffff
    139a:	ffff                	0xffff
    139c:	ffff                	0xffff
    139e:	ffff                	0xffff
    13a0:	ffff                	0xffff
    13a2:	ffff                	0xffff
    13a4:	ffff                	0xffff
    13a6:	ffff                	0xffff
    13a8:	ffff                	0xffff
    13aa:	ffff                	0xffff
    13ac:	ffff                	0xffff
    13ae:	ffff                	0xffff
    13b0:	ffff                	0xffff
    13b2:	ffff                	0xffff
    13b4:	ffff                	0xffff
    13b6:	ffff                	0xffff
    13b8:	ffff                	0xffff
    13ba:	ffff                	0xffff
    13bc:	ffff                	0xffff
    13be:	ffff                	0xffff
    13c0:	ffff                	0xffff
    13c2:	ffff                	0xffff
    13c4:	ffff                	0xffff
    13c6:	ffff                	0xffff
    13c8:	ffff                	0xffff
    13ca:	ffff                	0xffff
    13cc:	ffff                	0xffff
    13ce:	ffff                	0xffff
    13d0:	ffff                	0xffff
    13d2:	ffff                	0xffff
    13d4:	ffff                	0xffff
    13d6:	ffff                	0xffff
    13d8:	ffff                	0xffff
    13da:	ffff                	0xffff
    13dc:	ffff                	0xffff
    13de:	ffff                	0xffff
    13e0:	ffff                	0xffff
    13e2:	ffff                	0xffff
    13e4:	ffff                	0xffff
    13e6:	ffff                	0xffff
    13e8:	ffff                	0xffff
    13ea:	ffff                	0xffff
    13ec:	ffff                	0xffff
    13ee:	ffff                	0xffff
    13f0:	ffff                	0xffff
    13f2:	ffff                	0xffff
    13f4:	ffff                	0xffff
    13f6:	ffff                	0xffff
    13f8:	ffff                	0xffff
    13fa:	ffff                	0xffff
    13fc:	ffff                	0xffff
    13fe:	ffff                	0xffff
    1400:	ffff                	0xffff
    1402:	ffff                	0xffff
    1404:	ffff                	0xffff
    1406:	ffff                	0xffff
    1408:	ffff                	0xffff
    140a:	ffff                	0xffff
    140c:	ffff                	0xffff
    140e:	ffff                	0xffff
    1410:	ffff                	0xffff
    1412:	ffff                	0xffff
    1414:	ffff                	0xffff
    1416:	ffff                	0xffff
    1418:	ffff                	0xffff
    141a:	ffff                	0xffff
    141c:	ffff                	0xffff
    141e:	ffff                	0xffff
    1420:	ffff                	0xffff
    1422:	ffff                	0xffff
    1424:	ffff                	0xffff
    1426:	ffff                	0xffff
    1428:	ffff                	0xffff
    142a:	ffff                	0xffff
    142c:	ffff                	0xffff
    142e:	ffff                	0xffff
    1430:	ffff                	0xffff
    1432:	ffff                	0xffff
    1434:	ffff                	0xffff
    1436:	ffff                	0xffff
    1438:	ffff                	0xffff
    143a:	ffff                	0xffff
    143c:	ffff                	0xffff
    143e:	ffff                	0xffff
    1440:	ffff                	0xffff
    1442:	ffff                	0xffff
    1444:	ffff                	0xffff
    1446:	ffff                	0xffff
    1448:	ffff                	0xffff
    144a:	ffff                	0xffff
    144c:	ffff                	0xffff
    144e:	ffff                	0xffff
    1450:	ffff                	0xffff
    1452:	ffff                	0xffff
    1454:	ffff                	0xffff
    1456:	ffff                	0xffff
    1458:	ffff                	0xffff
    145a:	ffff                	0xffff
    145c:	ffff                	0xffff
    145e:	ffff                	0xffff
    1460:	ffff                	0xffff
    1462:	ffff                	0xffff
    1464:	ffff                	0xffff
    1466:	ffff                	0xffff
    1468:	ffff                	0xffff
    146a:	ffff                	0xffff
    146c:	ffff                	0xffff
    146e:	ffff                	0xffff
    1470:	ffff                	0xffff
    1472:	ffff                	0xffff
    1474:	ffff                	0xffff
    1476:	ffff                	0xffff
    1478:	ffff                	0xffff
    147a:	ffff                	0xffff
    147c:	ffff                	0xffff
    147e:	ffff                	0xffff
    1480:	ffff                	0xffff
    1482:	ffff                	0xffff
    1484:	ffff                	0xffff
    1486:	ffff                	0xffff
    1488:	ffff                	0xffff
    148a:	ffff                	0xffff
    148c:	ffff                	0xffff
    148e:	ffff                	0xffff
    1490:	ffff                	0xffff
    1492:	ffff                	0xffff
    1494:	ffff                	0xffff
    1496:	ffff                	0xffff
    1498:	ffff                	0xffff
    149a:	ffff                	0xffff
    149c:	ffff                	0xffff
    149e:	ffff                	0xffff
    14a0:	ffff                	0xffff
    14a2:	ffff                	0xffff
    14a4:	ffff                	0xffff
    14a6:	ffff                	0xffff
    14a8:	ffff                	0xffff
    14aa:	ffff                	0xffff
    14ac:	ffff                	0xffff
    14ae:	ffff                	0xffff
    14b0:	ffff                	0xffff
    14b2:	ffff                	0xffff
    14b4:	ffff                	0xffff
    14b6:	ffff                	0xffff
    14b8:	ffff                	0xffff
    14ba:	ffff                	0xffff
    14bc:	ffff                	0xffff
    14be:	ffff                	0xffff
    14c0:	ffff                	0xffff
    14c2:	ffff                	0xffff
    14c4:	ffff                	0xffff
    14c6:	ffff                	0xffff
    14c8:	ffff                	0xffff
    14ca:	ffff                	0xffff
    14cc:	ffff                	0xffff
    14ce:	ffff                	0xffff
    14d0:	ffff                	0xffff
    14d2:	ffff                	0xffff
    14d4:	ffff                	0xffff
    14d6:	ffff                	0xffff
    14d8:	ffff                	0xffff
    14da:	ffff                	0xffff
    14dc:	ffff                	0xffff
    14de:	ffff                	0xffff
    14e0:	ffff                	0xffff
    14e2:	ffff                	0xffff
    14e4:	ffff                	0xffff
    14e6:	ffff                	0xffff
    14e8:	ffff                	0xffff
    14ea:	ffff                	0xffff
    14ec:	ffff                	0xffff
    14ee:	ffff                	0xffff
    14f0:	ffff                	0xffff
    14f2:	ffff                	0xffff
    14f4:	ffff                	0xffff
    14f6:	ffff                	0xffff
    14f8:	ffff                	0xffff
    14fa:	ffff                	0xffff
    14fc:	ffff                	0xffff
    14fe:	ffff                	0xffff
    1500:	ffff                	0xffff
    1502:	ffff                	0xffff
    1504:	ffff                	0xffff
    1506:	ffff                	0xffff
    1508:	ffff                	0xffff
    150a:	ffff                	0xffff
    150c:	ffff                	0xffff
    150e:	ffff                	0xffff
    1510:	ffff                	0xffff
    1512:	ffff                	0xffff
    1514:	ffff                	0xffff
    1516:	ffff                	0xffff
    1518:	ffff                	0xffff
    151a:	ffff                	0xffff
    151c:	ffff                	0xffff
    151e:	ffff                	0xffff
    1520:	ffff                	0xffff
    1522:	ffff                	0xffff
    1524:	ffff                	0xffff
    1526:	ffff                	0xffff
    1528:	ffff                	0xffff
    152a:	ffff                	0xffff
    152c:	ffff                	0xffff
    152e:	ffff                	0xffff
    1530:	ffff                	0xffff
    1532:	ffff                	0xffff
    1534:	ffff                	0xffff
    1536:	ffff                	0xffff
    1538:	ffff                	0xffff
    153a:	ffff                	0xffff
    153c:	ffff                	0xffff
    153e:	ffff                	0xffff
    1540:	ffff                	0xffff
    1542:	ffff                	0xffff
    1544:	ffff                	0xffff
    1546:	ffff                	0xffff
    1548:	ffff                	0xffff
    154a:	ffff                	0xffff
    154c:	ffff                	0xffff
    154e:	ffff                	0xffff
    1550:	ffff                	0xffff
    1552:	ffff                	0xffff
    1554:	ffff                	0xffff
    1556:	ffff                	0xffff
    1558:	ffff                	0xffff
    155a:	ffff                	0xffff
    155c:	ffff                	0xffff
    155e:	ffff                	0xffff
    1560:	ffff                	0xffff
    1562:	ffff                	0xffff
    1564:	ffff                	0xffff
    1566:	ffff                	0xffff
    1568:	ffff                	0xffff
    156a:	ffff                	0xffff
    156c:	ffff                	0xffff
    156e:	ffff                	0xffff
    1570:	ffff                	0xffff
    1572:	ffff                	0xffff
    1574:	ffff                	0xffff
    1576:	ffff                	0xffff
    1578:	ffff                	0xffff
    157a:	ffff                	0xffff
    157c:	ffff                	0xffff
    157e:	ffff                	0xffff
    1580:	ffff                	0xffff
    1582:	ffff                	0xffff
    1584:	ffff                	0xffff
    1586:	ffff                	0xffff
    1588:	ffff                	0xffff
    158a:	ffff                	0xffff
    158c:	ffff                	0xffff
    158e:	ffff                	0xffff
    1590:	ffff                	0xffff
    1592:	ffff                	0xffff
    1594:	ffff                	0xffff
    1596:	ffff                	0xffff
    1598:	ffff                	0xffff
    159a:	ffff                	0xffff
    159c:	ffff                	0xffff
    159e:	ffff                	0xffff
    15a0:	ffff                	0xffff
    15a2:	ffff                	0xffff
    15a4:	ffff                	0xffff
    15a6:	ffff                	0xffff
    15a8:	ffff                	0xffff
    15aa:	ffff                	0xffff
    15ac:	ffff                	0xffff
    15ae:	ffff                	0xffff
    15b0:	ffff                	0xffff
    15b2:	ffff                	0xffff
    15b4:	ffff                	0xffff
    15b6:	ffff                	0xffff
    15b8:	ffff                	0xffff
    15ba:	ffff                	0xffff
    15bc:	ffff                	0xffff
    15be:	ffff                	0xffff
    15c0:	ffff                	0xffff
    15c2:	ffff                	0xffff
    15c4:	ffff                	0xffff
    15c6:	ffff                	0xffff
    15c8:	ffff                	0xffff
    15ca:	ffff                	0xffff
    15cc:	ffff                	0xffff
    15ce:	ffff                	0xffff
    15d0:	ffff                	0xffff
    15d2:	ffff                	0xffff
    15d4:	ffff                	0xffff
    15d6:	ffff                	0xffff
    15d8:	ffff                	0xffff
    15da:	ffff                	0xffff
    15dc:	ffff                	0xffff
    15de:	ffff                	0xffff
    15e0:	ffff                	0xffff
    15e2:	ffff                	0xffff
    15e4:	ffff                	0xffff
    15e6:	ffff                	0xffff
    15e8:	ffff                	0xffff
    15ea:	ffff                	0xffff
    15ec:	ffff                	0xffff
    15ee:	ffff                	0xffff
    15f0:	ffff                	0xffff
    15f2:	ffff                	0xffff
    15f4:	ffff                	0xffff
    15f6:	ffff                	0xffff
    15f8:	ffff                	0xffff
    15fa:	ffff                	0xffff
    15fc:	ffff                	0xffff
    15fe:	ffff                	0xffff
    1600:	ffff                	0xffff
    1602:	ffff                	0xffff
    1604:	ffff                	0xffff
    1606:	ffff                	0xffff
    1608:	ffff                	0xffff
    160a:	ffff                	0xffff
    160c:	ffff                	0xffff
    160e:	ffff                	0xffff
    1610:	ffff                	0xffff
    1612:	ffff                	0xffff
    1614:	ffff                	0xffff
    1616:	ffff                	0xffff
    1618:	ffff                	0xffff
    161a:	ffff                	0xffff
    161c:	ffff                	0xffff
    161e:	ffff                	0xffff
    1620:	ffff                	0xffff
    1622:	ffff                	0xffff
    1624:	ffff                	0xffff
    1626:	ffff                	0xffff
    1628:	ffff                	0xffff
    162a:	ffff                	0xffff
    162c:	ffff                	0xffff
    162e:	ffff                	0xffff
    1630:	ffff                	0xffff
    1632:	ffff                	0xffff
    1634:	ffff                	0xffff
    1636:	ffff                	0xffff
    1638:	ffff                	0xffff
    163a:	ffff                	0xffff
    163c:	ffff                	0xffff
    163e:	ffff                	0xffff
    1640:	ffff                	0xffff
    1642:	ffff                	0xffff
    1644:	ffff                	0xffff
    1646:	ffff                	0xffff
    1648:	ffff                	0xffff
    164a:	ffff                	0xffff
    164c:	ffff                	0xffff
    164e:	ffff                	0xffff
    1650:	ffff                	0xffff
    1652:	ffff                	0xffff
    1654:	ffff                	0xffff
    1656:	ffff                	0xffff
    1658:	ffff                	0xffff
    165a:	ffff                	0xffff
    165c:	ffff                	0xffff
    165e:	ffff                	0xffff
    1660:	ffff                	0xffff
    1662:	ffff                	0xffff
    1664:	ffff                	0xffff
    1666:	ffff                	0xffff
    1668:	ffff                	0xffff
    166a:	ffff                	0xffff
    166c:	ffff                	0xffff
    166e:	ffff                	0xffff
    1670:	ffff                	0xffff
    1672:	ffff                	0xffff
    1674:	ffff                	0xffff
    1676:	ffff                	0xffff
    1678:	ffff                	0xffff
    167a:	ffff                	0xffff
    167c:	ffff                	0xffff
    167e:	ffff                	0xffff
    1680:	ffff                	0xffff
    1682:	ffff                	0xffff
    1684:	ffff                	0xffff
    1686:	ffff                	0xffff
    1688:	ffff                	0xffff
    168a:	ffff                	0xffff
    168c:	ffff                	0xffff
    168e:	ffff                	0xffff
    1690:	ffff                	0xffff
    1692:	ffff                	0xffff
    1694:	ffff                	0xffff
    1696:	ffff                	0xffff
    1698:	ffff                	0xffff
    169a:	ffff                	0xffff
    169c:	ffff                	0xffff
    169e:	ffff                	0xffff
    16a0:	ffff                	0xffff
    16a2:	ffff                	0xffff
    16a4:	ffff                	0xffff
    16a6:	ffff                	0xffff
    16a8:	ffff                	0xffff
    16aa:	ffff                	0xffff
    16ac:	ffff                	0xffff
    16ae:	ffff                	0xffff
    16b0:	ffff                	0xffff
    16b2:	ffff                	0xffff
    16b4:	ffff                	0xffff
    16b6:	ffff                	0xffff
    16b8:	ffff                	0xffff
    16ba:	ffff                	0xffff
    16bc:	ffff                	0xffff
    16be:	ffff                	0xffff
    16c0:	ffff                	0xffff
    16c2:	ffff                	0xffff
    16c4:	ffff                	0xffff
    16c6:	ffff                	0xffff
    16c8:	ffff                	0xffff
    16ca:	ffff                	0xffff
    16cc:	ffff                	0xffff
    16ce:	ffff                	0xffff
    16d0:	ffff                	0xffff
    16d2:	ffff                	0xffff
    16d4:	ffff                	0xffff
    16d6:	ffff                	0xffff
    16d8:	ffff                	0xffff
    16da:	ffff                	0xffff
    16dc:	ffff                	0xffff
    16de:	ffff                	0xffff
    16e0:	ffff                	0xffff
    16e2:	ffff                	0xffff
    16e4:	ffff                	0xffff
    16e6:	ffff                	0xffff
    16e8:	ffff                	0xffff
    16ea:	ffff                	0xffff
    16ec:	ffff                	0xffff
    16ee:	ffff                	0xffff
    16f0:	ffff                	0xffff
    16f2:	ffff                	0xffff
    16f4:	ffff                	0xffff
    16f6:	ffff                	0xffff
    16f8:	ffff                	0xffff
    16fa:	ffff                	0xffff
    16fc:	ffff                	0xffff
    16fe:	ffff                	0xffff
    1700:	ffff                	0xffff
    1702:	ffff                	0xffff
    1704:	ffff                	0xffff
    1706:	ffff                	0xffff
    1708:	ffff                	0xffff
    170a:	ffff                	0xffff
    170c:	ffff                	0xffff
    170e:	ffff                	0xffff
    1710:	ffff                	0xffff
    1712:	ffff                	0xffff
    1714:	ffff                	0xffff
    1716:	ffff                	0xffff
    1718:	ffff                	0xffff
    171a:	ffff                	0xffff
    171c:	ffff                	0xffff
    171e:	ffff                	0xffff
    1720:	ffff                	0xffff
    1722:	ffff                	0xffff
    1724:	ffff                	0xffff
    1726:	ffff                	0xffff
    1728:	ffff                	0xffff
    172a:	ffff                	0xffff
    172c:	ffff                	0xffff
    172e:	ffff                	0xffff
    1730:	ffff                	0xffff
    1732:	ffff                	0xffff
    1734:	ffff                	0xffff
    1736:	ffff                	0xffff
    1738:	ffff                	0xffff
    173a:	ffff                	0xffff
    173c:	ffff                	0xffff
    173e:	ffff                	0xffff
    1740:	ffff                	0xffff
    1742:	ffff                	0xffff
    1744:	ffff                	0xffff
    1746:	ffff                	0xffff
    1748:	ffff                	0xffff
    174a:	ffff                	0xffff
    174c:	ffff                	0xffff
    174e:	ffff                	0xffff
    1750:	ffff                	0xffff
    1752:	ffff                	0xffff
    1754:	ffff                	0xffff
    1756:	ffff                	0xffff
    1758:	ffff                	0xffff
    175a:	ffff                	0xffff
    175c:	ffff                	0xffff
    175e:	ffff                	0xffff
    1760:	ffff                	0xffff
    1762:	ffff                	0xffff
    1764:	ffff                	0xffff
    1766:	ffff                	0xffff
    1768:	ffff                	0xffff
    176a:	ffff                	0xffff
    176c:	ffff                	0xffff
    176e:	ffff                	0xffff
    1770:	ffff                	0xffff
    1772:	ffff                	0xffff
    1774:	ffff                	0xffff
    1776:	ffff                	0xffff
    1778:	ffff                	0xffff
    177a:	ffff                	0xffff
    177c:	ffff                	0xffff
    177e:	ffff                	0xffff
    1780:	ffff                	0xffff
    1782:	ffff                	0xffff
    1784:	ffff                	0xffff
    1786:	ffff                	0xffff
    1788:	ffff                	0xffff
    178a:	ffff                	0xffff
    178c:	ffff                	0xffff
    178e:	ffff                	0xffff
    1790:	ffff                	0xffff
    1792:	ffff                	0xffff
    1794:	ffff                	0xffff
    1796:	ffff                	0xffff
    1798:	ffff                	0xffff
    179a:	ffff                	0xffff
    179c:	ffff                	0xffff
    179e:	ffff                	0xffff
    17a0:	ffff                	0xffff
    17a2:	ffff                	0xffff
    17a4:	ffff                	0xffff
    17a6:	ffff                	0xffff
    17a8:	ffff                	0xffff
    17aa:	ffff                	0xffff
    17ac:	ffff                	0xffff
    17ae:	ffff                	0xffff
    17b0:	ffff                	0xffff
    17b2:	ffff                	0xffff
    17b4:	ffff                	0xffff
    17b6:	ffff                	0xffff
    17b8:	ffff                	0xffff
    17ba:	ffff                	0xffff
    17bc:	ffff                	0xffff
    17be:	ffff                	0xffff
    17c0:	ffff                	0xffff
    17c2:	ffff                	0xffff
    17c4:	ffff                	0xffff
    17c6:	ffff                	0xffff
    17c8:	ffff                	0xffff
    17ca:	ffff                	0xffff
    17cc:	ffff                	0xffff
    17ce:	ffff                	0xffff
    17d0:	ffff                	0xffff
    17d2:	ffff                	0xffff
    17d4:	ffff                	0xffff
    17d6:	ffff                	0xffff
    17d8:	ffff                	0xffff
    17da:	ffff                	0xffff
    17dc:	ffff                	0xffff
    17de:	ffff                	0xffff
    17e0:	ffff                	0xffff
    17e2:	ffff                	0xffff
    17e4:	ffff                	0xffff
    17e6:	ffff                	0xffff
    17e8:	ffff                	0xffff
    17ea:	ffff                	0xffff
    17ec:	ffff                	0xffff
    17ee:	ffff                	0xffff
    17f0:	ffff                	0xffff
    17f2:	ffff                	0xffff
    17f4:	ffff                	0xffff
    17f6:	ffff                	0xffff
    17f8:	ffff                	0xffff
    17fa:	ffff                	0xffff
    17fc:	ffff                	0xffff
    17fe:	ffff                	0xffff
    1800:	ffff                	0xffff
    1802:	ffff                	0xffff
    1804:	ffff                	0xffff
    1806:	ffff                	0xffff
    1808:	ffff                	0xffff
    180a:	ffff                	0xffff
    180c:	ffff                	0xffff
    180e:	ffff                	0xffff
    1810:	ffff                	0xffff
    1812:	ffff                	0xffff
    1814:	ffff                	0xffff
    1816:	ffff                	0xffff
    1818:	ffff                	0xffff
    181a:	ffff                	0xffff
    181c:	ffff                	0xffff
    181e:	ffff                	0xffff
    1820:	ffff                	0xffff
    1822:	ffff                	0xffff
    1824:	ffff                	0xffff
    1826:	ffff                	0xffff
    1828:	ffff                	0xffff
    182a:	ffff                	0xffff
    182c:	ffff                	0xffff
    182e:	ffff                	0xffff
    1830:	ffff                	0xffff
    1832:	ffff                	0xffff
    1834:	ffff                	0xffff
    1836:	ffff                	0xffff
    1838:	ffff                	0xffff
    183a:	ffff                	0xffff
    183c:	ffff                	0xffff
    183e:	ffff                	0xffff
    1840:	ffff                	0xffff
    1842:	ffff                	0xffff
    1844:	ffff                	0xffff
    1846:	ffff                	0xffff
    1848:	ffff                	0xffff
    184a:	ffff                	0xffff
    184c:	ffff                	0xffff
    184e:	ffff                	0xffff
    1850:	ffff                	0xffff
    1852:	ffff                	0xffff
    1854:	ffff                	0xffff
    1856:	ffff                	0xffff
    1858:	ffff                	0xffff
    185a:	ffff                	0xffff
    185c:	ffff                	0xffff
    185e:	ffff                	0xffff
    1860:	ffff                	0xffff
    1862:	ffff                	0xffff
    1864:	ffff                	0xffff
    1866:	ffff                	0xffff
    1868:	ffff                	0xffff
    186a:	ffff                	0xffff
    186c:	ffff                	0xffff
    186e:	ffff                	0xffff
    1870:	ffff                	0xffff
    1872:	ffff                	0xffff
    1874:	ffff                	0xffff
    1876:	ffff                	0xffff
    1878:	ffff                	0xffff
    187a:	ffff                	0xffff
    187c:	ffff                	0xffff
    187e:	ffff                	0xffff
    1880:	ffff                	0xffff
    1882:	ffff                	0xffff
    1884:	ffff                	0xffff
    1886:	ffff                	0xffff
    1888:	ffff                	0xffff
    188a:	ffff                	0xffff
    188c:	ffff                	0xffff
    188e:	ffff                	0xffff
    1890:	ffff                	0xffff
    1892:	ffff                	0xffff
    1894:	ffff                	0xffff
    1896:	ffff                	0xffff
    1898:	ffff                	0xffff
    189a:	ffff                	0xffff
    189c:	ffff                	0xffff
    189e:	ffff                	0xffff
    18a0:	ffff                	0xffff
    18a2:	ffff                	0xffff
    18a4:	ffff                	0xffff
    18a6:	ffff                	0xffff
    18a8:	ffff                	0xffff
    18aa:	ffff                	0xffff
    18ac:	ffff                	0xffff
    18ae:	ffff                	0xffff
    18b0:	ffff                	0xffff
    18b2:	ffff                	0xffff
    18b4:	ffff                	0xffff
    18b6:	ffff                	0xffff
    18b8:	ffff                	0xffff
    18ba:	ffff                	0xffff
    18bc:	ffff                	0xffff
    18be:	ffff                	0xffff
    18c0:	ffff                	0xffff
    18c2:	ffff                	0xffff
    18c4:	ffff                	0xffff
    18c6:	ffff                	0xffff
    18c8:	ffff                	0xffff
    18ca:	ffff                	0xffff
    18cc:	ffff                	0xffff
    18ce:	ffff                	0xffff
    18d0:	ffff                	0xffff
    18d2:	ffff                	0xffff
    18d4:	ffff                	0xffff
    18d6:	ffff                	0xffff
    18d8:	ffff                	0xffff
    18da:	ffff                	0xffff
    18dc:	ffff                	0xffff
    18de:	ffff                	0xffff
    18e0:	ffff                	0xffff
    18e2:	ffff                	0xffff
    18e4:	ffff                	0xffff
    18e6:	ffff                	0xffff
    18e8:	ffff                	0xffff
    18ea:	ffff                	0xffff
    18ec:	ffff                	0xffff
    18ee:	ffff                	0xffff
    18f0:	ffff                	0xffff
    18f2:	ffff                	0xffff
    18f4:	ffff                	0xffff
    18f6:	ffff                	0xffff
    18f8:	ffff                	0xffff
    18fa:	ffff                	0xffff
    18fc:	ffff                	0xffff
    18fe:	ffff                	0xffff
    1900:	ffff                	0xffff
    1902:	ffff                	0xffff
    1904:	ffff                	0xffff
    1906:	ffff                	0xffff
    1908:	ffff                	0xffff
    190a:	ffff                	0xffff
    190c:	ffff                	0xffff
    190e:	ffff                	0xffff
    1910:	ffff                	0xffff
    1912:	ffff                	0xffff
    1914:	ffff                	0xffff
    1916:	ffff                	0xffff
    1918:	ffff                	0xffff
    191a:	ffff                	0xffff
    191c:	ffff                	0xffff
    191e:	ffff                	0xffff
    1920:	ffff                	0xffff
    1922:	ffff                	0xffff
    1924:	ffff                	0xffff
    1926:	ffff                	0xffff
    1928:	ffff                	0xffff
    192a:	ffff                	0xffff
    192c:	ffff                	0xffff
    192e:	ffff                	0xffff
    1930:	ffff                	0xffff
    1932:	ffff                	0xffff
    1934:	ffff                	0xffff
    1936:	ffff                	0xffff
    1938:	ffff                	0xffff
    193a:	ffff                	0xffff
    193c:	ffff                	0xffff
    193e:	ffff                	0xffff
    1940:	ffff                	0xffff
    1942:	ffff                	0xffff
    1944:	ffff                	0xffff
    1946:	ffff                	0xffff
    1948:	ffff                	0xffff
    194a:	ffff                	0xffff
    194c:	ffff                	0xffff
    194e:	ffff                	0xffff
    1950:	ffff                	0xffff
    1952:	ffff                	0xffff
    1954:	ffff                	0xffff
    1956:	ffff                	0xffff
    1958:	ffff                	0xffff
    195a:	ffff                	0xffff
    195c:	ffff                	0xffff
    195e:	ffff                	0xffff
    1960:	ffff                	0xffff
    1962:	ffff                	0xffff
    1964:	ffff                	0xffff
    1966:	ffff                	0xffff
    1968:	ffff                	0xffff
    196a:	ffff                	0xffff
    196c:	ffff                	0xffff
    196e:	ffff                	0xffff
    1970:	ffff                	0xffff
    1972:	ffff                	0xffff
    1974:	ffff                	0xffff
    1976:	ffff                	0xffff
    1978:	ffff                	0xffff
    197a:	ffff                	0xffff
    197c:	ffff                	0xffff
    197e:	ffff                	0xffff
    1980:	ffff                	0xffff
    1982:	ffff                	0xffff
    1984:	ffff                	0xffff
    1986:	ffff                	0xffff
    1988:	ffff                	0xffff
    198a:	ffff                	0xffff
    198c:	ffff                	0xffff
    198e:	ffff                	0xffff
    1990:	ffff                	0xffff
    1992:	ffff                	0xffff
    1994:	ffff                	0xffff
    1996:	ffff                	0xffff
    1998:	ffff                	0xffff
    199a:	ffff                	0xffff
    199c:	ffff                	0xffff
    199e:	ffff                	0xffff
    19a0:	ffff                	0xffff
    19a2:	ffff                	0xffff
    19a4:	ffff                	0xffff
    19a6:	ffff                	0xffff
    19a8:	ffff                	0xffff
    19aa:	ffff                	0xffff
    19ac:	ffff                	0xffff
    19ae:	ffff                	0xffff
    19b0:	ffff                	0xffff
    19b2:	ffff                	0xffff
    19b4:	ffff                	0xffff
    19b6:	ffff                	0xffff
    19b8:	ffff                	0xffff
    19ba:	ffff                	0xffff
    19bc:	ffff                	0xffff
    19be:	ffff                	0xffff
    19c0:	ffff                	0xffff
    19c2:	ffff                	0xffff
    19c4:	ffff                	0xffff
    19c6:	ffff                	0xffff
    19c8:	ffff                	0xffff
    19ca:	ffff                	0xffff
    19cc:	ffff                	0xffff
    19ce:	ffff                	0xffff
    19d0:	ffff                	0xffff
    19d2:	ffff                	0xffff
    19d4:	ffff                	0xffff
    19d6:	ffff                	0xffff
    19d8:	ffff                	0xffff
    19da:	ffff                	0xffff
    19dc:	ffff                	0xffff
    19de:	ffff                	0xffff
    19e0:	ffff                	0xffff
    19e2:	ffff                	0xffff
    19e4:	ffff                	0xffff
    19e6:	ffff                	0xffff
    19e8:	ffff                	0xffff
    19ea:	ffff                	0xffff
    19ec:	ffff                	0xffff
    19ee:	ffff                	0xffff
    19f0:	ffff                	0xffff
    19f2:	ffff                	0xffff
    19f4:	ffff                	0xffff
    19f6:	ffff                	0xffff
    19f8:	ffff                	0xffff
    19fa:	ffff                	0xffff
    19fc:	ffff                	0xffff
    19fe:	ffff                	0xffff
    1a00:	ffff                	0xffff
    1a02:	ffff                	0xffff
    1a04:	ffff                	0xffff
    1a06:	ffff                	0xffff
    1a08:	ffff                	0xffff
    1a0a:	ffff                	0xffff
    1a0c:	ffff                	0xffff
    1a0e:	ffff                	0xffff
    1a10:	ffff                	0xffff
    1a12:	ffff                	0xffff
    1a14:	ffff                	0xffff
    1a16:	ffff                	0xffff
    1a18:	ffff                	0xffff
    1a1a:	ffff                	0xffff
    1a1c:	ffff                	0xffff
    1a1e:	ffff                	0xffff
    1a20:	ffff                	0xffff
    1a22:	ffff                	0xffff
    1a24:	ffff                	0xffff
    1a26:	ffff                	0xffff
    1a28:	ffff                	0xffff
    1a2a:	ffff                	0xffff
    1a2c:	ffff                	0xffff
    1a2e:	ffff                	0xffff
    1a30:	ffff                	0xffff
    1a32:	ffff                	0xffff
    1a34:	ffff                	0xffff
    1a36:	ffff                	0xffff
    1a38:	ffff                	0xffff
    1a3a:	ffff                	0xffff
    1a3c:	ffff                	0xffff
    1a3e:	ffff                	0xffff
    1a40:	ffff                	0xffff
    1a42:	ffff                	0xffff
    1a44:	ffff                	0xffff
    1a46:	ffff                	0xffff
    1a48:	ffff                	0xffff
    1a4a:	ffff                	0xffff
    1a4c:	ffff                	0xffff
    1a4e:	ffff                	0xffff
    1a50:	ffff                	0xffff
    1a52:	ffff                	0xffff
    1a54:	ffff                	0xffff
    1a56:	ffff                	0xffff
    1a58:	ffff                	0xffff
    1a5a:	ffff                	0xffff
    1a5c:	ffff                	0xffff
    1a5e:	ffff                	0xffff
    1a60:	ffff                	0xffff
    1a62:	ffff                	0xffff
    1a64:	ffff                	0xffff
    1a66:	ffff                	0xffff
    1a68:	ffff                	0xffff
    1a6a:	ffff                	0xffff
    1a6c:	ffff                	0xffff
    1a6e:	ffff                	0xffff
    1a70:	ffff                	0xffff
    1a72:	ffff                	0xffff
    1a74:	ffff                	0xffff
    1a76:	ffff                	0xffff
    1a78:	ffff                	0xffff
    1a7a:	ffff                	0xffff
    1a7c:	ffff                	0xffff
    1a7e:	ffff                	0xffff
    1a80:	ffff                	0xffff
    1a82:	ffff                	0xffff
    1a84:	ffff                	0xffff
    1a86:	ffff                	0xffff
    1a88:	ffff                	0xffff
    1a8a:	ffff                	0xffff
    1a8c:	ffff                	0xffff
    1a8e:	ffff                	0xffff
    1a90:	ffff                	0xffff
    1a92:	ffff                	0xffff
    1a94:	ffff                	0xffff
    1a96:	ffff                	0xffff
    1a98:	ffff                	0xffff
    1a9a:	ffff                	0xffff
    1a9c:	ffff                	0xffff
    1a9e:	ffff                	0xffff
    1aa0:	ffff                	0xffff
    1aa2:	ffff                	0xffff
    1aa4:	ffff                	0xffff
    1aa6:	ffff                	0xffff
    1aa8:	ffff                	0xffff
    1aaa:	ffff                	0xffff
    1aac:	ffff                	0xffff
    1aae:	ffff                	0xffff
    1ab0:	ffff                	0xffff
    1ab2:	ffff                	0xffff
    1ab4:	ffff                	0xffff
    1ab6:	ffff                	0xffff
    1ab8:	ffff                	0xffff
    1aba:	ffff                	0xffff
    1abc:	ffff                	0xffff
    1abe:	ffff                	0xffff
    1ac0:	ffff                	0xffff
    1ac2:	ffff                	0xffff
    1ac4:	ffff                	0xffff
    1ac6:	ffff                	0xffff
    1ac8:	ffff                	0xffff
    1aca:	ffff                	0xffff
    1acc:	ffff                	0xffff
    1ace:	ffff                	0xffff
    1ad0:	ffff                	0xffff
    1ad2:	ffff                	0xffff
    1ad4:	ffff                	0xffff
    1ad6:	ffff                	0xffff
    1ad8:	ffff                	0xffff
    1ada:	ffff                	0xffff
    1adc:	ffff                	0xffff
    1ade:	ffff                	0xffff
    1ae0:	ffff                	0xffff
    1ae2:	ffff                	0xffff
    1ae4:	ffff                	0xffff
    1ae6:	ffff                	0xffff
    1ae8:	ffff                	0xffff
    1aea:	ffff                	0xffff
    1aec:	ffff                	0xffff
    1aee:	ffff                	0xffff
    1af0:	ffff                	0xffff
    1af2:	ffff                	0xffff
    1af4:	ffff                	0xffff
    1af6:	ffff                	0xffff
    1af8:	ffff                	0xffff
    1afa:	ffff                	0xffff
    1afc:	ffff                	0xffff
    1afe:	ffff                	0xffff
    1b00:	ffff                	0xffff
    1b02:	ffff                	0xffff
    1b04:	ffff                	0xffff
    1b06:	ffff                	0xffff
    1b08:	ffff                	0xffff
    1b0a:	ffff                	0xffff
    1b0c:	ffff                	0xffff
    1b0e:	ffff                	0xffff
    1b10:	ffff                	0xffff
    1b12:	ffff                	0xffff
    1b14:	ffff                	0xffff
    1b16:	ffff                	0xffff
    1b18:	ffff                	0xffff
    1b1a:	ffff                	0xffff
    1b1c:	ffff                	0xffff
    1b1e:	ffff                	0xffff
    1b20:	ffff                	0xffff
    1b22:	ffff                	0xffff
    1b24:	ffff                	0xffff
    1b26:	ffff                	0xffff
    1b28:	ffff                	0xffff
    1b2a:	ffff                	0xffff
    1b2c:	ffff                	0xffff
    1b2e:	ffff                	0xffff
    1b30:	ffff                	0xffff
    1b32:	ffff                	0xffff
    1b34:	ffff                	0xffff
    1b36:	ffff                	0xffff
    1b38:	ffff                	0xffff
    1b3a:	ffff                	0xffff
    1b3c:	ffff                	0xffff
    1b3e:	ffff                	0xffff
    1b40:	ffff                	0xffff
    1b42:	ffff                	0xffff
    1b44:	ffff                	0xffff
    1b46:	ffff                	0xffff
    1b48:	ffff                	0xffff
    1b4a:	ffff                	0xffff
    1b4c:	ffff                	0xffff
    1b4e:	ffff                	0xffff
    1b50:	ffff                	0xffff
    1b52:	ffff                	0xffff
    1b54:	ffff                	0xffff
    1b56:	ffff                	0xffff
    1b58:	ffff                	0xffff
    1b5a:	ffff                	0xffff
    1b5c:	ffff                	0xffff
    1b5e:	ffff                	0xffff
    1b60:	ffff                	0xffff
    1b62:	ffff                	0xffff
    1b64:	ffff                	0xffff
    1b66:	ffff                	0xffff
    1b68:	ffff                	0xffff
    1b6a:	ffff                	0xffff
    1b6c:	ffff                	0xffff
    1b6e:	ffff                	0xffff
    1b70:	ffff                	0xffff
    1b72:	ffff                	0xffff
    1b74:	ffff                	0xffff
    1b76:	ffff                	0xffff
    1b78:	ffff                	0xffff
    1b7a:	ffff                	0xffff
    1b7c:	ffff                	0xffff
    1b7e:	ffff                	0xffff
    1b80:	ffff                	0xffff
    1b82:	ffff                	0xffff
    1b84:	ffff                	0xffff
    1b86:	ffff                	0xffff
    1b88:	ffff                	0xffff
    1b8a:	ffff                	0xffff
    1b8c:	ffff                	0xffff
    1b8e:	ffff                	0xffff
    1b90:	ffff                	0xffff
    1b92:	ffff                	0xffff
    1b94:	ffff                	0xffff
    1b96:	ffff                	0xffff
    1b98:	ffff                	0xffff
    1b9a:	ffff                	0xffff
    1b9c:	ffff                	0xffff
    1b9e:	ffff                	0xffff
    1ba0:	ffff                	0xffff
    1ba2:	ffff                	0xffff
    1ba4:	ffff                	0xffff
    1ba6:	ffff                	0xffff
    1ba8:	ffff                	0xffff
    1baa:	ffff                	0xffff
    1bac:	ffff                	0xffff
    1bae:	ffff                	0xffff
    1bb0:	ffff                	0xffff
    1bb2:	ffff                	0xffff
    1bb4:	ffff                	0xffff
    1bb6:	ffff                	0xffff
    1bb8:	ffff                	0xffff
    1bba:	ffff                	0xffff
    1bbc:	ffff                	0xffff
    1bbe:	ffff                	0xffff
    1bc0:	ffff                	0xffff
    1bc2:	ffff                	0xffff
    1bc4:	ffff                	0xffff
    1bc6:	ffff                	0xffff
    1bc8:	ffff                	0xffff
    1bca:	ffff                	0xffff
    1bcc:	ffff                	0xffff
    1bce:	ffff                	0xffff
    1bd0:	ffff                	0xffff
    1bd2:	ffff                	0xffff
    1bd4:	ffff                	0xffff
    1bd6:	ffff                	0xffff
    1bd8:	ffff                	0xffff
    1bda:	ffff                	0xffff
    1bdc:	ffff                	0xffff
    1bde:	ffff                	0xffff
    1be0:	ffff                	0xffff
    1be2:	ffff                	0xffff
    1be4:	ffff                	0xffff
    1be6:	ffff                	0xffff
    1be8:	ffff                	0xffff
    1bea:	ffff                	0xffff
    1bec:	ffff                	0xffff
    1bee:	ffff                	0xffff
    1bf0:	ffff                	0xffff
    1bf2:	ffff                	0xffff
    1bf4:	ffff                	0xffff
    1bf6:	ffff                	0xffff
    1bf8:	ffff                	0xffff
    1bfa:	ffff                	0xffff
    1bfc:	ffff                	0xffff
    1bfe:	ffff                	0xffff
    1c00:	ffff                	0xffff
    1c02:	ffff                	0xffff
    1c04:	ffff                	0xffff
    1c06:	ffff                	0xffff
    1c08:	ffff                	0xffff
    1c0a:	ffff                	0xffff
    1c0c:	ffff                	0xffff
    1c0e:	ffff                	0xffff
    1c10:	ffff                	0xffff
    1c12:	ffff                	0xffff
    1c14:	ffff                	0xffff
    1c16:	ffff                	0xffff
    1c18:	ffff                	0xffff
    1c1a:	ffff                	0xffff
    1c1c:	ffff                	0xffff
    1c1e:	ffff                	0xffff
    1c20:	ffff                	0xffff
    1c22:	ffff                	0xffff
    1c24:	ffff                	0xffff
    1c26:	ffff                	0xffff
    1c28:	ffff                	0xffff
    1c2a:	ffff                	0xffff
    1c2c:	ffff                	0xffff
    1c2e:	ffff                	0xffff
    1c30:	ffff                	0xffff
    1c32:	ffff                	0xffff
    1c34:	ffff                	0xffff
    1c36:	ffff                	0xffff
    1c38:	ffff                	0xffff
    1c3a:	ffff                	0xffff
    1c3c:	ffff                	0xffff
    1c3e:	ffff                	0xffff
    1c40:	ffff                	0xffff
    1c42:	ffff                	0xffff
    1c44:	ffff                	0xffff
    1c46:	ffff                	0xffff
    1c48:	ffff                	0xffff
    1c4a:	ffff                	0xffff
    1c4c:	ffff                	0xffff
    1c4e:	ffff                	0xffff
    1c50:	ffff                	0xffff
    1c52:	ffff                	0xffff
    1c54:	ffff                	0xffff
    1c56:	ffff                	0xffff
    1c58:	ffff                	0xffff
    1c5a:	ffff                	0xffff
    1c5c:	ffff                	0xffff
    1c5e:	ffff                	0xffff
    1c60:	ffff                	0xffff
    1c62:	ffff                	0xffff
    1c64:	ffff                	0xffff
    1c66:	ffff                	0xffff
    1c68:	ffff                	0xffff
    1c6a:	ffff                	0xffff
    1c6c:	ffff                	0xffff
    1c6e:	ffff                	0xffff
    1c70:	ffff                	0xffff
    1c72:	ffff                	0xffff
    1c74:	ffff                	0xffff
    1c76:	ffff                	0xffff
    1c78:	ffff                	0xffff
    1c7a:	ffff                	0xffff
    1c7c:	ffff                	0xffff
    1c7e:	ffff                	0xffff
    1c80:	ffff                	0xffff
    1c82:	ffff                	0xffff
    1c84:	ffff                	0xffff
    1c86:	ffff                	0xffff
    1c88:	ffff                	0xffff
    1c8a:	ffff                	0xffff
    1c8c:	ffff                	0xffff
    1c8e:	ffff                	0xffff
    1c90:	ffff                	0xffff
    1c92:	ffff                	0xffff
    1c94:	ffff                	0xffff
    1c96:	ffff                	0xffff
    1c98:	ffff                	0xffff
    1c9a:	ffff                	0xffff
    1c9c:	ffff                	0xffff
    1c9e:	ffff                	0xffff
    1ca0:	ffff                	0xffff
    1ca2:	ffff                	0xffff
    1ca4:	ffff                	0xffff
    1ca6:	ffff                	0xffff
    1ca8:	ffff                	0xffff
    1caa:	ffff                	0xffff
    1cac:	ffff                	0xffff
    1cae:	ffff                	0xffff
    1cb0:	ffff                	0xffff
    1cb2:	ffff                	0xffff
    1cb4:	ffff                	0xffff
    1cb6:	ffff                	0xffff
    1cb8:	ffff                	0xffff
    1cba:	ffff                	0xffff
    1cbc:	ffff                	0xffff
    1cbe:	ffff                	0xffff
    1cc0:	ffff                	0xffff
    1cc2:	ffff                	0xffff
    1cc4:	ffff                	0xffff
    1cc6:	ffff                	0xffff
    1cc8:	ffff                	0xffff
    1cca:	ffff                	0xffff
    1ccc:	ffff                	0xffff
    1cce:	ffff                	0xffff
    1cd0:	ffff                	0xffff
    1cd2:	ffff                	0xffff
    1cd4:	ffff                	0xffff
    1cd6:	ffff                	0xffff
    1cd8:	ffff                	0xffff
    1cda:	ffff                	0xffff
    1cdc:	ffff                	0xffff
    1cde:	ffff                	0xffff
    1ce0:	ffff                	0xffff
    1ce2:	ffff                	0xffff
    1ce4:	ffff                	0xffff
    1ce6:	ffff                	0xffff
    1ce8:	ffff                	0xffff
    1cea:	ffff                	0xffff
    1cec:	ffff                	0xffff
    1cee:	ffff                	0xffff
    1cf0:	ffff                	0xffff
    1cf2:	ffff                	0xffff
    1cf4:	ffff                	0xffff
    1cf6:	ffff                	0xffff
    1cf8:	ffff                	0xffff
    1cfa:	ffff                	0xffff
    1cfc:	ffff                	0xffff
    1cfe:	ffff                	0xffff
    1d00:	ffff                	0xffff
    1d02:	ffff                	0xffff
    1d04:	ffff                	0xffff
    1d06:	ffff                	0xffff
    1d08:	ffff                	0xffff
    1d0a:	ffff                	0xffff
    1d0c:	ffff                	0xffff
    1d0e:	ffff                	0xffff
    1d10:	ffff                	0xffff
    1d12:	ffff                	0xffff
    1d14:	ffff                	0xffff
    1d16:	ffff                	0xffff
    1d18:	ffff                	0xffff
    1d1a:	ffff                	0xffff
    1d1c:	ffff                	0xffff
    1d1e:	ffff                	0xffff
    1d20:	ffff                	0xffff
    1d22:	ffff                	0xffff
    1d24:	ffff                	0xffff
    1d26:	ffff                	0xffff
    1d28:	ffff                	0xffff
    1d2a:	ffff                	0xffff
    1d2c:	ffff                	0xffff
    1d2e:	ffff                	0xffff
    1d30:	ffff                	0xffff
    1d32:	ffff                	0xffff
    1d34:	ffff                	0xffff
    1d36:	ffff                	0xffff
    1d38:	ffff                	0xffff
    1d3a:	ffff                	0xffff
    1d3c:	ffff                	0xffff
    1d3e:	ffff                	0xffff
    1d40:	ffff                	0xffff
    1d42:	ffff                	0xffff
    1d44:	ffff                	0xffff
    1d46:	ffff                	0xffff
    1d48:	ffff                	0xffff
    1d4a:	ffff                	0xffff
    1d4c:	ffff                	0xffff
    1d4e:	ffff                	0xffff
    1d50:	ffff                	0xffff
    1d52:	ffff                	0xffff
    1d54:	ffff                	0xffff
    1d56:	ffff                	0xffff
    1d58:	ffff                	0xffff
    1d5a:	ffff                	0xffff
    1d5c:	ffff                	0xffff
    1d5e:	ffff                	0xffff
    1d60:	ffff                	0xffff
    1d62:	ffff                	0xffff
    1d64:	ffff                	0xffff
    1d66:	ffff                	0xffff
    1d68:	ffff                	0xffff
    1d6a:	ffff                	0xffff
    1d6c:	ffff                	0xffff
    1d6e:	ffff                	0xffff
    1d70:	ffff                	0xffff
    1d72:	ffff                	0xffff
    1d74:	ffff                	0xffff
    1d76:	ffff                	0xffff
    1d78:	ffff                	0xffff
    1d7a:	ffff                	0xffff
    1d7c:	ffff                	0xffff
    1d7e:	ffff                	0xffff
    1d80:	ffff                	0xffff
    1d82:	ffff                	0xffff
    1d84:	ffff                	0xffff
    1d86:	ffff                	0xffff
    1d88:	ffff                	0xffff
    1d8a:	ffff                	0xffff
    1d8c:	ffff                	0xffff
    1d8e:	ffff                	0xffff
    1d90:	ffff                	0xffff
    1d92:	ffff                	0xffff
    1d94:	ffff                	0xffff
    1d96:	ffff                	0xffff
    1d98:	ffff                	0xffff
    1d9a:	ffff                	0xffff
    1d9c:	ffff                	0xffff
    1d9e:	ffff                	0xffff
    1da0:	ffff                	0xffff
    1da2:	ffff                	0xffff
    1da4:	ffff                	0xffff
    1da6:	ffff                	0xffff
    1da8:	ffff                	0xffff
    1daa:	ffff                	0xffff
    1dac:	ffff                	0xffff
    1dae:	ffff                	0xffff
    1db0:	ffff                	0xffff
    1db2:	ffff                	0xffff
    1db4:	ffff                	0xffff
    1db6:	ffff                	0xffff
    1db8:	ffff                	0xffff
    1dba:	ffff                	0xffff
    1dbc:	ffff                	0xffff
    1dbe:	ffff                	0xffff
    1dc0:	ffff                	0xffff
    1dc2:	ffff                	0xffff
    1dc4:	ffff                	0xffff
    1dc6:	ffff                	0xffff
    1dc8:	ffff                	0xffff
    1dca:	ffff                	0xffff
    1dcc:	ffff                	0xffff
    1dce:	ffff                	0xffff
    1dd0:	ffff                	0xffff
    1dd2:	ffff                	0xffff
    1dd4:	ffff                	0xffff
    1dd6:	ffff                	0xffff
    1dd8:	ffff                	0xffff
    1dda:	ffff                	0xffff
    1ddc:	ffff                	0xffff
    1dde:	ffff                	0xffff
    1de0:	ffff                	0xffff
    1de2:	ffff                	0xffff
    1de4:	ffff                	0xffff
    1de6:	ffff                	0xffff
    1de8:	ffff                	0xffff
    1dea:	ffff                	0xffff
    1dec:	ffff                	0xffff
    1dee:	ffff                	0xffff
    1df0:	ffff                	0xffff
    1df2:	ffff                	0xffff
    1df4:	ffff                	0xffff
    1df6:	ffff                	0xffff
    1df8:	ffff                	0xffff
    1dfa:	ffff                	0xffff
    1dfc:	ffff                	0xffff
    1dfe:	ffff                	0xffff
    1e00:	ffff                	0xffff
    1e02:	ffff                	0xffff
    1e04:	ffff                	0xffff
    1e06:	ffff                	0xffff
    1e08:	ffff                	0xffff
    1e0a:	ffff                	0xffff
    1e0c:	ffff                	0xffff
    1e0e:	ffff                	0xffff
    1e10:	ffff                	0xffff
    1e12:	ffff                	0xffff
    1e14:	ffff                	0xffff
    1e16:	ffff                	0xffff
    1e18:	ffff                	0xffff
    1e1a:	ffff                	0xffff
    1e1c:	ffff                	0xffff
    1e1e:	ffff                	0xffff
    1e20:	ffff                	0xffff
    1e22:	ffff                	0xffff
    1e24:	ffff                	0xffff
    1e26:	ffff                	0xffff
    1e28:	ffff                	0xffff
    1e2a:	ffff                	0xffff
    1e2c:	ffff                	0xffff
    1e2e:	ffff                	0xffff
    1e30:	ffff                	0xffff
    1e32:	ffff                	0xffff
    1e34:	ffff                	0xffff
    1e36:	ffff                	0xffff
    1e38:	ffff                	0xffff
    1e3a:	ffff                	0xffff
    1e3c:	ffff                	0xffff
    1e3e:	ffff                	0xffff
    1e40:	ffff                	0xffff
    1e42:	ffff                	0xffff
    1e44:	ffff                	0xffff
    1e46:	ffff                	0xffff
    1e48:	ffff                	0xffff
    1e4a:	ffff                	0xffff
    1e4c:	ffff                	0xffff
    1e4e:	ffff                	0xffff
    1e50:	ffff                	0xffff
    1e52:	ffff                	0xffff
    1e54:	ffff                	0xffff
    1e56:	ffff                	0xffff
    1e58:	ffff                	0xffff
    1e5a:	ffff                	0xffff
    1e5c:	ffff                	0xffff
    1e5e:	ffff                	0xffff
    1e60:	ffff                	0xffff
    1e62:	ffff                	0xffff
    1e64:	ffff                	0xffff
    1e66:	ffff                	0xffff
    1e68:	ffff                	0xffff
    1e6a:	ffff                	0xffff
    1e6c:	ffff                	0xffff
    1e6e:	ffff                	0xffff
    1e70:	ffff                	0xffff
    1e72:	ffff                	0xffff
    1e74:	ffff                	0xffff
    1e76:	ffff                	0xffff
    1e78:	ffff                	0xffff
    1e7a:	ffff                	0xffff
    1e7c:	ffff                	0xffff
    1e7e:	ffff                	0xffff
    1e80:	ffff                	0xffff
    1e82:	ffff                	0xffff
    1e84:	ffff                	0xffff
    1e86:	ffff                	0xffff
    1e88:	ffff                	0xffff
    1e8a:	ffff                	0xffff
    1e8c:	ffff                	0xffff
    1e8e:	ffff                	0xffff
    1e90:	ffff                	0xffff
    1e92:	ffff                	0xffff
    1e94:	ffff                	0xffff
    1e96:	ffff                	0xffff
    1e98:	ffff                	0xffff
    1e9a:	ffff                	0xffff
    1e9c:	ffff                	0xffff
    1e9e:	ffff                	0xffff
    1ea0:	ffff                	0xffff
    1ea2:	ffff                	0xffff
    1ea4:	ffff                	0xffff
    1ea6:	ffff                	0xffff
    1ea8:	ffff                	0xffff
    1eaa:	ffff                	0xffff
    1eac:	ffff                	0xffff
    1eae:	ffff                	0xffff
    1eb0:	ffff                	0xffff
    1eb2:	ffff                	0xffff
    1eb4:	ffff                	0xffff
    1eb6:	ffff                	0xffff
    1eb8:	ffff                	0xffff
    1eba:	ffff                	0xffff
    1ebc:	ffff                	0xffff
    1ebe:	ffff                	0xffff
    1ec0:	ffff                	0xffff
    1ec2:	ffff                	0xffff
    1ec4:	ffff                	0xffff
    1ec6:	ffff                	0xffff
    1ec8:	ffff                	0xffff
    1eca:	ffff                	0xffff
    1ecc:	ffff                	0xffff
    1ece:	ffff                	0xffff
    1ed0:	ffff                	0xffff
    1ed2:	ffff                	0xffff
    1ed4:	ffff                	0xffff
    1ed6:	ffff                	0xffff
    1ed8:	ffff                	0xffff
    1eda:	ffff                	0xffff
    1edc:	ffff                	0xffff
    1ede:	ffff                	0xffff
    1ee0:	ffff                	0xffff
    1ee2:	ffff                	0xffff
    1ee4:	ffff                	0xffff
    1ee6:	ffff                	0xffff
    1ee8:	ffff                	0xffff
    1eea:	ffff                	0xffff
    1eec:	ffff                	0xffff
    1eee:	ffff                	0xffff
    1ef0:	ffff                	0xffff
    1ef2:	ffff                	0xffff
    1ef4:	ffff                	0xffff
    1ef6:	ffff                	0xffff
    1ef8:	ffff                	0xffff
    1efa:	ffff                	0xffff
    1efc:	ffff                	0xffff
    1efe:	ffff                	0xffff
    1f00:	ffff                	0xffff
    1f02:	ffff                	0xffff
    1f04:	ffff                	0xffff
    1f06:	ffff                	0xffff
    1f08:	ffff                	0xffff
    1f0a:	ffff                	0xffff
    1f0c:	ffff                	0xffff
    1f0e:	ffff                	0xffff
    1f10:	ffff                	0xffff
    1f12:	ffff                	0xffff
    1f14:	ffff                	0xffff
    1f16:	ffff                	0xffff
    1f18:	ffff                	0xffff
    1f1a:	ffff                	0xffff
    1f1c:	ffff                	0xffff
    1f1e:	ffff                	0xffff
    1f20:	ffff                	0xffff
    1f22:	ffff                	0xffff
    1f24:	ffff                	0xffff
    1f26:	ffff                	0xffff
    1f28:	ffff                	0xffff
    1f2a:	ffff                	0xffff
    1f2c:	ffff                	0xffff
    1f2e:	ffff                	0xffff
    1f30:	ffff                	0xffff
    1f32:	ffff                	0xffff
    1f34:	ffff                	0xffff
    1f36:	ffff                	0xffff
    1f38:	ffff                	0xffff
    1f3a:	ffff                	0xffff
    1f3c:	ffff                	0xffff
    1f3e:	ffff                	0xffff
    1f40:	ffff                	0xffff
    1f42:	ffff                	0xffff
    1f44:	ffff                	0xffff
    1f46:	ffff                	0xffff
    1f48:	ffff                	0xffff
    1f4a:	ffff                	0xffff
    1f4c:	ffff                	0xffff
    1f4e:	ffff                	0xffff
    1f50:	ffff                	0xffff
    1f52:	ffff                	0xffff
    1f54:	ffff                	0xffff
    1f56:	ffff                	0xffff
    1f58:	ffff                	0xffff
    1f5a:	ffff                	0xffff
    1f5c:	ffff                	0xffff
    1f5e:	ffff                	0xffff
    1f60:	ffff                	0xffff
    1f62:	ffff                	0xffff
    1f64:	ffff                	0xffff
    1f66:	ffff                	0xffff
    1f68:	ffff                	0xffff
    1f6a:	ffff                	0xffff
    1f6c:	ffff                	0xffff
    1f6e:	ffff                	0xffff
    1f70:	ffff                	0xffff
    1f72:	ffff                	0xffff
    1f74:	ffff                	0xffff
    1f76:	ffff                	0xffff
    1f78:	ffff                	0xffff
    1f7a:	ffff                	0xffff
    1f7c:	ffff                	0xffff
    1f7e:	ffff                	0xffff
    1f80:	ffff                	0xffff
    1f82:	ffff                	0xffff
    1f84:	ffff                	0xffff
    1f86:	ffff                	0xffff
    1f88:	ffff                	0xffff
    1f8a:	ffff                	0xffff
    1f8c:	ffff                	0xffff
    1f8e:	ffff                	0xffff
    1f90:	ffff                	0xffff
    1f92:	ffff                	0xffff
    1f94:	ffff                	0xffff
    1f96:	ffff                	0xffff
    1f98:	ffff                	0xffff
    1f9a:	ffff                	0xffff
    1f9c:	ffff                	0xffff
    1f9e:	ffff                	0xffff
    1fa0:	ffff                	0xffff
    1fa2:	ffff                	0xffff
    1fa4:	ffff                	0xffff
    1fa6:	ffff                	0xffff
    1fa8:	ffff                	0xffff
    1faa:	ffff                	0xffff
    1fac:	ffff                	0xffff
    1fae:	ffff                	0xffff
    1fb0:	ffff                	0xffff
    1fb2:	ffff                	0xffff
    1fb4:	ffff                	0xffff
    1fb6:	ffff                	0xffff
    1fb8:	ffff                	0xffff
    1fba:	ffff                	0xffff
    1fbc:	ffff                	0xffff
    1fbe:	ffff                	0xffff
    1fc0:	ffff                	0xffff
    1fc2:	ffff                	0xffff
    1fc4:	ffff                	0xffff
    1fc6:	ffff                	0xffff
    1fc8:	ffff                	0xffff
    1fca:	ffff                	0xffff
    1fcc:	ffff                	0xffff
    1fce:	ffff                	0xffff
    1fd0:	ffff                	0xffff
    1fd2:	ffff                	0xffff
    1fd4:	ffff                	0xffff
    1fd6:	ffff                	0xffff
    1fd8:	ffff                	0xffff
    1fda:	ffff                	0xffff
    1fdc:	ffff                	0xffff
    1fde:	ffff                	0xffff
    1fe0:	ffff                	0xffff
    1fe2:	ffff                	0xffff
    1fe4:	ffff                	0xffff
    1fe6:	ffff                	0xffff
    1fe8:	ffff                	0xffff
    1fea:	ffff                	0xffff
    1fec:	ffff                	0xffff
    1fee:	ffff                	0xffff
    1ff0:	ffff                	0xffff
    1ff2:	ffff                	0xffff
    1ff4:	ffff                	0xffff
    1ff6:	ffff                	0xffff
    1ff8:	ffff                	0xffff
    1ffa:	ffff                	0xffff
    1ffc:	ffff                	0xffff
    1ffe:	ffff                	0xffff
    2000:	ffff                	0xffff
    2002:	ffff                	0xffff
    2004:	ffff                	0xffff
    2006:	ffff                	0xffff
    2008:	ffff                	0xffff
    200a:	ffff                	0xffff
    200c:	ffff                	0xffff
    200e:	ffff                	0xffff
    2010:	ffff                	0xffff
    2012:	ffff                	0xffff
    2014:	ffff                	0xffff
    2016:	ffff                	0xffff
    2018:	ffff                	0xffff
    201a:	ffff                	0xffff
    201c:	ffff                	0xffff
    201e:	ffff                	0xffff
    2020:	ffff                	0xffff
    2022:	ffff                	0xffff
    2024:	ffff                	0xffff
    2026:	ffff                	0xffff
    2028:	ffff                	0xffff
    202a:	ffff                	0xffff
    202c:	ffff                	0xffff
    202e:	ffff                	0xffff
    2030:	ffff                	0xffff
    2032:	ffff                	0xffff
    2034:	ffff                	0xffff
    2036:	ffff                	0xffff
    2038:	ffff                	0xffff
    203a:	ffff                	0xffff
    203c:	ffff                	0xffff
    203e:	ffff                	0xffff
    2040:	ffff                	0xffff
    2042:	ffff                	0xffff
    2044:	ffff                	0xffff
    2046:	ffff                	0xffff
    2048:	ffff                	0xffff
    204a:	ffff                	0xffff
    204c:	ffff                	0xffff
    204e:	ffff                	0xffff
    2050:	ffff                	0xffff
    2052:	ffff                	0xffff
    2054:	ffff                	0xffff
    2056:	ffff                	0xffff
    2058:	ffff                	0xffff
    205a:	ffff                	0xffff
    205c:	ffff                	0xffff
    205e:	ffff                	0xffff
    2060:	ffff                	0xffff
    2062:	ffff                	0xffff
    2064:	ffff                	0xffff
    2066:	ffff                	0xffff
    2068:	ffff                	0xffff
    206a:	ffff                	0xffff
    206c:	ffff                	0xffff
    206e:	ffff                	0xffff
    2070:	ffff                	0xffff
    2072:	ffff                	0xffff
    2074:	ffff                	0xffff
    2076:	ffff                	0xffff
    2078:	ffff                	0xffff
    207a:	ffff                	0xffff
    207c:	ffff                	0xffff
    207e:	ffff                	0xffff
    2080:	ffff                	0xffff
    2082:	ffff                	0xffff
    2084:	ffff                	0xffff
    2086:	ffff                	0xffff
    2088:	ffff                	0xffff
    208a:	ffff                	0xffff
    208c:	ffff                	0xffff
    208e:	ffff                	0xffff
    2090:	ffff                	0xffff
    2092:	ffff                	0xffff
    2094:	ffff                	0xffff
    2096:	ffff                	0xffff
    2098:	ffff                	0xffff
    209a:	ffff                	0xffff
    209c:	ffff                	0xffff
    209e:	ffff                	0xffff
    20a0:	ffff                	0xffff
    20a2:	ffff                	0xffff
    20a4:	ffff                	0xffff
    20a6:	ffff                	0xffff
    20a8:	ffff                	0xffff
    20aa:	ffff                	0xffff
    20ac:	ffff                	0xffff
    20ae:	ffff                	0xffff
    20b0:	ffff                	0xffff
    20b2:	ffff                	0xffff
    20b4:	ffff                	0xffff
    20b6:	ffff                	0xffff
    20b8:	ffff                	0xffff
    20ba:	ffff                	0xffff
    20bc:	ffff                	0xffff
    20be:	ffff                	0xffff
    20c0:	ffff                	0xffff
    20c2:	ffff                	0xffff
    20c4:	ffff                	0xffff
    20c6:	ffff                	0xffff
    20c8:	ffff                	0xffff
    20ca:	ffff                	0xffff
    20cc:	ffff                	0xffff
    20ce:	ffff                	0xffff
    20d0:	ffff                	0xffff
    20d2:	ffff                	0xffff
    20d4:	ffff                	0xffff
    20d6:	ffff                	0xffff
    20d8:	ffff                	0xffff
    20da:	ffff                	0xffff
    20dc:	ffff                	0xffff
    20de:	ffff                	0xffff
    20e0:	ffff                	0xffff
    20e2:	ffff                	0xffff
    20e4:	ffff                	0xffff
    20e6:	ffff                	0xffff
    20e8:	ffff                	0xffff
    20ea:	ffff                	0xffff
    20ec:	ffff                	0xffff
    20ee:	ffff                	0xffff
    20f0:	ffff                	0xffff
    20f2:	ffff                	0xffff
    20f4:	ffff                	0xffff
    20f6:	ffff                	0xffff
    20f8:	ffff                	0xffff
    20fa:	ffff                	0xffff
    20fc:	ffff                	0xffff
    20fe:	ffff                	0xffff
    2100:	ffff                	0xffff
    2102:	ffff                	0xffff
    2104:	ffff                	0xffff
    2106:	ffff                	0xffff
    2108:	ffff                	0xffff
    210a:	ffff                	0xffff
    210c:	ffff                	0xffff
    210e:	ffff                	0xffff
    2110:	ffff                	0xffff
    2112:	ffff                	0xffff
    2114:	ffff                	0xffff
    2116:	ffff                	0xffff
    2118:	ffff                	0xffff
    211a:	ffff                	0xffff
    211c:	ffff                	0xffff
    211e:	ffff                	0xffff
    2120:	ffff                	0xffff
    2122:	ffff                	0xffff
    2124:	ffff                	0xffff
    2126:	ffff                	0xffff
    2128:	ffff                	0xffff
    212a:	ffff                	0xffff
    212c:	ffff                	0xffff
    212e:	ffff                	0xffff
    2130:	ffff                	0xffff
    2132:	ffff                	0xffff
    2134:	ffff                	0xffff
    2136:	ffff                	0xffff
    2138:	ffff                	0xffff
    213a:	ffff                	0xffff
    213c:	ffff                	0xffff
    213e:	ffff                	0xffff
    2140:	ffff                	0xffff
    2142:	ffff                	0xffff
    2144:	ffff                	0xffff
    2146:	ffff                	0xffff
    2148:	ffff                	0xffff
    214a:	ffff                	0xffff
    214c:	ffff                	0xffff
    214e:	ffff                	0xffff
    2150:	ffff                	0xffff
    2152:	ffff                	0xffff
    2154:	ffff                	0xffff
    2156:	ffff                	0xffff
    2158:	ffff                	0xffff
    215a:	ffff                	0xffff
    215c:	ffff                	0xffff
    215e:	ffff                	0xffff
    2160:	ffff                	0xffff
    2162:	ffff                	0xffff
    2164:	ffff                	0xffff
    2166:	ffff                	0xffff
    2168:	ffff                	0xffff
    216a:	ffff                	0xffff
    216c:	ffff                	0xffff
    216e:	ffff                	0xffff
    2170:	ffff                	0xffff
    2172:	ffff                	0xffff
    2174:	ffff                	0xffff
    2176:	ffff                	0xffff
    2178:	ffff                	0xffff
    217a:	ffff                	0xffff
    217c:	ffff                	0xffff
    217e:	ffff                	0xffff
    2180:	ffff                	0xffff
    2182:	ffff                	0xffff
    2184:	ffff                	0xffff
    2186:	ffff                	0xffff
    2188:	ffff                	0xffff
    218a:	ffff                	0xffff
    218c:	ffff                	0xffff
    218e:	ffff                	0xffff
    2190:	ffff                	0xffff
    2192:	ffff                	0xffff
    2194:	ffff                	0xffff
    2196:	ffff                	0xffff
    2198:	ffff                	0xffff
    219a:	ffff                	0xffff
    219c:	ffff                	0xffff
    219e:	ffff                	0xffff
    21a0:	ffff                	0xffff
    21a2:	ffff                	0xffff
    21a4:	ffff                	0xffff
    21a6:	ffff                	0xffff
    21a8:	ffff                	0xffff
    21aa:	ffff                	0xffff
    21ac:	ffff                	0xffff
    21ae:	ffff                	0xffff
    21b0:	ffff                	0xffff
    21b2:	ffff                	0xffff
    21b4:	ffff                	0xffff
    21b6:	ffff                	0xffff
    21b8:	ffff                	0xffff
    21ba:	ffff                	0xffff
    21bc:	ffff                	0xffff
    21be:	ffff                	0xffff
    21c0:	ffff                	0xffff
    21c2:	ffff                	0xffff
    21c4:	ffff                	0xffff
    21c6:	ffff                	0xffff
    21c8:	ffff                	0xffff
    21ca:	ffff                	0xffff
    21cc:	ffff                	0xffff
    21ce:	ffff                	0xffff
    21d0:	ffff                	0xffff
    21d2:	ffff                	0xffff
    21d4:	ffff                	0xffff
    21d6:	ffff                	0xffff
    21d8:	ffff                	0xffff
    21da:	ffff                	0xffff
    21dc:	ffff                	0xffff
    21de:	ffff                	0xffff
    21e0:	ffff                	0xffff
    21e2:	ffff                	0xffff
    21e4:	ffff                	0xffff
    21e6:	ffff                	0xffff
    21e8:	ffff                	0xffff
    21ea:	ffff                	0xffff
    21ec:	ffff                	0xffff
    21ee:	ffff                	0xffff
    21f0:	ffff                	0xffff
    21f2:	ffff                	0xffff
    21f4:	ffff                	0xffff
    21f6:	ffff                	0xffff

Disassembly of section .comment:

00000000 <.comment>:
   0:	3a434347          	fmsub.d	ft6,ft6,ft4,ft7,rmm
   4:	2820                	fld	fs0,80(s0)
   6:	29554e47          	fmsub.s	ft8,fa0,fs5,ft5,rmm
   a:	3720                	fld	fs0,104(a4)
   c:	322e                	fld	ft4,232(sp)
   e:	302e                	fld	ft0,232(sp)
  10:	00              	Address 0x0000000000000010 is out of bounds.

