
multiply.riscv:     file format elf32-littleriscv


Disassembly of section .text:

00000000 <_start>:
   0:	00000093          	li	ra,0
   4:	00000113          	li	sp,0
   8:	00000193          	li	gp,0
   c:	00000213          	li	tp,0
  10:	00000293          	li	t0,0
  14:	00000313          	li	t1,0
  18:	00000393          	li	t2,0
  1c:	00000413          	li	s0,0
  20:	00000493          	li	s1,0
  24:	00000513          	li	a0,0
  28:	00000593          	li	a1,0
  2c:	00000613          	li	a2,0
  30:	00000693          	li	a3,0
  34:	00000713          	li	a4,0
  38:	00000793          	li	a5,0
  3c:	00000813          	li	a6,0
  40:	00000893          	li	a7,0
  44:	00000913          	li	s2,0
  48:	00000993          	li	s3,0
  4c:	00000a13          	li	s4,0
  50:	00000a93          	li	s5,0
  54:	00000b13          	li	s6,0
  58:	00000b93          	li	s7,0
  5c:	00000c13          	li	s8,0
  60:	00000c93          	li	s9,0
  64:	00000d13          	li	s10,0
  68:	00000d93          	li	s11,0
  6c:	00000e13          	li	t3,0
  70:	00000e93          	li	t4,0
  74:	00000f13          	li	t5,0
  78:	00000f93          	li	t6,0
  7c:	00002117          	auipc	sp,0x2
  80:	9dc10113          	addi	sp,sp,-1572 # 1a58 <STACK>
  84:	21c000ef          	jal	ra,2a0 <main>
  88:	3040006f          	j	38c <end>

0000008c <multiply>:
  8c:	00050693          	mv	a3,a0
  90:	02000713          	li	a4,32
  94:	00000513          	li	a0,0
  98:	0016f793          	andi	a5,a3,1
  9c:	fff70713          	addi	a4,a4,-1
  a0:	00078463          	beqz	a5,a8 <multiply+0x1c>
  a4:	00b50533          	add	a0,a0,a1
  a8:	4016d693          	srai	a3,a3,0x1
  ac:	00159593          	slli	a1,a1,0x1
  b0:	fe0714e3          	bnez	a4,98 <multiply+0xc>
  b4:	00008067          	ret

000000b8 <setStats>:
  b8:	00008067          	ret

000000bc <memcpy>:
  bc:	00c5e7b3          	or	a5,a1,a2
  c0:	00f567b3          	or	a5,a0,a5
  c4:	0037f793          	andi	a5,a5,3
  c8:	00c506b3          	add	a3,a0,a2
  cc:	02078463          	beqz	a5,f4 <memcpy+0x38>
  d0:	00c58633          	add	a2,a1,a2
  d4:	00050793          	mv	a5,a0
  d8:	02d57e63          	bleu	a3,a0,114 <memcpy+0x58>
  dc:	00158593          	addi	a1,a1,1
  e0:	fff5c703          	lbu	a4,-1(a1)
  e4:	00178793          	addi	a5,a5,1
  e8:	fee78fa3          	sb	a4,-1(a5)
  ec:	feb618e3          	bne	a2,a1,dc <memcpy+0x20>
  f0:	00008067          	ret
  f4:	fed57ee3          	bleu	a3,a0,f0 <memcpy+0x34>
  f8:	00050793          	mv	a5,a0
  fc:	00458593          	addi	a1,a1,4
 100:	ffc5a703          	lw	a4,-4(a1)
 104:	00478793          	addi	a5,a5,4
 108:	fee7ae23          	sw	a4,-4(a5)
 10c:	fed7e8e3          	bltu	a5,a3,fc <memcpy+0x40>
 110:	00008067          	ret
 114:	00008067          	ret

00000118 <memset>:
 118:	00c567b3          	or	a5,a0,a2
 11c:	0037f793          	andi	a5,a5,3
 120:	00c50633          	add	a2,a0,a2
 124:	02078063          	beqz	a5,144 <memset+0x2c>
 128:	0ff5f593          	andi	a1,a1,255
 12c:	00050793          	mv	a5,a0
 130:	04c57063          	bleu	a2,a0,170 <memset+0x58>
 134:	00178793          	addi	a5,a5,1
 138:	feb78fa3          	sb	a1,-1(a5)
 13c:	fef61ce3          	bne	a2,a5,134 <memset+0x1c>
 140:	00008067          	ret
 144:	0ff5f593          	andi	a1,a1,255
 148:	00859793          	slli	a5,a1,0x8
 14c:	00b7e7b3          	or	a5,a5,a1
 150:	01079593          	slli	a1,a5,0x10
 154:	00f5e5b3          	or	a1,a1,a5
 158:	fec574e3          	bleu	a2,a0,140 <memset+0x28>
 15c:	00050793          	mv	a5,a0
 160:	00478793          	addi	a5,a5,4
 164:	feb7ae23          	sw	a1,-4(a5)
 168:	fec7ece3          	bltu	a5,a2,160 <memset+0x48>
 16c:	00008067          	ret
 170:	00008067          	ret

00000174 <strlen>:
 174:	00054783          	lbu	a5,0(a0)
 178:	00050713          	mv	a4,a0
 17c:	00078c63          	beqz	a5,194 <strlen+0x20>
 180:	00150513          	addi	a0,a0,1
 184:	00054783          	lbu	a5,0(a0)
 188:	fe079ce3          	bnez	a5,180 <strlen+0xc>
 18c:	40e50533          	sub	a0,a0,a4
 190:	00008067          	ret
 194:	00000513          	li	a0,0
 198:	00008067          	ret

0000019c <strnlen>:
 19c:	00050713          	mv	a4,a0
 1a0:	02058663          	beqz	a1,1cc <strnlen+0x30>
 1a4:	00054783          	lbu	a5,0(a0)
 1a8:	02078263          	beqz	a5,1cc <strnlen+0x30>
 1ac:	00b505b3          	add	a1,a0,a1
 1b0:	00c0006f          	j	1bc <strnlen+0x20>
 1b4:	00054783          	lbu	a5,0(a0)
 1b8:	00078663          	beqz	a5,1c4 <strnlen+0x28>
 1bc:	00150513          	addi	a0,a0,1
 1c0:	feb51ae3          	bne	a0,a1,1b4 <strnlen+0x18>
 1c4:	40e50533          	sub	a0,a0,a4
 1c8:	00008067          	ret
 1cc:	00000513          	li	a0,0
 1d0:	00008067          	ret

000001d4 <strcmp>:
 1d4:	00150513          	addi	a0,a0,1
 1d8:	fff54783          	lbu	a5,-1(a0)
 1dc:	00158593          	addi	a1,a1,1
 1e0:	fff5c703          	lbu	a4,-1(a1)
 1e4:	00078863          	beqz	a5,1f4 <strcmp+0x20>
 1e8:	fee786e3          	beq	a5,a4,1d4 <strcmp>
 1ec:	40e78533          	sub	a0,a5,a4
 1f0:	00008067          	ret
 1f4:	00000793          	li	a5,0
 1f8:	ff5ff06f          	j	1ec <strcmp+0x18>

000001fc <strcpy>:
 1fc:	00050793          	mv	a5,a0
 200:	00158593          	addi	a1,a1,1
 204:	fff5c703          	lbu	a4,-1(a1)
 208:	00178793          	addi	a5,a5,1
 20c:	fee78fa3          	sb	a4,-1(a5)
 210:	fe0718e3          	bnez	a4,200 <strcpy+0x4>
 214:	00008067          	ret

00000218 <atol>:
 218:	00054783          	lbu	a5,0(a0)
 21c:	02000713          	li	a4,32
 220:	00e79863          	bne	a5,a4,230 <atol+0x18>
 224:	00150513          	addi	a0,a0,1
 228:	00054783          	lbu	a5,0(a0)
 22c:	fee78ce3          	beq	a5,a4,224 <atol+0xc>
 230:	fd578713          	addi	a4,a5,-43
 234:	0fd77713          	andi	a4,a4,253
 238:	04070263          	beqz	a4,27c <atol+0x64>
 23c:	00054683          	lbu	a3,0(a0)
 240:	00050793          	mv	a5,a0
 244:	00000613          	li	a2,0
 248:	04068863          	beqz	a3,298 <atol+0x80>
 24c:	00000513          	li	a0,0
 250:	00178793          	addi	a5,a5,1
 254:	fd068593          	addi	a1,a3,-48
 258:	00251713          	slli	a4,a0,0x2
 25c:	0007c683          	lbu	a3,0(a5)
 260:	00a70533          	add	a0,a4,a0
 264:	00151513          	slli	a0,a0,0x1
 268:	00a58533          	add	a0,a1,a0
 26c:	fe0692e3          	bnez	a3,250 <atol+0x38>
 270:	00060463          	beqz	a2,278 <atol+0x60>
 274:	40a00533          	neg	a0,a0
 278:	00008067          	ret
 27c:	00154683          	lbu	a3,1(a0)
 280:	fd378793          	addi	a5,a5,-45
 284:	0017b613          	seqz	a2,a5
 288:	00150793          	addi	a5,a0,1
 28c:	fc0690e3          	bnez	a3,24c <atol+0x34>
 290:	00000513          	li	a0,0
 294:	fddff06f          	j	270 <atol+0x58>
 298:	00000513          	li	a0,0
 29c:	00008067          	ret

000002a0 <main>:
 2a0:	e5010113          	addi	sp,sp,-432
 2a4:	1a912223          	sw	s1,420(sp)
 2a8:	1b212023          	sw	s2,416(sp)
 2ac:	19612823          	sw	s6,400(sp)
 2b0:	63800913          	li	s2,1592
 2b4:	4a800493          	li	s1,1192
 2b8:	00010b13          	mv	s6,sp
 2bc:	1a812423          	sw	s0,424(sp)
 2c0:	19312e23          	sw	s3,412(sp)
 2c4:	19412c23          	sw	s4,408(sp)
 2c8:	19512a23          	sw	s5,404(sp)
 2cc:	1a112623          	sw	ra,428(sp)
 2d0:	00090a93          	mv	s5,s2
 2d4:	000b0a13          	mv	s4,s6
 2d8:	00090993          	mv	s3,s2
 2dc:	00048413          	mv	s0,s1
 2e0:	0009a583          	lw	a1,0(s3)
 2e4:	00042503          	lw	a0,0(s0)
 2e8:	00440413          	addi	s0,s0,4
 2ec:	00498993          	addi	s3,s3,4
 2f0:	d9dff0ef          	jal	ra,8c <multiply>
 2f4:	00aa2023          	sw	a0,0(s4)
 2f8:	004a0a13          	addi	s4,s4,4
 2fc:	ff5412e3          	bne	s0,s5,2e0 <main+0x40>
 300:	000b0993          	mv	s3,s6
 304:	00092583          	lw	a1,0(s2)
 308:	0004a503          	lw	a0,0(s1)
 30c:	00448493          	addi	s1,s1,4
 310:	00490913          	addi	s2,s2,4
 314:	d79ff0ef          	jal	ra,8c <multiply>
 318:	00a9a023          	sw	a0,0(s3)
 31c:	00498993          	addi	s3,s3,4
 320:	fe8492e3          	bne	s1,s0,304 <main+0x64>
 324:	7c800793          	li	a5,1992
 328:	00000513          	li	a0,0
 32c:	06400813          	li	a6,100
 330:	000b2683          	lw	a3,0(s6)
 334:	0007a703          	lw	a4,0(a5)
 338:	004b2583          	lw	a1,4(s6)
 33c:	0047a603          	lw	a2,4(a5)
 340:	04e69263          	bne	a3,a4,384 <main+0xe4>
 344:	00250513          	addi	a0,a0,2
 348:	00c59a63          	bne	a1,a2,35c <main+0xbc>
 34c:	008b0b13          	addi	s6,s6,8
 350:	00878793          	addi	a5,a5,8
 354:	fd051ee3          	bne	a0,a6,330 <main+0x90>
 358:	00000513          	li	a0,0
 35c:	1ac12083          	lw	ra,428(sp)
 360:	1a812403          	lw	s0,424(sp)
 364:	1a412483          	lw	s1,420(sp)
 368:	1a012903          	lw	s2,416(sp)
 36c:	19c12983          	lw	s3,412(sp)
 370:	19812a03          	lw	s4,408(sp)
 374:	19412a83          	lw	s5,404(sp)
 378:	19012b03          	lw	s6,400(sp)
 37c:	1b010113          	addi	sp,sp,432
 380:	00008067          	ret
 384:	00150513          	addi	a0,a0,1
 388:	fd5ff06f          	j	35c <main+0xbc>

0000038c <end>:
 38c:	00000013          	nop
 390:	00000013          	nop
 394:	00000013          	nop
 398:	00000013          	nop
 39c:	00000013          	nop
 3a0:	00000013          	nop

000003a4 <_last>:
 3a4:	fe9ff06f          	j	38c <end>
