
multiply.riscv:     file format elf32-littleriscv


Disassembly of section .text:

00000000 <_start>:
   0:	00000093          	li	ra,0
   4:	00000113          	li	sp,0
   8:	00000193          	li	gp,0
   c:	00000213          	li	tp,0
  10:	00000293          	li	t0,0
  14:	00000313          	li	t1,0
  18:	00000393          	li	t2,0
  1c:	00000413          	li	s0,0
  20:	00000493          	li	s1,0
  24:	00000513          	li	a0,0
  28:	00000593          	li	a1,0
  2c:	00000613          	li	a2,0
  30:	00000693          	li	a3,0
  34:	00000713          	li	a4,0
  38:	00000793          	li	a5,0
  3c:	00000813          	li	a6,0
  40:	00000893          	li	a7,0
  44:	00000913          	li	s2,0
  48:	00000993          	li	s3,0
  4c:	00000a13          	li	s4,0
  50:	00000a93          	li	s5,0
  54:	00000b13          	li	s6,0
  58:	00000b93          	li	s7,0
  5c:	00000c13          	li	s8,0
  60:	00000c93          	li	s9,0
  64:	00000d13          	li	s10,0
  68:	00000d93          	li	s11,0
  6c:	00000e13          	li	t3,0
  70:	00000e93          	li	t4,0
  74:	00000f13          	li	t5,0
  78:	00000f93          	li	t6,0
  7c:	00002117          	auipc	sp,0x2
  80:	9dc10113          	addi	sp,sp,-1572 # 1a58 <STACK>
  84:	21c000ef          	jal	ra,2a0 <main>
  88:	3040006f          	j	38c <end>

0000008c <multiply>:
  8c:	00050693          	mv	a3,a0
  90:	02000713          	li	a4,32
  94:	00000513          	li	a0,0
  98:	0016f793          	andi	a5,a3,1
  9c:	fff70713          	addi	a4,a4,-1
  a0:	00078463          	beqz	a5,a8 <multiply+0x1c>
  a4:	00b50533          	add	a0,a0,a1
  a8:	4016d693          	srai	a3,a3,0x1
  ac:	00159593          	slli	a1,a1,0x1
  b0:	fe0714e3          	bnez	a4,98 <multiply+0xc>
  b4:	00008067          	ret

000000b8 <setStats>:
  b8:	00008067          	ret

000000bc <memcpy>:
  bc:	00c5e7b3          	or	a5,a1,a2
  c0:	00f567b3          	or	a5,a0,a5
  c4:	0037f793          	andi	a5,a5,3
  c8:	00c506b3          	add	a3,a0,a2
  cc:	02078463          	beqz	a5,f4 <memcpy+0x38>
  d0:	00c58633          	add	a2,a1,a2
  d4:	00050793          	mv	a5,a0
  d8:	02d57e63          	bleu	a3,a0,114 <memcpy+0x58>
  dc:	00158593          	addi	a1,a1,1
  e0:	fff5c703          	lbu	a4,-1(a1)
  e4:	00178793          	addi	a5,a5,1
  e8:	fee78fa3          	sb	a4,-1(a5)
  ec:	feb618e3          	bne	a2,a1,dc <memcpy+0x20>
  f0:	00008067          	ret
  f4:	fed57ee3          	bleu	a3,a0,f0 <memcpy+0x34>
  f8:	00050793          	mv	a5,a0
  fc:	00458593          	addi	a1,a1,4
 100:	ffc5a703          	lw	a4,-4(a1)
 104:	00478793          	addi	a5,a5,4
 108:	fee7ae23          	sw	a4,-4(a5)
 10c:	fed7e8e3          	bltu	a5,a3,fc <memcpy+0x40>
 110:	00008067          	ret
 114:	00008067          	ret

00000118 <memset>:
 118:	00c567b3          	or	a5,a0,a2
 11c:	0037f793          	andi	a5,a5,3
 120:	00c50633          	add	a2,a0,a2
 124:	02078063          	beqz	a5,144 <memset+0x2c>
 128:	0ff5f593          	andi	a1,a1,255
 12c:	00050793          	mv	a5,a0
 130:	04c57063          	bleu	a2,a0,170 <memset+0x58>
 134:	00178793          	addi	a5,a5,1
 138:	feb78fa3          	sb	a1,-1(a5)
 13c:	fef61ce3          	bne	a2,a5,134 <memset+0x1c>
 140:	00008067          	ret
 144:	0ff5f593          	andi	a1,a1,255
 148:	00859793          	slli	a5,a1,0x8
 14c:	00b7e7b3          	or	a5,a5,a1
 150:	01079593          	slli	a1,a5,0x10
 154:	00f5e5b3          	or	a1,a1,a5
 158:	fec574e3          	bleu	a2,a0,140 <memset+0x28>
 15c:	00050793          	mv	a5,a0
 160:	00478793          	addi	a5,a5,4
 164:	feb7ae23          	sw	a1,-4(a5)
 168:	fec7ece3          	bltu	a5,a2,160 <memset+0x48>
 16c:	00008067          	ret
 170:	00008067          	ret

00000174 <strlen>:
 174:	00054783          	lbu	a5,0(a0)
 178:	00050713          	mv	a4,a0
 17c:	00078c63          	beqz	a5,194 <strlen+0x20>
 180:	00150513          	addi	a0,a0,1
 184:	00054783          	lbu	a5,0(a0)
 188:	fe079ce3          	bnez	a5,180 <strlen+0xc>
 18c:	40e50533          	sub	a0,a0,a4
 190:	00008067          	ret
 194:	00000513          	li	a0,0
 198:	00008067          	ret

0000019c <strnlen>:
 19c:	00050713          	mv	a4,a0
 1a0:	02058663          	beqz	a1,1cc <strnlen+0x30>
 1a4:	00054783          	lbu	a5,0(a0)
 1a8:	02078263          	beqz	a5,1cc <strnlen+0x30>
 1ac:	00b505b3          	add	a1,a0,a1
 1b0:	00c0006f          	j	1bc <strnlen+0x20>
 1b4:	00054783          	lbu	a5,0(a0)
 1b8:	00078663          	beqz	a5,1c4 <strnlen+0x28>
 1bc:	00150513          	addi	a0,a0,1
 1c0:	feb51ae3          	bne	a0,a1,1b4 <strnlen+0x18>
 1c4:	40e50533          	sub	a0,a0,a4
 1c8:	00008067          	ret
 1cc:	00000513          	li	a0,0
 1d0:	00008067          	ret

000001d4 <strcmp>:
 1d4:	00150513          	addi	a0,a0,1
 1d8:	fff54783          	lbu	a5,-1(a0)
 1dc:	00158593          	addi	a1,a1,1
 1e0:	fff5c703          	lbu	a4,-1(a1)
 1e4:	00078863          	beqz	a5,1f4 <strcmp+0x20>
 1e8:	fee786e3          	beq	a5,a4,1d4 <strcmp>
 1ec:	40e78533          	sub	a0,a5,a4
 1f0:	00008067          	ret
 1f4:	00000793          	li	a5,0
 1f8:	ff5ff06f          	j	1ec <strcmp+0x18>

000001fc <strcpy>:
 1fc:	00050793          	mv	a5,a0
 200:	00158593          	addi	a1,a1,1
 204:	fff5c703          	lbu	a4,-1(a1)
 208:	00178793          	addi	a5,a5,1
 20c:	fee78fa3          	sb	a4,-1(a5)
 210:	fe0718e3          	bnez	a4,200 <strcpy+0x4>
 214:	00008067          	ret

00000218 <atol>:
 218:	00054783          	lbu	a5,0(a0)
 21c:	02000713          	li	a4,32
 220:	00e79863          	bne	a5,a4,230 <atol+0x18>
 224:	00150513          	addi	a0,a0,1
 228:	00054783          	lbu	a5,0(a0)
 22c:	fee78ce3          	beq	a5,a4,224 <atol+0xc>
 230:	fd578713          	addi	a4,a5,-43
 234:	0fd77713          	andi	a4,a4,253
 238:	04070263          	beqz	a4,27c <atol+0x64>
 23c:	00054683          	lbu	a3,0(a0)
 240:	00050793          	mv	a5,a0
 244:	00000613          	li	a2,0
 248:	04068863          	beqz	a3,298 <atol+0x80>
 24c:	00000513          	li	a0,0
 250:	00178793          	addi	a5,a5,1
 254:	fd068593          	addi	a1,a3,-48
 258:	00251713          	slli	a4,a0,0x2
 25c:	0007c683          	lbu	a3,0(a5)
 260:	00a70533          	add	a0,a4,a0
 264:	00151513          	slli	a0,a0,0x1
 268:	00a58533          	add	a0,a1,a0
 26c:	fe0692e3          	bnez	a3,250 <atol+0x38>
 270:	00060463          	beqz	a2,278 <atol+0x60>
 274:	40a00533          	neg	a0,a0
 278:	00008067          	ret
 27c:	00154683          	lbu	a3,1(a0)
 280:	fd378793          	addi	a5,a5,-45
 284:	0017b613          	seqz	a2,a5
 288:	00150793          	addi	a5,a0,1
 28c:	fc0690e3          	bnez	a3,24c <atol+0x34>
 290:	00000513          	li	a0,0
 294:	fddff06f          	j	270 <atol+0x58>
 298:	00000513          	li	a0,0
 29c:	00008067          	ret

000002a0 <main>:
 2a0:	e5010113          	addi	sp,sp,-432
 2a4:	1a912223          	sw	s1,420(sp)
 2a8:	1b212023          	sw	s2,416(sp)
 2ac:	19612823          	sw	s6,400(sp)
 2b0:	63800913          	li	s2,1592
 2b4:	4a800493          	li	s1,1192
 2b8:	00010b13          	mv	s6,sp
 2bc:	1a812423          	sw	s0,424(sp)
 2c0:	19312e23          	sw	s3,412(sp)
 2c4:	19412c23          	sw	s4,408(sp)
 2c8:	19512a23          	sw	s5,404(sp)
 2cc:	1a112623          	sw	ra,428(sp)
 2d0:	00090a93          	mv	s5,s2
 2d4:	000b0a13          	mv	s4,s6
 2d8:	00090993          	mv	s3,s2
 2dc:	00048413          	mv	s0,s1
 2e0:	0009a583          	lw	a1,0(s3)
 2e4:	00042503          	lw	a0,0(s0)
 2e8:	00440413          	addi	s0,s0,4
 2ec:	00498993          	addi	s3,s3,4
 2f0:	d9dff0ef          	jal	ra,8c <multiply>
 2f4:	00aa2023          	sw	a0,0(s4)
 2f8:	004a0a13          	addi	s4,s4,4
 2fc:	ff5412e3          	bne	s0,s5,2e0 <main+0x40>
 300:	000b0993          	mv	s3,s6
 304:	00092583          	lw	a1,0(s2)
 308:	0004a503          	lw	a0,0(s1)
 30c:	00448493          	addi	s1,s1,4
 310:	00490913          	addi	s2,s2,4
 314:	d79ff0ef          	jal	ra,8c <multiply>
 318:	00a9a023          	sw	a0,0(s3)
 31c:	00498993          	addi	s3,s3,4
 320:	fe8492e3          	bne	s1,s0,304 <main+0x64>
 324:	7c800793          	li	a5,1992
 328:	00000513          	li	a0,0
 32c:	06400813          	li	a6,100
 330:	000b2683          	lw	a3,0(s6)
 334:	0007a703          	lw	a4,0(a5)
 338:	004b2583          	lw	a1,4(s6)
 33c:	0047a603          	lw	a2,4(a5)
 340:	04e69263          	bne	a3,a4,384 <main+0xe4>
 344:	00250513          	addi	a0,a0,2
 348:	00c59a63          	bne	a1,a2,35c <main+0xbc>
 34c:	008b0b13          	addi	s6,s6,8
 350:	00878793          	addi	a5,a5,8
 354:	fd051ee3          	bne	a0,a6,330 <main+0x90>
 358:	00000513          	li	a0,0
 35c:	1ac12083          	lw	ra,428(sp)
 360:	1a812403          	lw	s0,424(sp)
 364:	1a412483          	lw	s1,420(sp)
 368:	1a012903          	lw	s2,416(sp)
 36c:	19c12983          	lw	s3,412(sp)
 370:	19812a03          	lw	s4,408(sp)
 374:	19412a83          	lw	s5,404(sp)
 378:	19012b03          	lw	s6,400(sp)
 37c:	1b010113          	addi	sp,sp,432
 380:	00008067          	ret
 384:	00150513          	addi	a0,a0,1
 388:	fd5ff06f          	j	35c <main+0xbc>

0000038c <end>:
 38c:	00000013          	nop
 390:	00000013          	nop
 394:	00000013          	nop
 398:	00000013          	nop
 39c:	00000013          	nop
 3a0:	00000013          	nop

000003a4 <_last>:
 3a4:	fe9ff06f          	j	38c <end>

Disassembly of section .data:

000004a8 <input_data1>:
     4a8:	0029                	c.nop	10
     4aa:	0000                	unimp
     4ac:	01c6                	slli	gp,gp,0x11
     4ae:	0000                	unimp
     4b0:	0341                	addi	t1,t1,16
     4b2:	0000                	unimp
     4b4:	0000014f          	fnmadd.s	ft2,ft0,ft0,ft0,rne
     4b8:	0234                	addi	a3,sp,264
     4ba:	0000                	unimp
     4bc:	0001                	nop
     4be:	0000                	unimp
     4c0:	000000bb          	0xbb
     4c4:	03dd                	addi	t2,t2,23
     4c6:	0000                	unimp
     4c8:	02ed                	addi	t0,t0,27
     4ca:	0000                	unimp
     4cc:	016d                	addi	sp,sp,27
     4ce:	0000                	unimp
     4d0:	015e                	slli	sp,sp,0x17
     4d2:	0000                	unimp
     4d4:	023c                	addi	a5,sp,264
     4d6:	0000                	unimp
     4d8:	0084                	addi	s1,sp,64
     4da:	0000                	unimp
     4dc:	0040                	addi	s0,sp,4
     4de:	0000                	unimp
     4e0:	03b5                	addi	t2,t2,13
     4e2:	0000                	unimp
     4e4:	0099                	addi	ra,ra,6
     4e6:	0000                	unimp
     4e8:	0248                	addi	a0,sp,260
     4ea:	0000                	unimp
     4ec:	00d8                	addi	a4,sp,68
     4ee:	0000                	unimp
     4f0:	0325                	addi	t1,t1,9
     4f2:	0000                	unimp
     4f4:	008c                	addi	a1,sp,64
     4f6:	0000                	unimp
     4f8:	026d                	addi	tp,tp,27
     4fa:	0000                	unimp
     4fc:	00d2                	slli	ra,ra,0x14
     4fe:	0000                	unimp
     500:	0006                	c.slli	zero,0x1
     502:	0000                	unimp
     504:	023c                	addi	a5,sp,264
     506:	0000                	unimp
     508:	000003a3          	sb	zero,7(zero) # 7 <_start+0x7>
     50c:	00000153          	fadd.s	ft2,ft0,ft0,rne
     510:	037a                	slli	t1,t1,0x1e
     512:	0000                	unimp
     514:	0251                	addi	tp,tp,20
     516:	0000                	unimp
     518:	0188                	addi	a0,sp,192
     51a:	0000                	unimp
     51c:	0382                	slli	t2,t2,0x0
     51e:	0000                	unimp
     520:	02b6                	slli	t0,t0,0xd
     522:	0000                	unimp
     524:	00e4                	addi	s1,sp,76
     526:	0000                	unimp
     528:	03c1                	addi	t2,t2,16
     52a:	0000                	unimp
     52c:	000c                	0xc
     52e:	0000                	unimp
     530:	006e                	c.slli	zero,0x1b
     532:	0000                	unimp
     534:	00000373          	0x373
     538:	0074                	addi	a3,sp,12
     53a:	0000                	unimp
     53c:	02ee                	slli	t0,t0,0x1b
     53e:	0000                	unimp
     540:	0128                	addi	a0,sp,136
     542:	0000                	unimp
     544:	0286                	slli	t0,t0,0x1
     546:	0000                	unimp
     548:	01aa                	slli	gp,gp,0xa
     54a:	0000                	unimp
     54c:	01f4                	addi	a3,sp,204
     54e:	0000                	unimp
     550:	013a                	slli	sp,sp,0xe
     552:	0000                	unimp
     554:	01b4                	addi	a3,sp,200
     556:	0000                	unimp
     558:	00000293          	li	t0,0
     55c:	02bd                	addi	t0,t0,15
     55e:	0000                	unimp
     560:	0306                	slli	t1,t1,0x1
     562:	0000                	unimp
     564:	032c                	addi	a1,sp,392
     566:	0000                	unimp
     568:	0000013f 000003d5 	0x3d50000013f
     570:	02a6                	slli	t0,t0,0x9
     572:	0000                	unimp
     574:	0096                	slli	ra,ra,0x5
     576:	0000                	unimp
     578:	0000036b          	0x36b
     57c:	02b8                	addi	a4,sp,328
     57e:	0000                	unimp
     580:	0178                	addi	a4,sp,140
     582:	0000                	unimp
     584:	0234                	addi	a3,sp,264
     586:	0000                	unimp
     588:	01da                	slli	gp,gp,0x16
     58a:	0000                	unimp
     58c:	0110                	addi	a2,sp,128
     58e:	0000                	unimp
     590:	03aa                	slli	t2,t2,0xa
     592:	0000                	unimp
     594:	0102                	slli	sp,sp,0x0
     596:	0000                	unimp
     598:	0000021b          	0x21b
     59c:	00000287          	0x287
     5a0:	0239                	addi	tp,tp,14
     5a2:	0000                	unimp
     5a4:	01fd                	addi	gp,gp,31
     5a6:	0000                	unimp
     5a8:	000000cb          	fnmsub.s	ft1,ft0,ft0,ft0,rne
     5ac:	0058                	addi	a4,sp,4
     5ae:	0000                	unimp
     5b0:	0118                	addi	a4,sp,128
     5b2:	0000                	unimp
     5b4:	000002bf 000002f7 	0x2f7000002bf
     5bc:	029d                	addi	t0,t0,7
     5be:	0000                	unimp
     5c0:	025e                	slli	tp,tp,0x17
     5c2:	0000                	unimp
     5c4:	00000177          	0x177
     5c8:	01ff                	0x1ff
     5ca:	0000                	unimp
     5cc:	00000227          	0x227
     5d0:	0291                	addi	t0,t0,4
     5d2:	0000                	unimp
     5d4:	03a8                	addi	a0,sp,456
     5d6:	0000                	unimp
     5d8:	000000c3          	fmadd.s	ft1,ft0,ft0,ft0,rne
     5dc:	0250                	addi	a2,sp,260
     5de:	0000                	unimp
     5e0:	0051                	c.nop	20
     5e2:	0000                	unimp
     5e4:	0239                	addi	tp,tp,14
     5e6:	0000                	unimp
     5e8:	0000010b          	0x10b
     5ec:	03b8                	addi	a4,sp,456
     5ee:	0000                	unimp
     5f0:	00e5                	addi	ra,ra,25
     5f2:	0000                	unimp
     5f4:	0320                	addi	s0,sp,392
     5f6:	0000                	unimp
     5f8:	0151                	addi	sp,sp,20
     5fa:	0000                	unimp
     5fc:	0248                	addi	a0,sp,260
     5fe:	0000                	unimp
     600:	03b0                	addi	a2,sp,456
     602:	0000                	unimp
     604:	00000283          	lb	t0,0(zero) # 0 <_start>
     608:	0386                	slli	t2,t2,0x1
     60a:	0000                	unimp
     60c:	0170                	addi	a2,sp,140
     60e:	0000                	unimp
     610:	00f1                	addi	ra,ra,28
     612:	0000                	unimp
     614:	01e9                	addi	gp,gp,26
     616:	0000                	unimp
     618:	0391                	addi	t2,t2,4
     61a:	0000                	unimp
     61c:	0148                	addi	a0,sp,132
     61e:	0000                	unimp
     620:	033a                	slli	t1,t1,0xe
     622:	0000                	unimp
     624:	0139                	addi	sp,sp,14
     626:	0000                	unimp
     628:	03a5                	addi	t2,t2,9
     62a:	0000                	unimp
     62c:	0250                	addi	a2,sp,260
     62e:	0000                	unimp
     630:	03d9                	addi	t2,t2,22
     632:	0000                	unimp
     634:	0184                	addi	s1,sp,192
     636:	0000                	unimp

00000638 <input_data2>:
     638:	000000c3          	fmadd.s	ft1,ft0,ft0,ft0,rne
     63c:	021f 0000 03c0      	0x3c00000021f
     642:	0000                	unimp
     644:	0289                	addi	t0,t0,2
     646:	0000                	unimp
     648:	0236                	slli	tp,tp,0xd
     64a:	0000                	unimp
     64c:	000003d3          	fadd.s	ft7,ft0,ft0,rne
     650:	015e                	slli	sp,sp,0x17
     652:	0000                	unimp
     654:	03e5                	addi	t2,t2,25
     656:	0000                	unimp
     658:	0289                	addi	t0,t0,2
     65a:	0000                	unimp
     65c:	032e                	slli	t1,t1,0xb
     65e:	0000                	unimp
     660:	0291                	addi	t0,t0,4
     662:	0000                	unimp
     664:	0000004f          	fnmadd.s	ft0,ft0,ft0,ft0,rne
     668:	00b5                	addi	ra,ra,13
     66a:	0000                	unimp
     66c:	00d0                	addi	a2,sp,68
     66e:	0000                	unimp
     670:	0000006f          	j	670 <input_data2+0x38>
     674:	03e6                	slli	t2,t2,0x19
     676:	0000                	unimp
     678:	0000035b          	0x35b
     67c:	0275                	addi	tp,tp,29
     67e:	0000                	unimp
     680:	0041                	c.nop	16
     682:	0000                	unimp
     684:	0000034f          	fnmadd.s	ft6,ft0,ft0,ft0,rne
     688:	0120                	addi	s0,sp,136
     68a:	0000                	unimp
     68c:	02c0                	addi	s0,sp,324
     68e:	0000                	unimp
     690:	015d                	addi	sp,sp,23
     692:	0000                	unimp
     694:	03e5                	addi	t2,t2,25
     696:	0000                	unimp
     698:	008d                	addi	ra,ra,3
     69a:	0000                	unimp
     69c:	00fd                	addi	ra,ra,31
     69e:	0000                	unimp
     6a0:	0389                	addi	t2,t2,2
     6a2:	0000                	unimp
     6a4:	000002cb          	fnmsub.s	ft5,ft0,ft0,ft0,rne
     6a8:	0376                	slli	t1,t1,0x1d
     6aa:	0000                	unimp
     6ac:	01ae                	slli	gp,gp,0xb
     6ae:	0000                	unimp
     6b0:	0108                	addi	a0,sp,128
     6b2:	0000                	unimp
     6b4:	019f 0000 0240      	0x2400000019f
     6ba:	0000                	unimp
     6bc:	021a                	slli	tp,tp,0x6
     6be:	0000                	unimp
     6c0:	000003d3          	fadd.s	ft7,ft0,ft0,rne
     6c4:	02bc                	addi	a5,sp,328
     6c6:	0000                	unimp
     6c8:	02f9                	addi	t0,t0,30
     6ca:	0000                	unimp
     6cc:	0004                	0x4
     6ce:	0000                	unimp
     6d0:	00f1                	addi	ra,ra,28
     6d2:	0000                	unimp
     6d4:	01ee                	slli	gp,gp,0x1b
     6d6:	0000                	unimp
     6d8:	01de                	slli	gp,gp,0x17
     6da:	0000                	unimp
     6dc:	0064                	addi	s1,sp,12
     6de:	0000                	unimp
     6e0:	000001f3          	0x1f3
     6e4:	0360                	addi	s0,sp,396
     6e6:	0000                	unimp
     6e8:	00000193          	li	gp,0
     6ec:	02b5                	addi	t0,t0,13
     6ee:	0000                	unimp
     6f0:	00de                	slli	ra,ra,0x17
     6f2:	0000                	unimp
     6f4:	01a0                	addi	s0,sp,200
     6f6:	0000                	unimp
     6f8:	01bc                	addi	a5,sp,200
     6fa:	0000                	unimp
     6fc:	0128                	addi	a0,sp,136
     6fe:	0000                	unimp
     700:	02d1                	addi	t0,t0,20
     702:	0000                	unimp
     704:	011d                	addi	sp,sp,7
     706:	0000                	unimp
     708:	02a4                	addi	s1,sp,328
     70a:	0000                	unimp
     70c:	026c                	addi	a1,sp,268
     70e:	0000                	unimp
     710:	013d                	addi	sp,sp,15
     712:	0000                	unimp
     714:	004e                	c.slli	zero,0x13
     716:	0000                	unimp
     718:	00e0                	addi	s0,sp,76
     71a:	0000                	unimp
     71c:	015f 0000 03a9      	0x3a90000015f
     722:	0000                	unimp
     724:	021c                	addi	a5,sp,256
     726:	0000                	unimp
     728:	0120                	addi	s0,sp,136
     72a:	0000                	unimp
     72c:	0286                	slli	t0,t0,0x1
     72e:	0000                	unimp
     730:	00000077          	0x77
     734:	00a9                	addi	ra,ra,10
     736:	0000                	unimp
     738:	00000267          	jalr	tp,zero
     73c:	0000020f          	0x20f
     740:	025e                	slli	tp,tp,0x17
     742:	0000                	unimp
     744:	0121                	addi	sp,sp,8
     746:	0000                	unimp
     748:	0185                	addi	gp,gp,1
     74a:	0000                	unimp
     74c:	031c                	addi	a5,sp,384
     74e:	0000                	unimp
     750:	015f 0000 0321      	0x3210000015f
     756:	0000                	unimp
     758:	000001c7          	fmsub.s	ft3,ft0,ft0,ft0,rne
     75c:	02d0                	addi	a2,sp,324
     75e:	0000                	unimp
     760:	0116                	slli	sp,sp,0x5
     762:	0000                	unimp
     764:	02f6                	slli	t0,t0,0x1d
     766:	0000                	unimp
     768:	0000016f          	jal	sp,768 <input_data2+0x130>
     76c:	02e9                	addi	t0,t0,26
     76e:	0000                	unimp
     770:	0166                	slli	sp,sp,0x19
     772:	0000                	unimp
     774:	005c                	addi	a5,sp,4
     776:	0000                	unimp
     778:	0248                	addi	a0,sp,260
     77a:	0000                	unimp
     77c:	03dd                	addi	t2,t2,23
     77e:	0000                	unimp
     780:	003e                	c.slli	zero,0xf
     782:	0000                	unimp
     784:	0000010f          	0x10f
     788:	03d9                	addi	t2,t2,22
     78a:	0000                	unimp
     78c:	0355                	addi	t1,t1,21
     78e:	0000                	unimp
     790:	00000193          	li	gp,0
     794:	0314                	addi	a3,sp,384
     796:	0000                	unimp
     798:	015a                	slli	sp,sp,0x16
     79a:	0000                	unimp
     79c:	00000213          	li	tp,0
     7a0:	0205                	addi	tp,tp,1
     7a2:	0000                	unimp
     7a4:	00de                	slli	ra,ra,0x17
     7a6:	0000                	unimp
     7a8:	0000022f          	0x22f
     7ac:	01cd                	addi	gp,gp,19
     7ae:	0000                	unimp
     7b0:	038c                	addi	a1,sp,448
     7b2:	0000                	unimp
     7b4:	00f1                	addi	ra,ra,28
     7b6:	0000                	unimp
     7b8:	00000307          	0x307
     7bc:	0166                	slli	sp,sp,0x19
     7be:	0000                	unimp
     7c0:	00ff                	0xff
     7c2:	0000                	unimp
     7c4:	014c                	addi	a1,sp,132
     7c6:	0000                	unimp

000007c8 <verify_data>:
     7c8:	00001f3b          	0x1f3b
     7cc:	c2fa                	sw	t5,68(sp)
     7ce:	33c00003          	lb	zero,828(zero) # 33c <main+0x9c>
     7d2:	000c                	0xc
     7d4:	00035147          	fmsub.s	ft2,ft6,ft0,ft0,unknown
     7d8:	def8                	sw	a4,124(a3)
     7da:	0004                	0x4
     7dc:	000003d3          	fadd.s	ft7,ft0,ft0,rne
     7e0:	ffaa                	fsw	fa0,252(sp)
     7e2:	0000                	unimp
     7e4:	0bb1                	addi	s7,s7,12
     7e6:	6ad5000f          	0x6ad5000f
     7ea:	88960007          	0x88960007
     7ee:	0004                	0x4
     7f0:	823e                	mv	tp,a5
     7f2:	b0840003          	lb	zero,-1272(s0)
     7f6:	0000                	unimp
     7f8:	5d54                	lw	a3,60(a0)
     7fa:	0000                	unimp
     7fc:	3400                	fld	fs0,40(s0)
     7fe:	0000                	unimp
     800:	00019b7b          	0x19b7b
     804:	5476                	lw	s0,124(sp)
     806:	0002                	c.slli	zero,0x0
     808:	a798                	fsd	fa4,8(a5)
     80a:	12b80007          	0x12b80007
     80e:	0002                	c.slli	zero,0x0
     810:	cc65                	beqz	s0,908 <verify_data+0x140>
     812:	0000                	unimp
     814:	cf34                	sw	a3,88(a4)
     816:	0001                	nop
     818:	baa0                	fsd	fs0,112(a3)
     81a:	0002                	c.slli	zero,0x0
     81c:	4180                	lw	s0,0(a1)
     81e:	0002                	c.slli	zero,0x0
     820:	082e                	slli	a6,a6,0xb
     822:	0000                	unimp
     824:	b3ac                	fsd	fa1,96(a5)
     826:	0008                	0x8
     828:	000200c7          	fmsub.s	ft1,ft4,ft0,ft0,rne
     82c:	00014f07          	flq	ft10,0(sp)
     830:	4a4a                	lw	s4,144(sp)
     832:	000c                	0xc
     834:	0006783b          	0x6783b
     838:	4cb0                	lw	a2,88(s1)
     83a:	0005                	c.nop	1
     83c:	e45c                	fsw	fa5,12(s0)
     83e:	0005                	c.nop	1
     840:	cbb0                	sw	a2,80(a5)
     842:	0002                	c.slli	zero,0x0
     844:	719c                	flw	fa5,32(a1)
     846:	0001                	nop
     848:	7240                	flw	fs0,36(a2)
     84a:	0008                	0x8
     84c:	1938                	addi	a4,sp,184
     84e:	0000                	unimp
     850:	a4aa                	fsd	fa0,72(sp)
     852:	0001                	nop
     854:	6e74                	flw	fa3,92(a2)
     856:	0009                	c.nop	2
     858:	58d4                	lw	a3,52(s1)
     85a:	0001                	nop
     85c:	0bb8                	addi	a4,sp,472
     85e:	0000                	unimp
     860:	16a8                	addi	a0,sp,872
     862:	0001                	nop
     864:	de94                	sw	a3,56(a3)
     866:	0004                	0x4
     868:	1b6c                	addi	a1,sp,444
     86a:	c3500003          	lb	zero,-971(zero) # fffffc35 <STACK+0xffffe1dd>
     86e:	0000                	unimp
     870:	640e                	flw	fs0,192(sp)
     872:	0002                	c.slli	zero,0x0
     874:	bf80                	fsd	fs0,56(a5)
     876:	0005                	c.nop	1
     878:	0d69                	addi	s10,s10,26
     87a:	0004                	0x4
     87c:	69a1                	lui	s3,0x8
     87e:	9f340007          	0x9f340007
     882:	0002                	c.slli	zero,0x0
     884:	2780                	fld	fs0,8(a5)
     886:	0005                	c.nop	1
     888:	2944                	fld	fs1,144(a0)
     88a:	0002                	c.slli	zero,0x0
     88c:	6e48                	flw	fa0,28(a2)
     88e:	0004                	0x4
     890:	7586                	flw	fa1,96(sp)
     892:	a6fe0007          	0xa6fe0007
     896:	0000                	unimp
     898:	068c                	addi	a1,sp,832
     89a:	0009                	c.nop	2
     89c:	95a0                	0x95a0
     89e:	0006                	c.slli	zero,0x1
     8a0:	d198                	sw	a4,32(a1)
     8a2:	0001                	nop
     8a4:	abd8                	fsd	fa4,144(a5)
     8a6:	0000                	unimp
     8a8:	9ec0                	0x9ec0
     8aa:	0001                	nop
     8ac:	74f0                	flw	fa2,108(s1)
     8ae:	0001                	nop
     8b0:	693a                	flw	fs2,140(sp)
     8b2:	000d                	c.nop	3
     8b4:	2038                	fld	fa4,64(s0)
     8b6:	0002                	c.slli	zero,0x0
     8b8:	5e60                	lw	s0,124(a2)
     8ba:	0002                	c.slli	zero,0x0
     8bc:	60aa                	flw	ft1,136(sp)
     8be:	0006                	c.slli	zero,0x1
     8c0:	087f                	0x87f
     8c2:	0001                	nop
     8c4:	5005                	c.li	zero,-31
     8c6:	0001                	nop
     8c8:	e7ad                	bnez	a5,932 <verify_data+0x16a>
     8ca:	0001                	nop
     8cc:	b528                	fsd	fa0,104(a0)
     8ce:	0000                	unimp
     8d0:	96d0                	0x96d0
     8d2:	0002                	c.slli	zero,0x0
     8d4:	199f 0003 8153      	0x81530003199f
     8da:	0004                	0x4
     8dc:	202c                	fld	fa1,64(s0)
     8de:	0008                	0x8
     8e0:	3ee2                	fld	ft9,56(sp)
     8e2:	95570003          	lb	zero,-1707(a4)
     8e6:	0004                	0x4
     8e8:	8c39                	xor	s0,s0,a4
     8ea:	0db00003          	lb	zero,219(zero) # db <memcpy+0x1f>
     8ee:	0006                	c.slli	zero,0x1
     8f0:	c976                	sw	t4,144(sp)
     8f2:	0002                	c.slli	zero,0x0
     8f4:	d370                	sw	a2,100(a4)
     8f6:	000a                	c.slli	zero,0x2
     8f8:	178d                	addi	a5,a5,-29
     8fa:	0001                	nop
     8fc:	bad0                	fsd	fa2,176(a3)
     8fe:	0006                	c.slli	zero,0x1
     900:	7146                	flw	ft2,112(sp)
     902:	0000                	unimp
     904:	cc7c                	sw	a5,92(s0)
     906:	0000                	unimp
     908:	6118                	flw	fa4,0(a0)
     90a:	0002                	c.slli	zero,0x0
     90c:	5dd8                	lw	a4,60(a1)
     90e:	000e                	c.slli	zero,0x3
     910:	3776                	fld	fa4,376(sp)
     912:	0000                	unimp
     914:	4ee0                	lw	s0,92(a3)
     916:	10a90003          	lb	zero,266(s2)
     91a:	0005                	c.nop	1
     91c:	99e8                	0x99e8
     91e:	ce100007          	0xce100007
     922:	0005                	c.nop	1
     924:	bb3c                	fsd	fa5,112(a4)
     926:	c31c0007          	0xc31c0007
     92a:	0004                	0x4
     92c:	fb50                	fsw	fa2,52(a4)
     92e:	0002                	c.slli	zero,0x0
     930:	e6b5                	bnez	a3,99c <verify_data+0x1d4>
     932:	0001                	nop
     934:	a80e                	fsd	ft3,16(sp)
     936:	0001                	nop
     938:	c99f 0007 4ea8      	0x4ea80007c99f
     93e:	0002                	c.slli	zero,0x0
     940:	71b8                	flw	fa4,96(a1)
     942:	26a9000b          	0x26a9000b
     946:	0001                	nop
     948:	000b0883          	lb	a7,0(s6)
     94c:	3be0                	fld	fs0,240(a5)
     94e:	d5270003          	lb	zero,-686(a4)
     952:	f7300003          	lb	zero,-141(zero) # ffffff73 <STACK+0xffffe51b>
     956:	0001                	nop
     958:	0000                	unimp
     95a:	0000                	unimp
     95c:	0000                	unimp
     95e:	0000                	unimp
     960:	0000                	unimp
     962:	0000                	unimp
     964:	0000                	unimp
     966:	0000                	unimp
     968:	0000                	unimp
     96a:	0000                	unimp
     96c:	0000                	unimp
     96e:	0000                	unimp
     970:	0000                	unimp
     972:	0000                	unimp
     974:	0000                	unimp
     976:	0000                	unimp
     978:	0000                	unimp
     97a:	0000                	unimp
     97c:	0000                	unimp
     97e:	0000                	unimp
     980:	0000                	unimp
     982:	0000                	unimp
     984:	0000                	unimp
     986:	0000                	unimp
     988:	0000                	unimp
     98a:	0000                	unimp
     98c:	0000                	unimp
     98e:	0000                	unimp
     990:	0000                	unimp
     992:	0000                	unimp
     994:	0000                	unimp
     996:	0000                	unimp
     998:	0000                	unimp
     99a:	0000                	unimp
     99c:	0000                	unimp
     99e:	0000                	unimp
     9a0:	0000                	unimp
     9a2:	0000                	unimp
     9a4:	0000                	unimp
     9a6:	0000                	unimp
     9a8:	0000                	unimp
     9aa:	0000                	unimp
     9ac:	0000                	unimp
     9ae:	0000                	unimp
     9b0:	0000                	unimp
     9b2:	0000                	unimp
     9b4:	0000                	unimp
     9b6:	0000                	unimp
     9b8:	0000                	unimp
     9ba:	0000                	unimp
     9bc:	0000                	unimp
     9be:	0000                	unimp
     9c0:	0000                	unimp
     9c2:	0000                	unimp
     9c4:	0000                	unimp
     9c6:	0000                	unimp
     9c8:	0000                	unimp
     9ca:	0000                	unimp
     9cc:	0000                	unimp
     9ce:	0000                	unimp
     9d0:	0000                	unimp
     9d2:	0000                	unimp
     9d4:	0000                	unimp
     9d6:	0000                	unimp
     9d8:	0000                	unimp
     9da:	0000                	unimp
     9dc:	0000                	unimp
     9de:	0000                	unimp
     9e0:	0000                	unimp
     9e2:	0000                	unimp
     9e4:	0000                	unimp
     9e6:	0000                	unimp
     9e8:	0000                	unimp
     9ea:	0000                	unimp
     9ec:	0000                	unimp
     9ee:	0000                	unimp
     9f0:	0000                	unimp
     9f2:	0000                	unimp
     9f4:	0000                	unimp
     9f6:	0000                	unimp
     9f8:	0000                	unimp
     9fa:	0000                	unimp
     9fc:	0000                	unimp
     9fe:	0000                	unimp
     a00:	0000                	unimp
     a02:	0000                	unimp
     a04:	0000                	unimp
     a06:	0000                	unimp
     a08:	0000                	unimp
     a0a:	0000                	unimp
     a0c:	0000                	unimp
     a0e:	0000                	unimp
     a10:	0000                	unimp
     a12:	0000                	unimp
     a14:	0000                	unimp
     a16:	0000                	unimp
     a18:	0000                	unimp
     a1a:	0000                	unimp
     a1c:	0000                	unimp
     a1e:	0000                	unimp
     a20:	0000                	unimp
     a22:	0000                	unimp
     a24:	0000                	unimp
     a26:	0000                	unimp
     a28:	0000                	unimp
     a2a:	0000                	unimp
     a2c:	0000                	unimp
     a2e:	0000                	unimp
     a30:	0000                	unimp
     a32:	0000                	unimp
     a34:	0000                	unimp
     a36:	0000                	unimp
     a38:	0000                	unimp
     a3a:	0000                	unimp
     a3c:	0000                	unimp
     a3e:	0000                	unimp
     a40:	0000                	unimp
     a42:	0000                	unimp
     a44:	0000                	unimp
     a46:	0000                	unimp
     a48:	0000                	unimp
     a4a:	0000                	unimp
     a4c:	0000                	unimp
     a4e:	0000                	unimp
     a50:	0000                	unimp
     a52:	0000                	unimp
     a54:	0000                	unimp
     a56:	0000                	unimp
     a58:	ffff                	0xffff
     a5a:	ffff                	0xffff
     a5c:	ffff                	0xffff
     a5e:	ffff                	0xffff
     a60:	ffff                	0xffff
     a62:	ffff                	0xffff
     a64:	ffff                	0xffff
     a66:	ffff                	0xffff
     a68:	ffff                	0xffff
     a6a:	ffff                	0xffff
     a6c:	ffff                	0xffff
     a6e:	ffff                	0xffff
     a70:	ffff                	0xffff
     a72:	ffff                	0xffff
     a74:	ffff                	0xffff
     a76:	ffff                	0xffff
     a78:	ffff                	0xffff
     a7a:	ffff                	0xffff
     a7c:	ffff                	0xffff
     a7e:	ffff                	0xffff
     a80:	ffff                	0xffff
     a82:	ffff                	0xffff
     a84:	ffff                	0xffff
     a86:	ffff                	0xffff
     a88:	ffff                	0xffff
     a8a:	ffff                	0xffff
     a8c:	ffff                	0xffff
     a8e:	ffff                	0xffff
     a90:	ffff                	0xffff
     a92:	ffff                	0xffff
     a94:	ffff                	0xffff
     a96:	ffff                	0xffff
     a98:	ffff                	0xffff
     a9a:	ffff                	0xffff
     a9c:	ffff                	0xffff
     a9e:	ffff                	0xffff
     aa0:	ffff                	0xffff
     aa2:	ffff                	0xffff
     aa4:	ffff                	0xffff
     aa6:	ffff                	0xffff
     aa8:	ffff                	0xffff
     aaa:	ffff                	0xffff
     aac:	ffff                	0xffff
     aae:	ffff                	0xffff
     ab0:	ffff                	0xffff
     ab2:	ffff                	0xffff
     ab4:	ffff                	0xffff
     ab6:	ffff                	0xffff
     ab8:	ffff                	0xffff
     aba:	ffff                	0xffff
     abc:	ffff                	0xffff
     abe:	ffff                	0xffff
     ac0:	ffff                	0xffff
     ac2:	ffff                	0xffff
     ac4:	ffff                	0xffff
     ac6:	ffff                	0xffff
     ac8:	ffff                	0xffff
     aca:	ffff                	0xffff
     acc:	ffff                	0xffff
     ace:	ffff                	0xffff
     ad0:	ffff                	0xffff
     ad2:	ffff                	0xffff
     ad4:	ffff                	0xffff
     ad6:	ffff                	0xffff
     ad8:	ffff                	0xffff
     ada:	ffff                	0xffff
     adc:	ffff                	0xffff
     ade:	ffff                	0xffff
     ae0:	ffff                	0xffff
     ae2:	ffff                	0xffff
     ae4:	ffff                	0xffff
     ae6:	ffff                	0xffff
     ae8:	ffff                	0xffff
     aea:	ffff                	0xffff
     aec:	ffff                	0xffff
     aee:	ffff                	0xffff
     af0:	ffff                	0xffff
     af2:	ffff                	0xffff
     af4:	ffff                	0xffff
     af6:	ffff                	0xffff
     af8:	ffff                	0xffff
     afa:	ffff                	0xffff
     afc:	ffff                	0xffff
     afe:	ffff                	0xffff
     b00:	ffff                	0xffff
     b02:	ffff                	0xffff
     b04:	ffff                	0xffff
     b06:	ffff                	0xffff
     b08:	ffff                	0xffff
     b0a:	ffff                	0xffff
     b0c:	ffff                	0xffff
     b0e:	ffff                	0xffff
     b10:	ffff                	0xffff
     b12:	ffff                	0xffff
     b14:	ffff                	0xffff
     b16:	ffff                	0xffff
     b18:	ffff                	0xffff
     b1a:	ffff                	0xffff
     b1c:	ffff                	0xffff
     b1e:	ffff                	0xffff
     b20:	ffff                	0xffff
     b22:	ffff                	0xffff
     b24:	ffff                	0xffff
     b26:	ffff                	0xffff
     b28:	ffff                	0xffff
     b2a:	ffff                	0xffff
     b2c:	ffff                	0xffff
     b2e:	ffff                	0xffff
     b30:	ffff                	0xffff
     b32:	ffff                	0xffff
     b34:	ffff                	0xffff
     b36:	ffff                	0xffff
     b38:	ffff                	0xffff
     b3a:	ffff                	0xffff
     b3c:	ffff                	0xffff
     b3e:	ffff                	0xffff
     b40:	ffff                	0xffff
     b42:	ffff                	0xffff
     b44:	ffff                	0xffff
     b46:	ffff                	0xffff
     b48:	ffff                	0xffff
     b4a:	ffff                	0xffff
     b4c:	ffff                	0xffff
     b4e:	ffff                	0xffff
     b50:	ffff                	0xffff
     b52:	ffff                	0xffff
     b54:	ffff                	0xffff
     b56:	ffff                	0xffff
     b58:	ffff                	0xffff
     b5a:	ffff                	0xffff
     b5c:	ffff                	0xffff
     b5e:	ffff                	0xffff
     b60:	ffff                	0xffff
     b62:	ffff                	0xffff
     b64:	ffff                	0xffff
     b66:	ffff                	0xffff
     b68:	ffff                	0xffff
     b6a:	ffff                	0xffff
     b6c:	ffff                	0xffff
     b6e:	ffff                	0xffff
     b70:	ffff                	0xffff
     b72:	ffff                	0xffff
     b74:	ffff                	0xffff
     b76:	ffff                	0xffff
     b78:	ffff                	0xffff
     b7a:	ffff                	0xffff
     b7c:	ffff                	0xffff
     b7e:	ffff                	0xffff
     b80:	ffff                	0xffff
     b82:	ffff                	0xffff
     b84:	ffff                	0xffff
     b86:	ffff                	0xffff
     b88:	ffff                	0xffff
     b8a:	ffff                	0xffff
     b8c:	ffff                	0xffff
     b8e:	ffff                	0xffff
     b90:	ffff                	0xffff
     b92:	ffff                	0xffff
     b94:	ffff                	0xffff
     b96:	ffff                	0xffff
     b98:	ffff                	0xffff
     b9a:	ffff                	0xffff
     b9c:	ffff                	0xffff
     b9e:	ffff                	0xffff
     ba0:	ffff                	0xffff
     ba2:	ffff                	0xffff
     ba4:	ffff                	0xffff
     ba6:	ffff                	0xffff
     ba8:	ffff                	0xffff
     baa:	ffff                	0xffff
     bac:	ffff                	0xffff
     bae:	ffff                	0xffff
     bb0:	ffff                	0xffff
     bb2:	ffff                	0xffff
     bb4:	ffff                	0xffff
     bb6:	ffff                	0xffff
     bb8:	ffff                	0xffff
     bba:	ffff                	0xffff
     bbc:	ffff                	0xffff
     bbe:	ffff                	0xffff
     bc0:	ffff                	0xffff
     bc2:	ffff                	0xffff
     bc4:	ffff                	0xffff
     bc6:	ffff                	0xffff
     bc8:	ffff                	0xffff
     bca:	ffff                	0xffff
     bcc:	ffff                	0xffff
     bce:	ffff                	0xffff
     bd0:	ffff                	0xffff
     bd2:	ffff                	0xffff
     bd4:	ffff                	0xffff
     bd6:	ffff                	0xffff
     bd8:	ffff                	0xffff
     bda:	ffff                	0xffff
     bdc:	ffff                	0xffff
     bde:	ffff                	0xffff
     be0:	ffff                	0xffff
     be2:	ffff                	0xffff
     be4:	ffff                	0xffff
     be6:	ffff                	0xffff
     be8:	ffff                	0xffff
     bea:	ffff                	0xffff
     bec:	ffff                	0xffff
     bee:	ffff                	0xffff
     bf0:	ffff                	0xffff
     bf2:	ffff                	0xffff
     bf4:	ffff                	0xffff
     bf6:	ffff                	0xffff
     bf8:	ffff                	0xffff
     bfa:	ffff                	0xffff
     bfc:	ffff                	0xffff
     bfe:	ffff                	0xffff
     c00:	ffff                	0xffff
     c02:	ffff                	0xffff
     c04:	ffff                	0xffff
     c06:	ffff                	0xffff
     c08:	ffff                	0xffff
     c0a:	ffff                	0xffff
     c0c:	ffff                	0xffff
     c0e:	ffff                	0xffff
     c10:	ffff                	0xffff
     c12:	ffff                	0xffff
     c14:	ffff                	0xffff
     c16:	ffff                	0xffff
     c18:	ffff                	0xffff
     c1a:	ffff                	0xffff
     c1c:	ffff                	0xffff
     c1e:	ffff                	0xffff
     c20:	ffff                	0xffff
     c22:	ffff                	0xffff
     c24:	ffff                	0xffff
     c26:	ffff                	0xffff
     c28:	ffff                	0xffff
     c2a:	ffff                	0xffff
     c2c:	ffff                	0xffff
     c2e:	ffff                	0xffff
     c30:	ffff                	0xffff
     c32:	ffff                	0xffff
     c34:	ffff                	0xffff
     c36:	ffff                	0xffff
     c38:	ffff                	0xffff
     c3a:	ffff                	0xffff
     c3c:	ffff                	0xffff
     c3e:	ffff                	0xffff
     c40:	ffff                	0xffff
     c42:	ffff                	0xffff
     c44:	ffff                	0xffff
     c46:	ffff                	0xffff
     c48:	ffff                	0xffff
     c4a:	ffff                	0xffff
     c4c:	ffff                	0xffff
     c4e:	ffff                	0xffff
     c50:	ffff                	0xffff
     c52:	ffff                	0xffff
     c54:	ffff                	0xffff
     c56:	ffff                	0xffff
     c58:	ffff                	0xffff
     c5a:	ffff                	0xffff
     c5c:	ffff                	0xffff
     c5e:	ffff                	0xffff
     c60:	ffff                	0xffff
     c62:	ffff                	0xffff
     c64:	ffff                	0xffff
     c66:	ffff                	0xffff
     c68:	ffff                	0xffff
     c6a:	ffff                	0xffff
     c6c:	ffff                	0xffff
     c6e:	ffff                	0xffff
     c70:	ffff                	0xffff
     c72:	ffff                	0xffff
     c74:	ffff                	0xffff
     c76:	ffff                	0xffff
     c78:	ffff                	0xffff
     c7a:	ffff                	0xffff
     c7c:	ffff                	0xffff
     c7e:	ffff                	0xffff
     c80:	ffff                	0xffff
     c82:	ffff                	0xffff
     c84:	ffff                	0xffff
     c86:	ffff                	0xffff
     c88:	ffff                	0xffff
     c8a:	ffff                	0xffff
     c8c:	ffff                	0xffff
     c8e:	ffff                	0xffff
     c90:	ffff                	0xffff
     c92:	ffff                	0xffff
     c94:	ffff                	0xffff
     c96:	ffff                	0xffff
     c98:	ffff                	0xffff
     c9a:	ffff                	0xffff
     c9c:	ffff                	0xffff
     c9e:	ffff                	0xffff
     ca0:	ffff                	0xffff
     ca2:	ffff                	0xffff
     ca4:	ffff                	0xffff
     ca6:	ffff                	0xffff
     ca8:	ffff                	0xffff
     caa:	ffff                	0xffff
     cac:	ffff                	0xffff
     cae:	ffff                	0xffff
     cb0:	ffff                	0xffff
     cb2:	ffff                	0xffff
     cb4:	ffff                	0xffff
     cb6:	ffff                	0xffff
     cb8:	ffff                	0xffff
     cba:	ffff                	0xffff
     cbc:	ffff                	0xffff
     cbe:	ffff                	0xffff
     cc0:	ffff                	0xffff
     cc2:	ffff                	0xffff
     cc4:	ffff                	0xffff
     cc6:	ffff                	0xffff
     cc8:	ffff                	0xffff
     cca:	ffff                	0xffff
     ccc:	ffff                	0xffff
     cce:	ffff                	0xffff
     cd0:	ffff                	0xffff
     cd2:	ffff                	0xffff
     cd4:	ffff                	0xffff
     cd6:	ffff                	0xffff
     cd8:	ffff                	0xffff
     cda:	ffff                	0xffff
     cdc:	ffff                	0xffff
     cde:	ffff                	0xffff
     ce0:	ffff                	0xffff
     ce2:	ffff                	0xffff
     ce4:	ffff                	0xffff
     ce6:	ffff                	0xffff
     ce8:	ffff                	0xffff
     cea:	ffff                	0xffff
     cec:	ffff                	0xffff
     cee:	ffff                	0xffff
     cf0:	ffff                	0xffff
     cf2:	ffff                	0xffff
     cf4:	ffff                	0xffff
     cf6:	ffff                	0xffff
     cf8:	ffff                	0xffff
     cfa:	ffff                	0xffff
     cfc:	ffff                	0xffff
     cfe:	ffff                	0xffff
     d00:	ffff                	0xffff
     d02:	ffff                	0xffff
     d04:	ffff                	0xffff
     d06:	ffff                	0xffff
     d08:	ffff                	0xffff
     d0a:	ffff                	0xffff
     d0c:	ffff                	0xffff
     d0e:	ffff                	0xffff
     d10:	ffff                	0xffff
     d12:	ffff                	0xffff
     d14:	ffff                	0xffff
     d16:	ffff                	0xffff
     d18:	ffff                	0xffff
     d1a:	ffff                	0xffff
     d1c:	ffff                	0xffff
     d1e:	ffff                	0xffff
     d20:	ffff                	0xffff
     d22:	ffff                	0xffff
     d24:	ffff                	0xffff
     d26:	ffff                	0xffff
     d28:	ffff                	0xffff
     d2a:	ffff                	0xffff
     d2c:	ffff                	0xffff
     d2e:	ffff                	0xffff
     d30:	ffff                	0xffff
     d32:	ffff                	0xffff
     d34:	ffff                	0xffff
     d36:	ffff                	0xffff
     d38:	ffff                	0xffff
     d3a:	ffff                	0xffff
     d3c:	ffff                	0xffff
     d3e:	ffff                	0xffff
     d40:	ffff                	0xffff
     d42:	ffff                	0xffff
     d44:	ffff                	0xffff
     d46:	ffff                	0xffff
     d48:	ffff                	0xffff
     d4a:	ffff                	0xffff
     d4c:	ffff                	0xffff
     d4e:	ffff                	0xffff
     d50:	ffff                	0xffff
     d52:	ffff                	0xffff
     d54:	ffff                	0xffff
     d56:	ffff                	0xffff
     d58:	ffff                	0xffff
     d5a:	ffff                	0xffff
     d5c:	ffff                	0xffff
     d5e:	ffff                	0xffff
     d60:	ffff                	0xffff
     d62:	ffff                	0xffff
     d64:	ffff                	0xffff
     d66:	ffff                	0xffff
     d68:	ffff                	0xffff
     d6a:	ffff                	0xffff
     d6c:	ffff                	0xffff
     d6e:	ffff                	0xffff
     d70:	ffff                	0xffff
     d72:	ffff                	0xffff
     d74:	ffff                	0xffff
     d76:	ffff                	0xffff
     d78:	ffff                	0xffff
     d7a:	ffff                	0xffff
     d7c:	ffff                	0xffff
     d7e:	ffff                	0xffff
     d80:	ffff                	0xffff
     d82:	ffff                	0xffff
     d84:	ffff                	0xffff
     d86:	ffff                	0xffff
     d88:	ffff                	0xffff
     d8a:	ffff                	0xffff
     d8c:	ffff                	0xffff
     d8e:	ffff                	0xffff
     d90:	ffff                	0xffff
     d92:	ffff                	0xffff
     d94:	ffff                	0xffff
     d96:	ffff                	0xffff
     d98:	ffff                	0xffff
     d9a:	ffff                	0xffff
     d9c:	ffff                	0xffff
     d9e:	ffff                	0xffff
     da0:	ffff                	0xffff
     da2:	ffff                	0xffff
     da4:	ffff                	0xffff
     da6:	ffff                	0xffff
     da8:	ffff                	0xffff
     daa:	ffff                	0xffff
     dac:	ffff                	0xffff
     dae:	ffff                	0xffff
     db0:	ffff                	0xffff
     db2:	ffff                	0xffff
     db4:	ffff                	0xffff
     db6:	ffff                	0xffff
     db8:	ffff                	0xffff
     dba:	ffff                	0xffff
     dbc:	ffff                	0xffff
     dbe:	ffff                	0xffff
     dc0:	ffff                	0xffff
     dc2:	ffff                	0xffff
     dc4:	ffff                	0xffff
     dc6:	ffff                	0xffff
     dc8:	ffff                	0xffff
     dca:	ffff                	0xffff
     dcc:	ffff                	0xffff
     dce:	ffff                	0xffff
     dd0:	ffff                	0xffff
     dd2:	ffff                	0xffff
     dd4:	ffff                	0xffff
     dd6:	ffff                	0xffff
     dd8:	ffff                	0xffff
     dda:	ffff                	0xffff
     ddc:	ffff                	0xffff
     dde:	ffff                	0xffff
     de0:	ffff                	0xffff
     de2:	ffff                	0xffff
     de4:	ffff                	0xffff
     de6:	ffff                	0xffff
     de8:	ffff                	0xffff
     dea:	ffff                	0xffff
     dec:	ffff                	0xffff
     dee:	ffff                	0xffff
     df0:	ffff                	0xffff
     df2:	ffff                	0xffff
     df4:	ffff                	0xffff
     df6:	ffff                	0xffff
     df8:	ffff                	0xffff
     dfa:	ffff                	0xffff
     dfc:	ffff                	0xffff
     dfe:	ffff                	0xffff
     e00:	ffff                	0xffff
     e02:	ffff                	0xffff
     e04:	ffff                	0xffff
     e06:	ffff                	0xffff
     e08:	ffff                	0xffff
     e0a:	ffff                	0xffff
     e0c:	ffff                	0xffff
     e0e:	ffff                	0xffff
     e10:	ffff                	0xffff
     e12:	ffff                	0xffff
     e14:	ffff                	0xffff
     e16:	ffff                	0xffff
     e18:	ffff                	0xffff
     e1a:	ffff                	0xffff
     e1c:	ffff                	0xffff
     e1e:	ffff                	0xffff
     e20:	ffff                	0xffff
     e22:	ffff                	0xffff
     e24:	ffff                	0xffff
     e26:	ffff                	0xffff
     e28:	ffff                	0xffff
     e2a:	ffff                	0xffff
     e2c:	ffff                	0xffff
     e2e:	ffff                	0xffff
     e30:	ffff                	0xffff
     e32:	ffff                	0xffff
     e34:	ffff                	0xffff
     e36:	ffff                	0xffff
     e38:	ffff                	0xffff
     e3a:	ffff                	0xffff
     e3c:	ffff                	0xffff
     e3e:	ffff                	0xffff
     e40:	ffff                	0xffff
     e42:	ffff                	0xffff
     e44:	ffff                	0xffff
     e46:	ffff                	0xffff
     e48:	ffff                	0xffff
     e4a:	ffff                	0xffff
     e4c:	ffff                	0xffff
     e4e:	ffff                	0xffff
     e50:	ffff                	0xffff
     e52:	ffff                	0xffff
     e54:	ffff                	0xffff
     e56:	ffff                	0xffff
     e58:	ffff                	0xffff
     e5a:	ffff                	0xffff
     e5c:	ffff                	0xffff
     e5e:	ffff                	0xffff
     e60:	ffff                	0xffff
     e62:	ffff                	0xffff
     e64:	ffff                	0xffff
     e66:	ffff                	0xffff
     e68:	ffff                	0xffff
     e6a:	ffff                	0xffff
     e6c:	ffff                	0xffff
     e6e:	ffff                	0xffff
     e70:	ffff                	0xffff
     e72:	ffff                	0xffff
     e74:	ffff                	0xffff
     e76:	ffff                	0xffff
     e78:	ffff                	0xffff
     e7a:	ffff                	0xffff
     e7c:	ffff                	0xffff
     e7e:	ffff                	0xffff
     e80:	ffff                	0xffff
     e82:	ffff                	0xffff
     e84:	ffff                	0xffff
     e86:	ffff                	0xffff
     e88:	ffff                	0xffff
     e8a:	ffff                	0xffff
     e8c:	ffff                	0xffff
     e8e:	ffff                	0xffff
     e90:	ffff                	0xffff
     e92:	ffff                	0xffff
     e94:	ffff                	0xffff
     e96:	ffff                	0xffff
     e98:	ffff                	0xffff
     e9a:	ffff                	0xffff
     e9c:	ffff                	0xffff
     e9e:	ffff                	0xffff
     ea0:	ffff                	0xffff
     ea2:	ffff                	0xffff
     ea4:	ffff                	0xffff
     ea6:	ffff                	0xffff
     ea8:	ffff                	0xffff
     eaa:	ffff                	0xffff
     eac:	ffff                	0xffff
     eae:	ffff                	0xffff
     eb0:	ffff                	0xffff
     eb2:	ffff                	0xffff
     eb4:	ffff                	0xffff
     eb6:	ffff                	0xffff
     eb8:	ffff                	0xffff
     eba:	ffff                	0xffff
     ebc:	ffff                	0xffff
     ebe:	ffff                	0xffff
     ec0:	ffff                	0xffff
     ec2:	ffff                	0xffff
     ec4:	ffff                	0xffff
     ec6:	ffff                	0xffff
     ec8:	ffff                	0xffff
     eca:	ffff                	0xffff
     ecc:	ffff                	0xffff
     ece:	ffff                	0xffff
     ed0:	ffff                	0xffff
     ed2:	ffff                	0xffff
     ed4:	ffff                	0xffff
     ed6:	ffff                	0xffff
     ed8:	ffff                	0xffff
     eda:	ffff                	0xffff
     edc:	ffff                	0xffff
     ede:	ffff                	0xffff
     ee0:	ffff                	0xffff
     ee2:	ffff                	0xffff
     ee4:	ffff                	0xffff
     ee6:	ffff                	0xffff
     ee8:	ffff                	0xffff
     eea:	ffff                	0xffff
     eec:	ffff                	0xffff
     eee:	ffff                	0xffff
     ef0:	ffff                	0xffff
     ef2:	ffff                	0xffff
     ef4:	ffff                	0xffff
     ef6:	ffff                	0xffff
     ef8:	ffff                	0xffff
     efa:	ffff                	0xffff
     efc:	ffff                	0xffff
     efe:	ffff                	0xffff
     f00:	ffff                	0xffff
     f02:	ffff                	0xffff
     f04:	ffff                	0xffff
     f06:	ffff                	0xffff
     f08:	ffff                	0xffff
     f0a:	ffff                	0xffff
     f0c:	ffff                	0xffff
     f0e:	ffff                	0xffff
     f10:	ffff                	0xffff
     f12:	ffff                	0xffff
     f14:	ffff                	0xffff
     f16:	ffff                	0xffff
     f18:	ffff                	0xffff
     f1a:	ffff                	0xffff
     f1c:	ffff                	0xffff
     f1e:	ffff                	0xffff
     f20:	ffff                	0xffff
     f22:	ffff                	0xffff
     f24:	ffff                	0xffff
     f26:	ffff                	0xffff
     f28:	ffff                	0xffff
     f2a:	ffff                	0xffff
     f2c:	ffff                	0xffff
     f2e:	ffff                	0xffff
     f30:	ffff                	0xffff
     f32:	ffff                	0xffff
     f34:	ffff                	0xffff
     f36:	ffff                	0xffff
     f38:	ffff                	0xffff
     f3a:	ffff                	0xffff
     f3c:	ffff                	0xffff
     f3e:	ffff                	0xffff
     f40:	ffff                	0xffff
     f42:	ffff                	0xffff
     f44:	ffff                	0xffff
     f46:	ffff                	0xffff
     f48:	ffff                	0xffff
     f4a:	ffff                	0xffff
     f4c:	ffff                	0xffff
     f4e:	ffff                	0xffff
     f50:	ffff                	0xffff
     f52:	ffff                	0xffff
     f54:	ffff                	0xffff
     f56:	ffff                	0xffff
     f58:	ffff                	0xffff
     f5a:	ffff                	0xffff
     f5c:	ffff                	0xffff
     f5e:	ffff                	0xffff
     f60:	ffff                	0xffff
     f62:	ffff                	0xffff
     f64:	ffff                	0xffff
     f66:	ffff                	0xffff
     f68:	ffff                	0xffff
     f6a:	ffff                	0xffff
     f6c:	ffff                	0xffff
     f6e:	ffff                	0xffff
     f70:	ffff                	0xffff
     f72:	ffff                	0xffff
     f74:	ffff                	0xffff
     f76:	ffff                	0xffff
     f78:	ffff                	0xffff
     f7a:	ffff                	0xffff
     f7c:	ffff                	0xffff
     f7e:	ffff                	0xffff
     f80:	ffff                	0xffff
     f82:	ffff                	0xffff
     f84:	ffff                	0xffff
     f86:	ffff                	0xffff
     f88:	ffff                	0xffff
     f8a:	ffff                	0xffff
     f8c:	ffff                	0xffff
     f8e:	ffff                	0xffff
     f90:	ffff                	0xffff
     f92:	ffff                	0xffff
     f94:	ffff                	0xffff
     f96:	ffff                	0xffff
     f98:	ffff                	0xffff
     f9a:	ffff                	0xffff
     f9c:	ffff                	0xffff
     f9e:	ffff                	0xffff
     fa0:	ffff                	0xffff
     fa2:	ffff                	0xffff
     fa4:	ffff                	0xffff
     fa6:	ffff                	0xffff
     fa8:	ffff                	0xffff
     faa:	ffff                	0xffff
     fac:	ffff                	0xffff
     fae:	ffff                	0xffff
     fb0:	ffff                	0xffff
     fb2:	ffff                	0xffff
     fb4:	ffff                	0xffff
     fb6:	ffff                	0xffff
     fb8:	ffff                	0xffff
     fba:	ffff                	0xffff
     fbc:	ffff                	0xffff
     fbe:	ffff                	0xffff
     fc0:	ffff                	0xffff
     fc2:	ffff                	0xffff
     fc4:	ffff                	0xffff
     fc6:	ffff                	0xffff
     fc8:	ffff                	0xffff
     fca:	ffff                	0xffff
     fcc:	ffff                	0xffff
     fce:	ffff                	0xffff
     fd0:	ffff                	0xffff
     fd2:	ffff                	0xffff
     fd4:	ffff                	0xffff
     fd6:	ffff                	0xffff
     fd8:	ffff                	0xffff
     fda:	ffff                	0xffff
     fdc:	ffff                	0xffff
     fde:	ffff                	0xffff
     fe0:	ffff                	0xffff
     fe2:	ffff                	0xffff
     fe4:	ffff                	0xffff
     fe6:	ffff                	0xffff
     fe8:	ffff                	0xffff
     fea:	ffff                	0xffff
     fec:	ffff                	0xffff
     fee:	ffff                	0xffff
     ff0:	ffff                	0xffff
     ff2:	ffff                	0xffff
     ff4:	ffff                	0xffff
     ff6:	ffff                	0xffff
     ff8:	ffff                	0xffff
     ffa:	ffff                	0xffff
     ffc:	ffff                	0xffff
     ffe:	ffff                	0xffff
    1000:	ffff                	0xffff
    1002:	ffff                	0xffff
    1004:	ffff                	0xffff
    1006:	ffff                	0xffff
    1008:	ffff                	0xffff
    100a:	ffff                	0xffff
    100c:	ffff                	0xffff
    100e:	ffff                	0xffff
    1010:	ffff                	0xffff
    1012:	ffff                	0xffff
    1014:	ffff                	0xffff
    1016:	ffff                	0xffff
    1018:	ffff                	0xffff
    101a:	ffff                	0xffff
    101c:	ffff                	0xffff
    101e:	ffff                	0xffff
    1020:	ffff                	0xffff
    1022:	ffff                	0xffff
    1024:	ffff                	0xffff
    1026:	ffff                	0xffff
    1028:	ffff                	0xffff
    102a:	ffff                	0xffff
    102c:	ffff                	0xffff
    102e:	ffff                	0xffff
    1030:	ffff                	0xffff
    1032:	ffff                	0xffff
    1034:	ffff                	0xffff
    1036:	ffff                	0xffff
    1038:	ffff                	0xffff
    103a:	ffff                	0xffff
    103c:	ffff                	0xffff
    103e:	ffff                	0xffff
    1040:	ffff                	0xffff
    1042:	ffff                	0xffff
    1044:	ffff                	0xffff
    1046:	ffff                	0xffff
    1048:	ffff                	0xffff
    104a:	ffff                	0xffff
    104c:	ffff                	0xffff
    104e:	ffff                	0xffff
    1050:	ffff                	0xffff
    1052:	ffff                	0xffff
    1054:	ffff                	0xffff
    1056:	ffff                	0xffff
    1058:	ffff                	0xffff
    105a:	ffff                	0xffff
    105c:	ffff                	0xffff
    105e:	ffff                	0xffff
    1060:	ffff                	0xffff
    1062:	ffff                	0xffff
    1064:	ffff                	0xffff
    1066:	ffff                	0xffff
    1068:	ffff                	0xffff
    106a:	ffff                	0xffff
    106c:	ffff                	0xffff
    106e:	ffff                	0xffff
    1070:	ffff                	0xffff
    1072:	ffff                	0xffff
    1074:	ffff                	0xffff
    1076:	ffff                	0xffff
    1078:	ffff                	0xffff
    107a:	ffff                	0xffff
    107c:	ffff                	0xffff
    107e:	ffff                	0xffff
    1080:	ffff                	0xffff
    1082:	ffff                	0xffff
    1084:	ffff                	0xffff
    1086:	ffff                	0xffff
    1088:	ffff                	0xffff
    108a:	ffff                	0xffff
    108c:	ffff                	0xffff
    108e:	ffff                	0xffff
    1090:	ffff                	0xffff
    1092:	ffff                	0xffff
    1094:	ffff                	0xffff
    1096:	ffff                	0xffff
    1098:	ffff                	0xffff
    109a:	ffff                	0xffff
    109c:	ffff                	0xffff
    109e:	ffff                	0xffff
    10a0:	ffff                	0xffff
    10a2:	ffff                	0xffff
    10a4:	ffff                	0xffff
    10a6:	ffff                	0xffff
    10a8:	ffff                	0xffff
    10aa:	ffff                	0xffff
    10ac:	ffff                	0xffff
    10ae:	ffff                	0xffff
    10b0:	ffff                	0xffff
    10b2:	ffff                	0xffff
    10b4:	ffff                	0xffff
    10b6:	ffff                	0xffff
    10b8:	ffff                	0xffff
    10ba:	ffff                	0xffff
    10bc:	ffff                	0xffff
    10be:	ffff                	0xffff
    10c0:	ffff                	0xffff
    10c2:	ffff                	0xffff
    10c4:	ffff                	0xffff
    10c6:	ffff                	0xffff
    10c8:	ffff                	0xffff
    10ca:	ffff                	0xffff
    10cc:	ffff                	0xffff
    10ce:	ffff                	0xffff
    10d0:	ffff                	0xffff
    10d2:	ffff                	0xffff
    10d4:	ffff                	0xffff
    10d6:	ffff                	0xffff
    10d8:	ffff                	0xffff
    10da:	ffff                	0xffff
    10dc:	ffff                	0xffff
    10de:	ffff                	0xffff
    10e0:	ffff                	0xffff
    10e2:	ffff                	0xffff
    10e4:	ffff                	0xffff
    10e6:	ffff                	0xffff
    10e8:	ffff                	0xffff
    10ea:	ffff                	0xffff
    10ec:	ffff                	0xffff
    10ee:	ffff                	0xffff
    10f0:	ffff                	0xffff
    10f2:	ffff                	0xffff
    10f4:	ffff                	0xffff
    10f6:	ffff                	0xffff
    10f8:	ffff                	0xffff
    10fa:	ffff                	0xffff
    10fc:	ffff                	0xffff
    10fe:	ffff                	0xffff
    1100:	ffff                	0xffff
    1102:	ffff                	0xffff
    1104:	ffff                	0xffff
    1106:	ffff                	0xffff
    1108:	ffff                	0xffff
    110a:	ffff                	0xffff
    110c:	ffff                	0xffff
    110e:	ffff                	0xffff
    1110:	ffff                	0xffff
    1112:	ffff                	0xffff
    1114:	ffff                	0xffff
    1116:	ffff                	0xffff
    1118:	ffff                	0xffff
    111a:	ffff                	0xffff
    111c:	ffff                	0xffff
    111e:	ffff                	0xffff
    1120:	ffff                	0xffff
    1122:	ffff                	0xffff
    1124:	ffff                	0xffff
    1126:	ffff                	0xffff
    1128:	ffff                	0xffff
    112a:	ffff                	0xffff
    112c:	ffff                	0xffff
    112e:	ffff                	0xffff
    1130:	ffff                	0xffff
    1132:	ffff                	0xffff
    1134:	ffff                	0xffff
    1136:	ffff                	0xffff
    1138:	ffff                	0xffff
    113a:	ffff                	0xffff
    113c:	ffff                	0xffff
    113e:	ffff                	0xffff
    1140:	ffff                	0xffff
    1142:	ffff                	0xffff
    1144:	ffff                	0xffff
    1146:	ffff                	0xffff
    1148:	ffff                	0xffff
    114a:	ffff                	0xffff
    114c:	ffff                	0xffff
    114e:	ffff                	0xffff
    1150:	ffff                	0xffff
    1152:	ffff                	0xffff
    1154:	ffff                	0xffff
    1156:	ffff                	0xffff
    1158:	ffff                	0xffff
    115a:	ffff                	0xffff
    115c:	ffff                	0xffff
    115e:	ffff                	0xffff
    1160:	ffff                	0xffff
    1162:	ffff                	0xffff
    1164:	ffff                	0xffff
    1166:	ffff                	0xffff
    1168:	ffff                	0xffff
    116a:	ffff                	0xffff
    116c:	ffff                	0xffff
    116e:	ffff                	0xffff
    1170:	ffff                	0xffff
    1172:	ffff                	0xffff
    1174:	ffff                	0xffff
    1176:	ffff                	0xffff
    1178:	ffff                	0xffff
    117a:	ffff                	0xffff
    117c:	ffff                	0xffff
    117e:	ffff                	0xffff
    1180:	ffff                	0xffff
    1182:	ffff                	0xffff
    1184:	ffff                	0xffff
    1186:	ffff                	0xffff
    1188:	ffff                	0xffff
    118a:	ffff                	0xffff
    118c:	ffff                	0xffff
    118e:	ffff                	0xffff
    1190:	ffff                	0xffff
    1192:	ffff                	0xffff
    1194:	ffff                	0xffff
    1196:	ffff                	0xffff
    1198:	ffff                	0xffff
    119a:	ffff                	0xffff
    119c:	ffff                	0xffff
    119e:	ffff                	0xffff
    11a0:	ffff                	0xffff
    11a2:	ffff                	0xffff
    11a4:	ffff                	0xffff
    11a6:	ffff                	0xffff
    11a8:	ffff                	0xffff
    11aa:	ffff                	0xffff
    11ac:	ffff                	0xffff
    11ae:	ffff                	0xffff
    11b0:	ffff                	0xffff
    11b2:	ffff                	0xffff
    11b4:	ffff                	0xffff
    11b6:	ffff                	0xffff
    11b8:	ffff                	0xffff
    11ba:	ffff                	0xffff
    11bc:	ffff                	0xffff
    11be:	ffff                	0xffff
    11c0:	ffff                	0xffff
    11c2:	ffff                	0xffff
    11c4:	ffff                	0xffff
    11c6:	ffff                	0xffff
    11c8:	ffff                	0xffff
    11ca:	ffff                	0xffff
    11cc:	ffff                	0xffff
    11ce:	ffff                	0xffff
    11d0:	ffff                	0xffff
    11d2:	ffff                	0xffff
    11d4:	ffff                	0xffff
    11d6:	ffff                	0xffff
    11d8:	ffff                	0xffff
    11da:	ffff                	0xffff
    11dc:	ffff                	0xffff
    11de:	ffff                	0xffff
    11e0:	ffff                	0xffff
    11e2:	ffff                	0xffff
    11e4:	ffff                	0xffff
    11e6:	ffff                	0xffff
    11e8:	ffff                	0xffff
    11ea:	ffff                	0xffff
    11ec:	ffff                	0xffff
    11ee:	ffff                	0xffff
    11f0:	ffff                	0xffff
    11f2:	ffff                	0xffff
    11f4:	ffff                	0xffff
    11f6:	ffff                	0xffff
    11f8:	ffff                	0xffff
    11fa:	ffff                	0xffff
    11fc:	ffff                	0xffff
    11fe:	ffff                	0xffff
    1200:	ffff                	0xffff
    1202:	ffff                	0xffff
    1204:	ffff                	0xffff
    1206:	ffff                	0xffff
    1208:	ffff                	0xffff
    120a:	ffff                	0xffff
    120c:	ffff                	0xffff
    120e:	ffff                	0xffff
    1210:	ffff                	0xffff
    1212:	ffff                	0xffff
    1214:	ffff                	0xffff
    1216:	ffff                	0xffff
    1218:	ffff                	0xffff
    121a:	ffff                	0xffff
    121c:	ffff                	0xffff
    121e:	ffff                	0xffff
    1220:	ffff                	0xffff
    1222:	ffff                	0xffff
    1224:	ffff                	0xffff
    1226:	ffff                	0xffff
    1228:	ffff                	0xffff
    122a:	ffff                	0xffff
    122c:	ffff                	0xffff
    122e:	ffff                	0xffff
    1230:	ffff                	0xffff
    1232:	ffff                	0xffff
    1234:	ffff                	0xffff
    1236:	ffff                	0xffff
    1238:	ffff                	0xffff
    123a:	ffff                	0xffff
    123c:	ffff                	0xffff
    123e:	ffff                	0xffff
    1240:	ffff                	0xffff
    1242:	ffff                	0xffff
    1244:	ffff                	0xffff
    1246:	ffff                	0xffff
    1248:	ffff                	0xffff
    124a:	ffff                	0xffff
    124c:	ffff                	0xffff
    124e:	ffff                	0xffff
    1250:	ffff                	0xffff
    1252:	ffff                	0xffff
    1254:	ffff                	0xffff
    1256:	ffff                	0xffff
    1258:	ffff                	0xffff
    125a:	ffff                	0xffff
    125c:	ffff                	0xffff
    125e:	ffff                	0xffff
    1260:	ffff                	0xffff
    1262:	ffff                	0xffff
    1264:	ffff                	0xffff
    1266:	ffff                	0xffff
    1268:	ffff                	0xffff
    126a:	ffff                	0xffff
    126c:	ffff                	0xffff
    126e:	ffff                	0xffff
    1270:	ffff                	0xffff
    1272:	ffff                	0xffff
    1274:	ffff                	0xffff
    1276:	ffff                	0xffff
    1278:	ffff                	0xffff
    127a:	ffff                	0xffff
    127c:	ffff                	0xffff
    127e:	ffff                	0xffff
    1280:	ffff                	0xffff
    1282:	ffff                	0xffff
    1284:	ffff                	0xffff
    1286:	ffff                	0xffff
    1288:	ffff                	0xffff
    128a:	ffff                	0xffff
    128c:	ffff                	0xffff
    128e:	ffff                	0xffff
    1290:	ffff                	0xffff
    1292:	ffff                	0xffff
    1294:	ffff                	0xffff
    1296:	ffff                	0xffff
    1298:	ffff                	0xffff
    129a:	ffff                	0xffff
    129c:	ffff                	0xffff
    129e:	ffff                	0xffff
    12a0:	ffff                	0xffff
    12a2:	ffff                	0xffff
    12a4:	ffff                	0xffff
    12a6:	ffff                	0xffff
    12a8:	ffff                	0xffff
    12aa:	ffff                	0xffff
    12ac:	ffff                	0xffff
    12ae:	ffff                	0xffff
    12b0:	ffff                	0xffff
    12b2:	ffff                	0xffff
    12b4:	ffff                	0xffff
    12b6:	ffff                	0xffff
    12b8:	ffff                	0xffff
    12ba:	ffff                	0xffff
    12bc:	ffff                	0xffff
    12be:	ffff                	0xffff
    12c0:	ffff                	0xffff
    12c2:	ffff                	0xffff
    12c4:	ffff                	0xffff
    12c6:	ffff                	0xffff
    12c8:	ffff                	0xffff
    12ca:	ffff                	0xffff
    12cc:	ffff                	0xffff
    12ce:	ffff                	0xffff
    12d0:	ffff                	0xffff
    12d2:	ffff                	0xffff
    12d4:	ffff                	0xffff
    12d6:	ffff                	0xffff
    12d8:	ffff                	0xffff
    12da:	ffff                	0xffff
    12dc:	ffff                	0xffff
    12de:	ffff                	0xffff
    12e0:	ffff                	0xffff
    12e2:	ffff                	0xffff
    12e4:	ffff                	0xffff
    12e6:	ffff                	0xffff
    12e8:	ffff                	0xffff
    12ea:	ffff                	0xffff
    12ec:	ffff                	0xffff
    12ee:	ffff                	0xffff
    12f0:	ffff                	0xffff
    12f2:	ffff                	0xffff
    12f4:	ffff                	0xffff
    12f6:	ffff                	0xffff
    12f8:	ffff                	0xffff
    12fa:	ffff                	0xffff
    12fc:	ffff                	0xffff
    12fe:	ffff                	0xffff
    1300:	ffff                	0xffff
    1302:	ffff                	0xffff
    1304:	ffff                	0xffff
    1306:	ffff                	0xffff
    1308:	ffff                	0xffff
    130a:	ffff                	0xffff
    130c:	ffff                	0xffff
    130e:	ffff                	0xffff
    1310:	ffff                	0xffff
    1312:	ffff                	0xffff
    1314:	ffff                	0xffff
    1316:	ffff                	0xffff
    1318:	ffff                	0xffff
    131a:	ffff                	0xffff
    131c:	ffff                	0xffff
    131e:	ffff                	0xffff
    1320:	ffff                	0xffff
    1322:	ffff                	0xffff
    1324:	ffff                	0xffff
    1326:	ffff                	0xffff
    1328:	ffff                	0xffff
    132a:	ffff                	0xffff
    132c:	ffff                	0xffff
    132e:	ffff                	0xffff
    1330:	ffff                	0xffff
    1332:	ffff                	0xffff
    1334:	ffff                	0xffff
    1336:	ffff                	0xffff
    1338:	ffff                	0xffff
    133a:	ffff                	0xffff
    133c:	ffff                	0xffff
    133e:	ffff                	0xffff
    1340:	ffff                	0xffff
    1342:	ffff                	0xffff
    1344:	ffff                	0xffff
    1346:	ffff                	0xffff
    1348:	ffff                	0xffff
    134a:	ffff                	0xffff
    134c:	ffff                	0xffff
    134e:	ffff                	0xffff
    1350:	ffff                	0xffff
    1352:	ffff                	0xffff
    1354:	ffff                	0xffff
    1356:	ffff                	0xffff
    1358:	ffff                	0xffff
    135a:	ffff                	0xffff
    135c:	ffff                	0xffff
    135e:	ffff                	0xffff
    1360:	ffff                	0xffff
    1362:	ffff                	0xffff
    1364:	ffff                	0xffff
    1366:	ffff                	0xffff
    1368:	ffff                	0xffff
    136a:	ffff                	0xffff
    136c:	ffff                	0xffff
    136e:	ffff                	0xffff
    1370:	ffff                	0xffff
    1372:	ffff                	0xffff
    1374:	ffff                	0xffff
    1376:	ffff                	0xffff
    1378:	ffff                	0xffff
    137a:	ffff                	0xffff
    137c:	ffff                	0xffff
    137e:	ffff                	0xffff
    1380:	ffff                	0xffff
    1382:	ffff                	0xffff
    1384:	ffff                	0xffff
    1386:	ffff                	0xffff
    1388:	ffff                	0xffff
    138a:	ffff                	0xffff
    138c:	ffff                	0xffff
    138e:	ffff                	0xffff
    1390:	ffff                	0xffff
    1392:	ffff                	0xffff
    1394:	ffff                	0xffff
    1396:	ffff                	0xffff
    1398:	ffff                	0xffff
    139a:	ffff                	0xffff
    139c:	ffff                	0xffff
    139e:	ffff                	0xffff
    13a0:	ffff                	0xffff
    13a2:	ffff                	0xffff
    13a4:	ffff                	0xffff
    13a6:	ffff                	0xffff
    13a8:	ffff                	0xffff
    13aa:	ffff                	0xffff
    13ac:	ffff                	0xffff
    13ae:	ffff                	0xffff
    13b0:	ffff                	0xffff
    13b2:	ffff                	0xffff
    13b4:	ffff                	0xffff
    13b6:	ffff                	0xffff
    13b8:	ffff                	0xffff
    13ba:	ffff                	0xffff
    13bc:	ffff                	0xffff
    13be:	ffff                	0xffff
    13c0:	ffff                	0xffff
    13c2:	ffff                	0xffff
    13c4:	ffff                	0xffff
    13c6:	ffff                	0xffff
    13c8:	ffff                	0xffff
    13ca:	ffff                	0xffff
    13cc:	ffff                	0xffff
    13ce:	ffff                	0xffff
    13d0:	ffff                	0xffff
    13d2:	ffff                	0xffff
    13d4:	ffff                	0xffff
    13d6:	ffff                	0xffff
    13d8:	ffff                	0xffff
    13da:	ffff                	0xffff
    13dc:	ffff                	0xffff
    13de:	ffff                	0xffff
    13e0:	ffff                	0xffff
    13e2:	ffff                	0xffff
    13e4:	ffff                	0xffff
    13e6:	ffff                	0xffff
    13e8:	ffff                	0xffff
    13ea:	ffff                	0xffff
    13ec:	ffff                	0xffff
    13ee:	ffff                	0xffff
    13f0:	ffff                	0xffff
    13f2:	ffff                	0xffff
    13f4:	ffff                	0xffff
    13f6:	ffff                	0xffff
    13f8:	ffff                	0xffff
    13fa:	ffff                	0xffff
    13fc:	ffff                	0xffff
    13fe:	ffff                	0xffff
    1400:	ffff                	0xffff
    1402:	ffff                	0xffff
    1404:	ffff                	0xffff
    1406:	ffff                	0xffff
    1408:	ffff                	0xffff
    140a:	ffff                	0xffff
    140c:	ffff                	0xffff
    140e:	ffff                	0xffff
    1410:	ffff                	0xffff
    1412:	ffff                	0xffff
    1414:	ffff                	0xffff
    1416:	ffff                	0xffff
    1418:	ffff                	0xffff
    141a:	ffff                	0xffff
    141c:	ffff                	0xffff
    141e:	ffff                	0xffff
    1420:	ffff                	0xffff
    1422:	ffff                	0xffff
    1424:	ffff                	0xffff
    1426:	ffff                	0xffff
    1428:	ffff                	0xffff
    142a:	ffff                	0xffff
    142c:	ffff                	0xffff
    142e:	ffff                	0xffff
    1430:	ffff                	0xffff
    1432:	ffff                	0xffff
    1434:	ffff                	0xffff
    1436:	ffff                	0xffff
    1438:	ffff                	0xffff
    143a:	ffff                	0xffff
    143c:	ffff                	0xffff
    143e:	ffff                	0xffff
    1440:	ffff                	0xffff
    1442:	ffff                	0xffff
    1444:	ffff                	0xffff
    1446:	ffff                	0xffff
    1448:	ffff                	0xffff
    144a:	ffff                	0xffff
    144c:	ffff                	0xffff
    144e:	ffff                	0xffff
    1450:	ffff                	0xffff
    1452:	ffff                	0xffff
    1454:	ffff                	0xffff
    1456:	ffff                	0xffff
    1458:	ffff                	0xffff
    145a:	ffff                	0xffff
    145c:	ffff                	0xffff
    145e:	ffff                	0xffff
    1460:	ffff                	0xffff
    1462:	ffff                	0xffff
    1464:	ffff                	0xffff
    1466:	ffff                	0xffff
    1468:	ffff                	0xffff
    146a:	ffff                	0xffff
    146c:	ffff                	0xffff
    146e:	ffff                	0xffff
    1470:	ffff                	0xffff
    1472:	ffff                	0xffff
    1474:	ffff                	0xffff
    1476:	ffff                	0xffff
    1478:	ffff                	0xffff
    147a:	ffff                	0xffff
    147c:	ffff                	0xffff
    147e:	ffff                	0xffff
    1480:	ffff                	0xffff
    1482:	ffff                	0xffff
    1484:	ffff                	0xffff
    1486:	ffff                	0xffff
    1488:	ffff                	0xffff
    148a:	ffff                	0xffff
    148c:	ffff                	0xffff
    148e:	ffff                	0xffff
    1490:	ffff                	0xffff
    1492:	ffff                	0xffff
    1494:	ffff                	0xffff
    1496:	ffff                	0xffff
    1498:	ffff                	0xffff
    149a:	ffff                	0xffff
    149c:	ffff                	0xffff
    149e:	ffff                	0xffff
    14a0:	ffff                	0xffff
    14a2:	ffff                	0xffff
    14a4:	ffff                	0xffff
    14a6:	ffff                	0xffff
    14a8:	ffff                	0xffff
    14aa:	ffff                	0xffff
    14ac:	ffff                	0xffff
    14ae:	ffff                	0xffff
    14b0:	ffff                	0xffff
    14b2:	ffff                	0xffff
    14b4:	ffff                	0xffff
    14b6:	ffff                	0xffff
    14b8:	ffff                	0xffff
    14ba:	ffff                	0xffff
    14bc:	ffff                	0xffff
    14be:	ffff                	0xffff
    14c0:	ffff                	0xffff
    14c2:	ffff                	0xffff
    14c4:	ffff                	0xffff
    14c6:	ffff                	0xffff
    14c8:	ffff                	0xffff
    14ca:	ffff                	0xffff
    14cc:	ffff                	0xffff
    14ce:	ffff                	0xffff
    14d0:	ffff                	0xffff
    14d2:	ffff                	0xffff
    14d4:	ffff                	0xffff
    14d6:	ffff                	0xffff
    14d8:	ffff                	0xffff
    14da:	ffff                	0xffff
    14dc:	ffff                	0xffff
    14de:	ffff                	0xffff
    14e0:	ffff                	0xffff
    14e2:	ffff                	0xffff
    14e4:	ffff                	0xffff
    14e6:	ffff                	0xffff
    14e8:	ffff                	0xffff
    14ea:	ffff                	0xffff
    14ec:	ffff                	0xffff
    14ee:	ffff                	0xffff
    14f0:	ffff                	0xffff
    14f2:	ffff                	0xffff
    14f4:	ffff                	0xffff
    14f6:	ffff                	0xffff
    14f8:	ffff                	0xffff
    14fa:	ffff                	0xffff
    14fc:	ffff                	0xffff
    14fe:	ffff                	0xffff
    1500:	ffff                	0xffff
    1502:	ffff                	0xffff
    1504:	ffff                	0xffff
    1506:	ffff                	0xffff
    1508:	ffff                	0xffff
    150a:	ffff                	0xffff
    150c:	ffff                	0xffff
    150e:	ffff                	0xffff
    1510:	ffff                	0xffff
    1512:	ffff                	0xffff
    1514:	ffff                	0xffff
    1516:	ffff                	0xffff
    1518:	ffff                	0xffff
    151a:	ffff                	0xffff
    151c:	ffff                	0xffff
    151e:	ffff                	0xffff
    1520:	ffff                	0xffff
    1522:	ffff                	0xffff
    1524:	ffff                	0xffff
    1526:	ffff                	0xffff
    1528:	ffff                	0xffff
    152a:	ffff                	0xffff
    152c:	ffff                	0xffff
    152e:	ffff                	0xffff
    1530:	ffff                	0xffff
    1532:	ffff                	0xffff
    1534:	ffff                	0xffff
    1536:	ffff                	0xffff
    1538:	ffff                	0xffff
    153a:	ffff                	0xffff
    153c:	ffff                	0xffff
    153e:	ffff                	0xffff
    1540:	ffff                	0xffff
    1542:	ffff                	0xffff
    1544:	ffff                	0xffff
    1546:	ffff                	0xffff
    1548:	ffff                	0xffff
    154a:	ffff                	0xffff
    154c:	ffff                	0xffff
    154e:	ffff                	0xffff
    1550:	ffff                	0xffff
    1552:	ffff                	0xffff
    1554:	ffff                	0xffff
    1556:	ffff                	0xffff
    1558:	ffff                	0xffff
    155a:	ffff                	0xffff
    155c:	ffff                	0xffff
    155e:	ffff                	0xffff
    1560:	ffff                	0xffff
    1562:	ffff                	0xffff
    1564:	ffff                	0xffff
    1566:	ffff                	0xffff
    1568:	ffff                	0xffff
    156a:	ffff                	0xffff
    156c:	ffff                	0xffff
    156e:	ffff                	0xffff
    1570:	ffff                	0xffff
    1572:	ffff                	0xffff
    1574:	ffff                	0xffff
    1576:	ffff                	0xffff
    1578:	ffff                	0xffff
    157a:	ffff                	0xffff
    157c:	ffff                	0xffff
    157e:	ffff                	0xffff
    1580:	ffff                	0xffff
    1582:	ffff                	0xffff
    1584:	ffff                	0xffff
    1586:	ffff                	0xffff
    1588:	ffff                	0xffff
    158a:	ffff                	0xffff
    158c:	ffff                	0xffff
    158e:	ffff                	0xffff
    1590:	ffff                	0xffff
    1592:	ffff                	0xffff
    1594:	ffff                	0xffff
    1596:	ffff                	0xffff
    1598:	ffff                	0xffff
    159a:	ffff                	0xffff
    159c:	ffff                	0xffff
    159e:	ffff                	0xffff
    15a0:	ffff                	0xffff
    15a2:	ffff                	0xffff
    15a4:	ffff                	0xffff
    15a6:	ffff                	0xffff
    15a8:	ffff                	0xffff
    15aa:	ffff                	0xffff
    15ac:	ffff                	0xffff
    15ae:	ffff                	0xffff
    15b0:	ffff                	0xffff
    15b2:	ffff                	0xffff
    15b4:	ffff                	0xffff
    15b6:	ffff                	0xffff
    15b8:	ffff                	0xffff
    15ba:	ffff                	0xffff
    15bc:	ffff                	0xffff
    15be:	ffff                	0xffff
    15c0:	ffff                	0xffff
    15c2:	ffff                	0xffff
    15c4:	ffff                	0xffff
    15c6:	ffff                	0xffff
    15c8:	ffff                	0xffff
    15ca:	ffff                	0xffff
    15cc:	ffff                	0xffff
    15ce:	ffff                	0xffff
    15d0:	ffff                	0xffff
    15d2:	ffff                	0xffff
    15d4:	ffff                	0xffff
    15d6:	ffff                	0xffff
    15d8:	ffff                	0xffff
    15da:	ffff                	0xffff
    15dc:	ffff                	0xffff
    15de:	ffff                	0xffff
    15e0:	ffff                	0xffff
    15e2:	ffff                	0xffff
    15e4:	ffff                	0xffff
    15e6:	ffff                	0xffff
    15e8:	ffff                	0xffff
    15ea:	ffff                	0xffff
    15ec:	ffff                	0xffff
    15ee:	ffff                	0xffff
    15f0:	ffff                	0xffff
    15f2:	ffff                	0xffff
    15f4:	ffff                	0xffff
    15f6:	ffff                	0xffff
    15f8:	ffff                	0xffff
    15fa:	ffff                	0xffff
    15fc:	ffff                	0xffff
    15fe:	ffff                	0xffff
    1600:	ffff                	0xffff
    1602:	ffff                	0xffff
    1604:	ffff                	0xffff
    1606:	ffff                	0xffff
    1608:	ffff                	0xffff
    160a:	ffff                	0xffff
    160c:	ffff                	0xffff
    160e:	ffff                	0xffff
    1610:	ffff                	0xffff
    1612:	ffff                	0xffff
    1614:	ffff                	0xffff
    1616:	ffff                	0xffff
    1618:	ffff                	0xffff
    161a:	ffff                	0xffff
    161c:	ffff                	0xffff
    161e:	ffff                	0xffff
    1620:	ffff                	0xffff
    1622:	ffff                	0xffff
    1624:	ffff                	0xffff
    1626:	ffff                	0xffff
    1628:	ffff                	0xffff
    162a:	ffff                	0xffff
    162c:	ffff                	0xffff
    162e:	ffff                	0xffff
    1630:	ffff                	0xffff
    1632:	ffff                	0xffff
    1634:	ffff                	0xffff
    1636:	ffff                	0xffff
    1638:	ffff                	0xffff
    163a:	ffff                	0xffff
    163c:	ffff                	0xffff
    163e:	ffff                	0xffff
    1640:	ffff                	0xffff
    1642:	ffff                	0xffff
    1644:	ffff                	0xffff
    1646:	ffff                	0xffff
    1648:	ffff                	0xffff
    164a:	ffff                	0xffff
    164c:	ffff                	0xffff
    164e:	ffff                	0xffff
    1650:	ffff                	0xffff
    1652:	ffff                	0xffff
    1654:	ffff                	0xffff
    1656:	ffff                	0xffff
    1658:	ffff                	0xffff
    165a:	ffff                	0xffff
    165c:	ffff                	0xffff
    165e:	ffff                	0xffff
    1660:	ffff                	0xffff
    1662:	ffff                	0xffff
    1664:	ffff                	0xffff
    1666:	ffff                	0xffff
    1668:	ffff                	0xffff
    166a:	ffff                	0xffff
    166c:	ffff                	0xffff
    166e:	ffff                	0xffff
    1670:	ffff                	0xffff
    1672:	ffff                	0xffff
    1674:	ffff                	0xffff
    1676:	ffff                	0xffff
    1678:	ffff                	0xffff
    167a:	ffff                	0xffff
    167c:	ffff                	0xffff
    167e:	ffff                	0xffff
    1680:	ffff                	0xffff
    1682:	ffff                	0xffff
    1684:	ffff                	0xffff
    1686:	ffff                	0xffff
    1688:	ffff                	0xffff
    168a:	ffff                	0xffff
    168c:	ffff                	0xffff
    168e:	ffff                	0xffff
    1690:	ffff                	0xffff
    1692:	ffff                	0xffff
    1694:	ffff                	0xffff
    1696:	ffff                	0xffff
    1698:	ffff                	0xffff
    169a:	ffff                	0xffff
    169c:	ffff                	0xffff
    169e:	ffff                	0xffff
    16a0:	ffff                	0xffff
    16a2:	ffff                	0xffff
    16a4:	ffff                	0xffff
    16a6:	ffff                	0xffff
    16a8:	ffff                	0xffff
    16aa:	ffff                	0xffff
    16ac:	ffff                	0xffff
    16ae:	ffff                	0xffff
    16b0:	ffff                	0xffff
    16b2:	ffff                	0xffff
    16b4:	ffff                	0xffff
    16b6:	ffff                	0xffff
    16b8:	ffff                	0xffff
    16ba:	ffff                	0xffff
    16bc:	ffff                	0xffff
    16be:	ffff                	0xffff
    16c0:	ffff                	0xffff
    16c2:	ffff                	0xffff
    16c4:	ffff                	0xffff
    16c6:	ffff                	0xffff
    16c8:	ffff                	0xffff
    16ca:	ffff                	0xffff
    16cc:	ffff                	0xffff
    16ce:	ffff                	0xffff
    16d0:	ffff                	0xffff
    16d2:	ffff                	0xffff
    16d4:	ffff                	0xffff
    16d6:	ffff                	0xffff
    16d8:	ffff                	0xffff
    16da:	ffff                	0xffff
    16dc:	ffff                	0xffff
    16de:	ffff                	0xffff
    16e0:	ffff                	0xffff
    16e2:	ffff                	0xffff
    16e4:	ffff                	0xffff
    16e6:	ffff                	0xffff
    16e8:	ffff                	0xffff
    16ea:	ffff                	0xffff
    16ec:	ffff                	0xffff
    16ee:	ffff                	0xffff
    16f0:	ffff                	0xffff
    16f2:	ffff                	0xffff
    16f4:	ffff                	0xffff
    16f6:	ffff                	0xffff
    16f8:	ffff                	0xffff
    16fa:	ffff                	0xffff
    16fc:	ffff                	0xffff
    16fe:	ffff                	0xffff
    1700:	ffff                	0xffff
    1702:	ffff                	0xffff
    1704:	ffff                	0xffff
    1706:	ffff                	0xffff
    1708:	ffff                	0xffff
    170a:	ffff                	0xffff
    170c:	ffff                	0xffff
    170e:	ffff                	0xffff
    1710:	ffff                	0xffff
    1712:	ffff                	0xffff
    1714:	ffff                	0xffff
    1716:	ffff                	0xffff
    1718:	ffff                	0xffff
    171a:	ffff                	0xffff
    171c:	ffff                	0xffff
    171e:	ffff                	0xffff
    1720:	ffff                	0xffff
    1722:	ffff                	0xffff
    1724:	ffff                	0xffff
    1726:	ffff                	0xffff
    1728:	ffff                	0xffff
    172a:	ffff                	0xffff
    172c:	ffff                	0xffff
    172e:	ffff                	0xffff
    1730:	ffff                	0xffff
    1732:	ffff                	0xffff
    1734:	ffff                	0xffff
    1736:	ffff                	0xffff
    1738:	ffff                	0xffff
    173a:	ffff                	0xffff
    173c:	ffff                	0xffff
    173e:	ffff                	0xffff
    1740:	ffff                	0xffff
    1742:	ffff                	0xffff
    1744:	ffff                	0xffff
    1746:	ffff                	0xffff
    1748:	ffff                	0xffff
    174a:	ffff                	0xffff
    174c:	ffff                	0xffff
    174e:	ffff                	0xffff
    1750:	ffff                	0xffff
    1752:	ffff                	0xffff
    1754:	ffff                	0xffff
    1756:	ffff                	0xffff
    1758:	ffff                	0xffff
    175a:	ffff                	0xffff
    175c:	ffff                	0xffff
    175e:	ffff                	0xffff
    1760:	ffff                	0xffff
    1762:	ffff                	0xffff
    1764:	ffff                	0xffff
    1766:	ffff                	0xffff
    1768:	ffff                	0xffff
    176a:	ffff                	0xffff
    176c:	ffff                	0xffff
    176e:	ffff                	0xffff
    1770:	ffff                	0xffff
    1772:	ffff                	0xffff
    1774:	ffff                	0xffff
    1776:	ffff                	0xffff
    1778:	ffff                	0xffff
    177a:	ffff                	0xffff
    177c:	ffff                	0xffff
    177e:	ffff                	0xffff
    1780:	ffff                	0xffff
    1782:	ffff                	0xffff
    1784:	ffff                	0xffff
    1786:	ffff                	0xffff
    1788:	ffff                	0xffff
    178a:	ffff                	0xffff
    178c:	ffff                	0xffff
    178e:	ffff                	0xffff
    1790:	ffff                	0xffff
    1792:	ffff                	0xffff
    1794:	ffff                	0xffff
    1796:	ffff                	0xffff
    1798:	ffff                	0xffff
    179a:	ffff                	0xffff
    179c:	ffff                	0xffff
    179e:	ffff                	0xffff
    17a0:	ffff                	0xffff
    17a2:	ffff                	0xffff
    17a4:	ffff                	0xffff
    17a6:	ffff                	0xffff
    17a8:	ffff                	0xffff
    17aa:	ffff                	0xffff
    17ac:	ffff                	0xffff
    17ae:	ffff                	0xffff
    17b0:	ffff                	0xffff
    17b2:	ffff                	0xffff
    17b4:	ffff                	0xffff
    17b6:	ffff                	0xffff
    17b8:	ffff                	0xffff
    17ba:	ffff                	0xffff
    17bc:	ffff                	0xffff
    17be:	ffff                	0xffff
    17c0:	ffff                	0xffff
    17c2:	ffff                	0xffff
    17c4:	ffff                	0xffff
    17c6:	ffff                	0xffff
    17c8:	ffff                	0xffff
    17ca:	ffff                	0xffff
    17cc:	ffff                	0xffff
    17ce:	ffff                	0xffff
    17d0:	ffff                	0xffff
    17d2:	ffff                	0xffff
    17d4:	ffff                	0xffff
    17d6:	ffff                	0xffff
    17d8:	ffff                	0xffff
    17da:	ffff                	0xffff
    17dc:	ffff                	0xffff
    17de:	ffff                	0xffff
    17e0:	ffff                	0xffff
    17e2:	ffff                	0xffff
    17e4:	ffff                	0xffff
    17e6:	ffff                	0xffff
    17e8:	ffff                	0xffff
    17ea:	ffff                	0xffff
    17ec:	ffff                	0xffff
    17ee:	ffff                	0xffff
    17f0:	ffff                	0xffff
    17f2:	ffff                	0xffff
    17f4:	ffff                	0xffff
    17f6:	ffff                	0xffff
    17f8:	ffff                	0xffff
    17fa:	ffff                	0xffff
    17fc:	ffff                	0xffff
    17fe:	ffff                	0xffff
    1800:	ffff                	0xffff
    1802:	ffff                	0xffff
    1804:	ffff                	0xffff
    1806:	ffff                	0xffff
    1808:	ffff                	0xffff
    180a:	ffff                	0xffff
    180c:	ffff                	0xffff
    180e:	ffff                	0xffff
    1810:	ffff                	0xffff
    1812:	ffff                	0xffff
    1814:	ffff                	0xffff
    1816:	ffff                	0xffff
    1818:	ffff                	0xffff
    181a:	ffff                	0xffff
    181c:	ffff                	0xffff
    181e:	ffff                	0xffff
    1820:	ffff                	0xffff
    1822:	ffff                	0xffff
    1824:	ffff                	0xffff
    1826:	ffff                	0xffff
    1828:	ffff                	0xffff
    182a:	ffff                	0xffff
    182c:	ffff                	0xffff
    182e:	ffff                	0xffff
    1830:	ffff                	0xffff
    1832:	ffff                	0xffff
    1834:	ffff                	0xffff
    1836:	ffff                	0xffff
    1838:	ffff                	0xffff
    183a:	ffff                	0xffff
    183c:	ffff                	0xffff
    183e:	ffff                	0xffff
    1840:	ffff                	0xffff
    1842:	ffff                	0xffff
    1844:	ffff                	0xffff
    1846:	ffff                	0xffff
    1848:	ffff                	0xffff
    184a:	ffff                	0xffff
    184c:	ffff                	0xffff
    184e:	ffff                	0xffff
    1850:	ffff                	0xffff
    1852:	ffff                	0xffff
    1854:	ffff                	0xffff
    1856:	ffff                	0xffff
    1858:	ffff                	0xffff
    185a:	ffff                	0xffff
    185c:	ffff                	0xffff
    185e:	ffff                	0xffff
    1860:	ffff                	0xffff
    1862:	ffff                	0xffff
    1864:	ffff                	0xffff
    1866:	ffff                	0xffff
    1868:	ffff                	0xffff
    186a:	ffff                	0xffff
    186c:	ffff                	0xffff
    186e:	ffff                	0xffff
    1870:	ffff                	0xffff
    1872:	ffff                	0xffff
    1874:	ffff                	0xffff
    1876:	ffff                	0xffff
    1878:	ffff                	0xffff
    187a:	ffff                	0xffff
    187c:	ffff                	0xffff
    187e:	ffff                	0xffff
    1880:	ffff                	0xffff
    1882:	ffff                	0xffff
    1884:	ffff                	0xffff
    1886:	ffff                	0xffff
    1888:	ffff                	0xffff
    188a:	ffff                	0xffff
    188c:	ffff                	0xffff
    188e:	ffff                	0xffff
    1890:	ffff                	0xffff
    1892:	ffff                	0xffff
    1894:	ffff                	0xffff
    1896:	ffff                	0xffff
    1898:	ffff                	0xffff
    189a:	ffff                	0xffff
    189c:	ffff                	0xffff
    189e:	ffff                	0xffff
    18a0:	ffff                	0xffff
    18a2:	ffff                	0xffff
    18a4:	ffff                	0xffff
    18a6:	ffff                	0xffff
    18a8:	ffff                	0xffff
    18aa:	ffff                	0xffff
    18ac:	ffff                	0xffff
    18ae:	ffff                	0xffff
    18b0:	ffff                	0xffff
    18b2:	ffff                	0xffff
    18b4:	ffff                	0xffff
    18b6:	ffff                	0xffff
    18b8:	ffff                	0xffff
    18ba:	ffff                	0xffff
    18bc:	ffff                	0xffff
    18be:	ffff                	0xffff
    18c0:	ffff                	0xffff
    18c2:	ffff                	0xffff
    18c4:	ffff                	0xffff
    18c6:	ffff                	0xffff
    18c8:	ffff                	0xffff
    18ca:	ffff                	0xffff
    18cc:	ffff                	0xffff
    18ce:	ffff                	0xffff
    18d0:	ffff                	0xffff
    18d2:	ffff                	0xffff
    18d4:	ffff                	0xffff
    18d6:	ffff                	0xffff
    18d8:	ffff                	0xffff
    18da:	ffff                	0xffff
    18dc:	ffff                	0xffff
    18de:	ffff                	0xffff
    18e0:	ffff                	0xffff
    18e2:	ffff                	0xffff
    18e4:	ffff                	0xffff
    18e6:	ffff                	0xffff
    18e8:	ffff                	0xffff
    18ea:	ffff                	0xffff
    18ec:	ffff                	0xffff
    18ee:	ffff                	0xffff
    18f0:	ffff                	0xffff
    18f2:	ffff                	0xffff
    18f4:	ffff                	0xffff
    18f6:	ffff                	0xffff
    18f8:	ffff                	0xffff
    18fa:	ffff                	0xffff
    18fc:	ffff                	0xffff
    18fe:	ffff                	0xffff
    1900:	ffff                	0xffff
    1902:	ffff                	0xffff
    1904:	ffff                	0xffff
    1906:	ffff                	0xffff
    1908:	ffff                	0xffff
    190a:	ffff                	0xffff
    190c:	ffff                	0xffff
    190e:	ffff                	0xffff
    1910:	ffff                	0xffff
    1912:	ffff                	0xffff
    1914:	ffff                	0xffff
    1916:	ffff                	0xffff
    1918:	ffff                	0xffff
    191a:	ffff                	0xffff
    191c:	ffff                	0xffff
    191e:	ffff                	0xffff
    1920:	ffff                	0xffff
    1922:	ffff                	0xffff
    1924:	ffff                	0xffff
    1926:	ffff                	0xffff
    1928:	ffff                	0xffff
    192a:	ffff                	0xffff
    192c:	ffff                	0xffff
    192e:	ffff                	0xffff
    1930:	ffff                	0xffff
    1932:	ffff                	0xffff
    1934:	ffff                	0xffff
    1936:	ffff                	0xffff
    1938:	ffff                	0xffff
    193a:	ffff                	0xffff
    193c:	ffff                	0xffff
    193e:	ffff                	0xffff
    1940:	ffff                	0xffff
    1942:	ffff                	0xffff
    1944:	ffff                	0xffff
    1946:	ffff                	0xffff
    1948:	ffff                	0xffff
    194a:	ffff                	0xffff
    194c:	ffff                	0xffff
    194e:	ffff                	0xffff
    1950:	ffff                	0xffff
    1952:	ffff                	0xffff
    1954:	ffff                	0xffff
    1956:	ffff                	0xffff
    1958:	ffff                	0xffff
    195a:	ffff                	0xffff
    195c:	ffff                	0xffff
    195e:	ffff                	0xffff
    1960:	ffff                	0xffff
    1962:	ffff                	0xffff
    1964:	ffff                	0xffff
    1966:	ffff                	0xffff
    1968:	ffff                	0xffff
    196a:	ffff                	0xffff
    196c:	ffff                	0xffff
    196e:	ffff                	0xffff
    1970:	ffff                	0xffff
    1972:	ffff                	0xffff
    1974:	ffff                	0xffff
    1976:	ffff                	0xffff
    1978:	ffff                	0xffff
    197a:	ffff                	0xffff
    197c:	ffff                	0xffff
    197e:	ffff                	0xffff
    1980:	ffff                	0xffff
    1982:	ffff                	0xffff
    1984:	ffff                	0xffff
    1986:	ffff                	0xffff
    1988:	ffff                	0xffff
    198a:	ffff                	0xffff
    198c:	ffff                	0xffff
    198e:	ffff                	0xffff
    1990:	ffff                	0xffff
    1992:	ffff                	0xffff
    1994:	ffff                	0xffff
    1996:	ffff                	0xffff
    1998:	ffff                	0xffff
    199a:	ffff                	0xffff
    199c:	ffff                	0xffff
    199e:	ffff                	0xffff
    19a0:	ffff                	0xffff
    19a2:	ffff                	0xffff
    19a4:	ffff                	0xffff
    19a6:	ffff                	0xffff
    19a8:	ffff                	0xffff
    19aa:	ffff                	0xffff
    19ac:	ffff                	0xffff
    19ae:	ffff                	0xffff
    19b0:	ffff                	0xffff
    19b2:	ffff                	0xffff
    19b4:	ffff                	0xffff
    19b6:	ffff                	0xffff
    19b8:	ffff                	0xffff
    19ba:	ffff                	0xffff
    19bc:	ffff                	0xffff
    19be:	ffff                	0xffff
    19c0:	ffff                	0xffff
    19c2:	ffff                	0xffff
    19c4:	ffff                	0xffff
    19c6:	ffff                	0xffff
    19c8:	ffff                	0xffff
    19ca:	ffff                	0xffff
    19cc:	ffff                	0xffff
    19ce:	ffff                	0xffff
    19d0:	ffff                	0xffff
    19d2:	ffff                	0xffff
    19d4:	ffff                	0xffff
    19d6:	ffff                	0xffff
    19d8:	ffff                	0xffff
    19da:	ffff                	0xffff
    19dc:	ffff                	0xffff
    19de:	ffff                	0xffff
    19e0:	ffff                	0xffff
    19e2:	ffff                	0xffff
    19e4:	ffff                	0xffff
    19e6:	ffff                	0xffff
    19e8:	ffff                	0xffff
    19ea:	ffff                	0xffff
    19ec:	ffff                	0xffff
    19ee:	ffff                	0xffff
    19f0:	ffff                	0xffff
    19f2:	ffff                	0xffff
    19f4:	ffff                	0xffff
    19f6:	ffff                	0xffff
    19f8:	ffff                	0xffff
    19fa:	ffff                	0xffff
    19fc:	ffff                	0xffff
    19fe:	ffff                	0xffff
    1a00:	ffff                	0xffff
    1a02:	ffff                	0xffff
    1a04:	ffff                	0xffff
    1a06:	ffff                	0xffff
    1a08:	ffff                	0xffff
    1a0a:	ffff                	0xffff
    1a0c:	ffff                	0xffff
    1a0e:	ffff                	0xffff
    1a10:	ffff                	0xffff
    1a12:	ffff                	0xffff
    1a14:	ffff                	0xffff
    1a16:	ffff                	0xffff
    1a18:	ffff                	0xffff
    1a1a:	ffff                	0xffff
    1a1c:	ffff                	0xffff
    1a1e:	ffff                	0xffff
    1a20:	ffff                	0xffff
    1a22:	ffff                	0xffff
    1a24:	ffff                	0xffff
    1a26:	ffff                	0xffff
    1a28:	ffff                	0xffff
    1a2a:	ffff                	0xffff
    1a2c:	ffff                	0xffff
    1a2e:	ffff                	0xffff
    1a30:	ffff                	0xffff
    1a32:	ffff                	0xffff
    1a34:	ffff                	0xffff
    1a36:	ffff                	0xffff
    1a38:	ffff                	0xffff
    1a3a:	ffff                	0xffff
    1a3c:	ffff                	0xffff
    1a3e:	ffff                	0xffff
    1a40:	ffff                	0xffff
    1a42:	ffff                	0xffff
    1a44:	ffff                	0xffff
    1a46:	ffff                	0xffff
    1a48:	ffff                	0xffff
    1a4a:	ffff                	0xffff
    1a4c:	ffff                	0xffff
    1a4e:	ffff                	0xffff
    1a50:	ffff                	0xffff
    1a52:	ffff                	0xffff
    1a54:	ffff                	0xffff
    1a56:	ffff                	0xffff

Disassembly of section .comment:

00000000 <.comment>:
   0:	3a434347          	fmsub.d	ft6,ft6,ft4,ft7,rmm
   4:	2820                	fld	fs0,80(s0)
   6:	29554e47          	fmsub.s	ft8,fa0,fs5,ft5,rmm
   a:	3720                	fld	fs0,104(a4)
   c:	322e                	fld	ft4,232(sp)
   e:	302e                	fld	ft0,232(sp)
  10:	00              	Address 0x0000000000000010 is out of bounds.

