
qsort.riscv:     file format elf32-littleriscv


Disassembly of section .text:

00000000 <_start>:
   0:	00000093          	li	ra,0
   4:	00000113          	li	sp,0
   8:	00000193          	li	gp,0
   c:	00000213          	li	tp,0
  10:	00000293          	li	t0,0
  14:	00000313          	li	t1,0
  18:	00000393          	li	t2,0
  1c:	00000413          	li	s0,0
  20:	00000493          	li	s1,0
  24:	00000513          	li	a0,0
  28:	00000593          	li	a1,0
  2c:	00000613          	li	a2,0
  30:	00000693          	li	a3,0
  34:	00000713          	li	a4,0
  38:	00000793          	li	a5,0
  3c:	00000813          	li	a6,0
  40:	00000893          	li	a7,0
  44:	00000913          	li	s2,0
  48:	00000993          	li	s3,0
  4c:	00000a13          	li	s4,0
  50:	00000a93          	li	s5,0
  54:	00000b13          	li	s6,0
  58:	00000b93          	li	s7,0
  5c:	00000c13          	li	s8,0
  60:	00000c93          	li	s9,0
  64:	00000d13          	li	s10,0
  68:	00000d93          	li	s11,0
  6c:	00000e13          	li	t3,0
  70:	00000e93          	li	t4,0
  74:	00000f13          	li	t5,0
  78:	00000f93          	li	t6,0
  7c:	00006117          	auipc	sp,0x6
  80:	62010113          	addi	sp,sp,1568 # 669c <STACK>
  84:	388000ef          	jal	ra,40c <main>
  88:	3f80006f          	j	480 <end>

0000008c <sort>:
  8c:	f3010113          	addi	sp,sp,-208
  90:	00251513          	slli	a0,a0,0x2
  94:	00810e93          	addi	t4,sp,8
  98:	40000f37          	lui	t5,0x40000
  9c:	00a58fb3          	add	t6,a1,a0
  a0:	00458613          	addi	a2,a1,4
  a4:	000e8313          	mv	t1,t4
  a8:	02400e13          	li	t3,36
  ac:	ffff0f13          	addi	t5,t5,-1 # 3fffffff <STACK+0x3fff9963>
  b0:	40cf8833          	sub	a6,t6,a2
  b4:	050e4c63          	blt	t3,a6,10c <sort+0x80>
  b8:	ffc87813          	andi	a6,a6,-4
  bc:	01060833          	add	a6,a2,a6
  c0:	ffc60513          	addi	a0,a2,-4
  c4:	03067863          	bleu	a6,a2,f4 <sort+0x68>
  c8:	00062683          	lw	a3,0(a2)
  cc:	00060793          	mv	a5,a2
  d0:	0100006f          	j	e0 <sort+0x54>
  d4:	00e7a023          	sw	a4,0(a5)
  d8:	ffc78793          	addi	a5,a5,-4
  dc:	00f50663          	beq	a0,a5,e8 <sort+0x5c>
  e0:	ffc7a703          	lw	a4,-4(a5)
  e4:	fee6c8e3          	blt	a3,a4,d4 <sort+0x48>
  e8:	00d7a023          	sw	a3,0(a5)
  ec:	00460613          	addi	a2,a2,4
  f0:	fd066ce3          	bltu	a2,a6,c8 <sort+0x3c>
  f4:	13d30463          	beq	t1,t4,21c <sort+0x190>
  f8:	00032f83          	lw	t6,0(t1)
  fc:	ffc32603          	lw	a2,-4(t1)
 100:	ff830313          	addi	t1,t1,-8
 104:	40cf8833          	sub	a6,t6,a2
 108:	fb0e58e3          	ble	a6,t3,b8 <sort+0x2c>
 10c:	40b607b3          	sub	a5,a2,a1
 110:	40bf8733          	sub	a4,t6,a1
 114:	4027d793          	srai	a5,a5,0x2
 118:	40275713          	srai	a4,a4,0x2
 11c:	00e78733          	add	a4,a5,a4
 120:	01f75793          	srli	a5,a4,0x1f
 124:	00e787b3          	add	a5,a5,a4
 128:	4017d793          	srai	a5,a5,0x1
 12c:	01e787b3          	add	a5,a5,t5
 130:	00279793          	slli	a5,a5,0x2
 134:	00f587b3          	add	a5,a1,a5
 138:	00062703          	lw	a4,0(a2)
 13c:	0007a503          	lw	a0,0(a5)
 140:	00e7a023          	sw	a4,0(a5)
 144:	00a62023          	sw	a0,0(a2)
 148:	ffc62703          	lw	a4,-4(a2)
 14c:	ffcfa783          	lw	a5,-4(t6)
 150:	00e7da63          	ble	a4,a5,164 <sort+0xd8>
 154:	fef62e23          	sw	a5,-4(a2)
 158:	feefae23          	sw	a4,-4(t6)
 15c:	00062503          	lw	a0,0(a2)
 160:	00070793          	mv	a5,a4
 164:	00a7d863          	ble	a0,a5,174 <sort+0xe8>
 168:	00f62023          	sw	a5,0(a2)
 16c:	feafae23          	sw	a0,-4(t6)
 170:	00062503          	lw	a0,0(a2)
 174:	ffc62783          	lw	a5,-4(a2)
 178:	00f55863          	ble	a5,a0,188 <sort+0xfc>
 17c:	fea62e23          	sw	a0,-4(a2)
 180:	00f62023          	sw	a5,0(a2)
 184:	00078513          	mv	a0,a5
 188:	00460813          	addi	a6,a2,4
 18c:	000f8713          	mv	a4,t6
 190:	00480813          	addi	a6,a6,4
 194:	ffc82883          	lw	a7,-4(a6)
 198:	fea8cce3          	blt	a7,a0,190 <sort+0x104>
 19c:	ffc70793          	addi	a5,a4,-4
 1a0:	ffc7a683          	lw	a3,-4(a5)
 1a4:	00d55a63          	ble	a3,a0,1b8 <sort+0x12c>
 1a8:	00078713          	mv	a4,a5
 1ac:	ffc70793          	addi	a5,a4,-4
 1b0:	ffc7a683          	lw	a3,-4(a5)
 1b4:	fed54ae3          	blt	a0,a3,1a8 <sort+0x11c>
 1b8:	0107ea63          	bltu	a5,a6,1cc <sort+0x140>
 1bc:	fed82e23          	sw	a3,-4(a6)
 1c0:	ff172c23          	sw	a7,-8(a4)
 1c4:	00078713          	mv	a4,a5
 1c8:	fc9ff06f          	j	190 <sort+0x104>
 1cc:	410f88b3          	sub	a7,t6,a6
 1d0:	00d62023          	sw	a3,0(a2)
 1d4:	40c787b3          	sub	a5,a5,a2
 1d8:	4028d693          	srai	a3,a7,0x2
 1dc:	fea72c23          	sw	a0,-8(a4)
 1e0:	00168693          	addi	a3,a3,1
 1e4:	4027d793          	srai	a5,a5,0x2
 1e8:	ff870713          	addi	a4,a4,-8
 1ec:	00830513          	addi	a0,t1,8
 1f0:	00f6cc63          	blt	a3,a5,208 <sort+0x17c>
 1f4:	01f32423          	sw	t6,8(t1)
 1f8:	01032223          	sw	a6,4(t1)
 1fc:	00070f93          	mv	t6,a4
 200:	00050313          	mv	t1,a0
 204:	eadff06f          	j	b0 <sort+0x24>
 208:	00c32223          	sw	a2,4(t1)
 20c:	00e32423          	sw	a4,8(t1)
 210:	00080613          	mv	a2,a6
 214:	00050313          	mv	t1,a0
 218:	e99ff06f          	j	b0 <sort+0x24>
 21c:	0d010113          	addi	sp,sp,208
 220:	00008067          	ret

00000224 <setStats>:
 224:	00008067          	ret

00000228 <memcpy>:
 228:	00c5e7b3          	or	a5,a1,a2
 22c:	00f567b3          	or	a5,a0,a5
 230:	0037f793          	andi	a5,a5,3
 234:	00c506b3          	add	a3,a0,a2
 238:	02078463          	beqz	a5,260 <memcpy+0x38>
 23c:	00c58633          	add	a2,a1,a2
 240:	00050793          	mv	a5,a0
 244:	02d57e63          	bleu	a3,a0,280 <memcpy+0x58>
 248:	00158593          	addi	a1,a1,1
 24c:	fff5c703          	lbu	a4,-1(a1)
 250:	00178793          	addi	a5,a5,1
 254:	fee78fa3          	sb	a4,-1(a5)
 258:	feb618e3          	bne	a2,a1,248 <memcpy+0x20>
 25c:	00008067          	ret
 260:	fed57ee3          	bleu	a3,a0,25c <memcpy+0x34>
 264:	00050793          	mv	a5,a0
 268:	00458593          	addi	a1,a1,4
 26c:	ffc5a703          	lw	a4,-4(a1)
 270:	00478793          	addi	a5,a5,4
 274:	fee7ae23          	sw	a4,-4(a5)
 278:	fed7e8e3          	bltu	a5,a3,268 <memcpy+0x40>
 27c:	00008067          	ret
 280:	00008067          	ret

00000284 <memset>:
 284:	00c567b3          	or	a5,a0,a2
 288:	0037f793          	andi	a5,a5,3
 28c:	00c50633          	add	a2,a0,a2
 290:	02078063          	beqz	a5,2b0 <memset+0x2c>
 294:	0ff5f593          	andi	a1,a1,255
 298:	00050793          	mv	a5,a0
 29c:	04c57063          	bleu	a2,a0,2dc <memset+0x58>
 2a0:	00178793          	addi	a5,a5,1
 2a4:	feb78fa3          	sb	a1,-1(a5)
 2a8:	fef61ce3          	bne	a2,a5,2a0 <memset+0x1c>
 2ac:	00008067          	ret
 2b0:	0ff5f593          	andi	a1,a1,255
 2b4:	00859793          	slli	a5,a1,0x8
 2b8:	00b7e7b3          	or	a5,a5,a1
 2bc:	01079593          	slli	a1,a5,0x10
 2c0:	00f5e5b3          	or	a1,a1,a5
 2c4:	fec574e3          	bleu	a2,a0,2ac <memset+0x28>
 2c8:	00050793          	mv	a5,a0
 2cc:	00478793          	addi	a5,a5,4
 2d0:	feb7ae23          	sw	a1,-4(a5)
 2d4:	fec7ece3          	bltu	a5,a2,2cc <memset+0x48>
 2d8:	00008067          	ret
 2dc:	00008067          	ret

000002e0 <strlen>:
 2e0:	00054783          	lbu	a5,0(a0)
 2e4:	00050713          	mv	a4,a0
 2e8:	00078c63          	beqz	a5,300 <strlen+0x20>
 2ec:	00150513          	addi	a0,a0,1
 2f0:	00054783          	lbu	a5,0(a0)
 2f4:	fe079ce3          	bnez	a5,2ec <strlen+0xc>
 2f8:	40e50533          	sub	a0,a0,a4
 2fc:	00008067          	ret
 300:	00000513          	li	a0,0
 304:	00008067          	ret

00000308 <strnlen>:
 308:	00050713          	mv	a4,a0
 30c:	02058663          	beqz	a1,338 <strnlen+0x30>
 310:	00054783          	lbu	a5,0(a0)
 314:	02078263          	beqz	a5,338 <strnlen+0x30>
 318:	00b505b3          	add	a1,a0,a1
 31c:	00c0006f          	j	328 <strnlen+0x20>
 320:	00054783          	lbu	a5,0(a0)
 324:	00078663          	beqz	a5,330 <strnlen+0x28>
 328:	00150513          	addi	a0,a0,1
 32c:	feb51ae3          	bne	a0,a1,320 <strnlen+0x18>
 330:	40e50533          	sub	a0,a0,a4
 334:	00008067          	ret
 338:	00000513          	li	a0,0
 33c:	00008067          	ret

00000340 <strcmp>:
 340:	00150513          	addi	a0,a0,1
 344:	fff54783          	lbu	a5,-1(a0)
 348:	00158593          	addi	a1,a1,1
 34c:	fff5c703          	lbu	a4,-1(a1)
 350:	00078863          	beqz	a5,360 <strcmp+0x20>
 354:	fee786e3          	beq	a5,a4,340 <strcmp>
 358:	40e78533          	sub	a0,a5,a4
 35c:	00008067          	ret
 360:	00000793          	li	a5,0
 364:	ff5ff06f          	j	358 <strcmp+0x18>

00000368 <strcpy>:
 368:	00050793          	mv	a5,a0
 36c:	00158593          	addi	a1,a1,1
 370:	fff5c703          	lbu	a4,-1(a1)
 374:	00178793          	addi	a5,a5,1
 378:	fee78fa3          	sb	a4,-1(a5)
 37c:	fe0718e3          	bnez	a4,36c <strcpy+0x4>
 380:	00008067          	ret

00000384 <atol>:
 384:	00054783          	lbu	a5,0(a0)
 388:	02000713          	li	a4,32
 38c:	00e79863          	bne	a5,a4,39c <atol+0x18>
 390:	00150513          	addi	a0,a0,1
 394:	00054783          	lbu	a5,0(a0)
 398:	fee78ce3          	beq	a5,a4,390 <atol+0xc>
 39c:	fd578713          	addi	a4,a5,-43
 3a0:	0fd77713          	andi	a4,a4,253
 3a4:	04070263          	beqz	a4,3e8 <atol+0x64>
 3a8:	00054683          	lbu	a3,0(a0)
 3ac:	00050793          	mv	a5,a0
 3b0:	00000613          	li	a2,0
 3b4:	04068863          	beqz	a3,404 <atol+0x80>
 3b8:	00000513          	li	a0,0
 3bc:	00178793          	addi	a5,a5,1
 3c0:	fd068593          	addi	a1,a3,-48
 3c4:	00251713          	slli	a4,a0,0x2
 3c8:	0007c683          	lbu	a3,0(a5)
 3cc:	00a70533          	add	a0,a4,a0
 3d0:	00151513          	slli	a0,a0,0x1
 3d4:	00a58533          	add	a0,a1,a0
 3d8:	fe0692e3          	bnez	a3,3bc <atol+0x38>
 3dc:	00060463          	beqz	a2,3e4 <atol+0x60>
 3e0:	40a00533          	neg	a0,a0
 3e4:	00008067          	ret
 3e8:	00154683          	lbu	a3,1(a0)
 3ec:	fd378793          	addi	a5,a5,-45
 3f0:	0017b613          	seqz	a2,a5
 3f4:	00150793          	addi	a5,a0,1
 3f8:	fc0690e3          	bnez	a3,3b8 <atol+0x34>
 3fc:	00000513          	li	a0,0
 400:	fddff06f          	j	3dc <atol+0x58>
 404:	00000513          	li	a0,0
 408:	00008067          	ret

0000040c <main>:
 40c:	00001537          	lui	a0,0x1
 410:	ff010113          	addi	sp,sp,-16
 414:	80050513          	addi	a0,a0,-2048 # 800 <verify_data+0x264>
 418:	00002597          	auipc	a1,0x2
 41c:	18458593          	addi	a1,a1,388 # 259c <input_data>
 420:	00112623          	sw	ra,12(sp)
 424:	c69ff0ef          	jal	ra,8c <sort>
 428:	00002717          	auipc	a4,0x2
 42c:	17470713          	addi	a4,a4,372 # 259c <input_data>
 430:	59c00793          	li	a5,1436
 434:	00000513          	li	a0,0
 438:	00072603          	lw	a2,0(a4)
 43c:	0007a683          	lw	a3,0(a5)
 440:	00472803          	lw	a6,4(a4)
 444:	0047a583          	lw	a1,4(a5)
 448:	02d61863          	bne	a2,a3,478 <main+0x6c>
 44c:	00250513          	addi	a0,a0,2
 450:	80050693          	addi	a3,a0,-2048
 454:	00b81c63          	bne	a6,a1,46c <main+0x60>
 458:	00870713          	addi	a4,a4,8
 45c:	00878793          	addi	a5,a5,8
 460:	fc069ce3          	bnez	a3,438 <main+0x2c>
 464:	00bc6537          	lui	a0,0xbc6
 468:	14e50513          	addi	a0,a0,334 # bc614e <STACK+0xbbfab2>
 46c:	00c12083          	lw	ra,12(sp)
 470:	01010113          	addi	sp,sp,16
 474:	00008067          	ret
 478:	00150513          	addi	a0,a0,1
 47c:	ff1ff06f          	j	46c <main+0x60>

00000480 <end>:
 480:	00000013          	nop
 484:	00000013          	nop
 488:	00000013          	nop
 48c:	00000013          	nop
 490:	00000013          	nop
 494:	00000013          	nop

00000498 <_last>:
 498:	fe9ff06f          	j	480 <end>
