
rsort.riscv:     file format elf32-littleriscv


Disassembly of section .text:

00000000 <_start>:
   0:	00000093          	li	ra,0
   4:	00000113          	li	sp,0
   8:	00000193          	li	gp,0
   c:	00000213          	li	tp,0
  10:	00000293          	li	t0,0
  14:	00000313          	li	t1,0
  18:	00000393          	li	t2,0
  1c:	00000413          	li	s0,0
  20:	00000493          	li	s1,0
  24:	00000513          	li	a0,0
  28:	00000593          	li	a1,0
  2c:	00000613          	li	a2,0
  30:	00000693          	li	a3,0
  34:	00000713          	li	a4,0
  38:	00000793          	li	a5,0
  3c:	00000813          	li	a6,0
  40:	00000893          	li	a7,0
  44:	00000913          	li	s2,0
  48:	00000993          	li	s3,0
  4c:	00000a13          	li	s4,0
  50:	00000a93          	li	s5,0
  54:	00000b13          	li	s6,0
  58:	00000b93          	li	s7,0
  5c:	00000c13          	li	s8,0
  60:	00000c93          	li	s9,0
  64:	00000d13          	li	s10,0
  68:	00000d93          	li	s11,0
  6c:	00000e13          	li	t3,0
  70:	00000e93          	li	t4,0
  74:	00000f13          	li	t5,0
  78:	00000f93          	li	t6,0
  7c:	00005117          	auipc	sp,0x5
  80:	7dc10113          	addi	sp,sp,2012 # 5858 <STACK>
  84:	544000ef          	jal	ra,5c8 <main>
  88:	5b40006f          	j	63c <end>

0000008c <verify.constprop.1>:
  8c:	00050793          	mv	a5,a0
  90:	00002717          	auipc	a4,0x2
  94:	6c870713          	addi	a4,a4,1736 # 2758 <input_data>
  98:	00000513          	li	a0,0
  9c:	00072603          	lw	a2,0(a4)
  a0:	0007a683          	lw	a3,0(a5)
  a4:	00472803          	lw	a6,4(a4)
  a8:	0047a583          	lw	a1,4(a5)
  ac:	02d61263          	bne	a2,a3,d0 <verify.constprop.1+0x44>
  b0:	00250513          	addi	a0,a0,2
  b4:	80050693          	addi	a3,a0,-2048
  b8:	00b81a63          	bne	a6,a1,cc <verify.constprop.1+0x40>
  bc:	00870713          	addi	a4,a4,8
  c0:	00878793          	addi	a5,a5,8
  c4:	fc069ce3          	bnez	a3,9c <verify.constprop.1+0x10>
  c8:	00000513          	li	a0,0
  cc:	00008067          	ret
  d0:	00150513          	addi	a0,a0,1
  d4:	00008067          	ret

000000d8 <sort>:
  d8:	00251513          	slli	a0,a0,0x2
  dc:	bd010113          	addi	sp,sp,-1072
  e0:	ff450e13          	addi	t3,a0,-12
  e4:	00010813          	mv	a6,sp
  e8:	00060513          	mv	a0,a2
  ec:	42812623          	sw	s0,1068(sp)
  f0:	42912423          	sw	s1,1064(sp)
  f4:	43212223          	sw	s2,1060(sp)
  f8:	43312023          	sw	s3,1056(sp)
  fc:	41412e23          	sw	s4,1052(sp)
 100:	41512c23          	sw	s5,1048(sp)
 104:	41612a23          	sw	s6,1044(sp)
 108:	41712823          	sw	s7,1040(sp)
 10c:	41812623          	sw	s8,1036(sp)
 110:	00ce0613          	addi	a2,t3,12
 114:	008e0f93          	addi	t6,t3,8
 118:	00880f13          	addi	t5,a6,8
 11c:	40080713          	addi	a4,a6,1024
 120:	00058313          	mv	t1,a1
 124:	00000893          	li	a7,0
 128:	02000e93          	li	t4,32
 12c:	00080793          	mv	a5,a6
 130:	0007a023          	sw	zero,0(a5)
 134:	00478793          	addi	a5,a5,4
 138:	fee79ce3          	bne	a5,a4,130 <sort+0x58>
 13c:	01c30433          	add	s0,t1,t3
 140:	26837663          	bleu	s0,t1,3ac <sort+0x2d4>
 144:	00030393          	mv	t2,t1
 148:	0003a483          	lw	s1,0(t2)
 14c:	0043a283          	lw	t0,4(t2)
 150:	0083a683          	lw	a3,8(t2)
 154:	0114d4b3          	srl	s1,s1,a7
 158:	0ff4f493          	andi	s1,s1,255
 15c:	00249493          	slli	s1,s1,0x2
 160:	009804b3          	add	s1,a6,s1
 164:	0004a903          	lw	s2,0(s1)
 168:	0112d2b3          	srl	t0,t0,a7
 16c:	0ff2f293          	andi	t0,t0,255
 170:	00190913          	addi	s2,s2,1
 174:	00229293          	slli	t0,t0,0x2
 178:	00c3a783          	lw	a5,12(t2)
 17c:	005802b3          	add	t0,a6,t0
 180:	0124a023          	sw	s2,0(s1)
 184:	0002a483          	lw	s1,0(t0)
 188:	0116d6b3          	srl	a3,a3,a7
 18c:	0ff6f693          	andi	a3,a3,255
 190:	00148493          	addi	s1,s1,1
 194:	00269693          	slli	a3,a3,0x2
 198:	0092a023          	sw	s1,0(t0)
 19c:	00d806b3          	add	a3,a6,a3
 1a0:	0006a283          	lw	t0,0(a3)
 1a4:	0117d7b3          	srl	a5,a5,a7
 1a8:	0ff7f793          	andi	a5,a5,255
 1ac:	00128293          	addi	t0,t0,1
 1b0:	00279793          	slli	a5,a5,0x2
 1b4:	0056a023          	sw	t0,0(a3)
 1b8:	00f807b3          	add	a5,a6,a5
 1bc:	0007a683          	lw	a3,0(a5)
 1c0:	01038393          	addi	t2,t2,16
 1c4:	00168693          	addi	a3,a3,1
 1c8:	00d7a023          	sw	a3,0(a5)
 1cc:	f683eee3          	bltu	t2,s0,148 <sort+0x70>
 1d0:	fff34693          	not	a3,t1
 1d4:	008686b3          	add	a3,a3,s0
 1d8:	ff06f693          	andi	a3,a3,-16
 1dc:	01068693          	addi	a3,a3,16
 1e0:	00d306b3          	add	a3,t1,a3
 1e4:	00c303b3          	add	t2,t1,a2
 1e8:	0276f663          	bleu	t2,a3,214 <sort+0x13c>
 1ec:	0006a783          	lw	a5,0(a3)
 1f0:	00468693          	addi	a3,a3,4
 1f4:	0117d7b3          	srl	a5,a5,a7
 1f8:	0ff7f793          	andi	a5,a5,255
 1fc:	00279793          	slli	a5,a5,0x2
 200:	00f807b3          	add	a5,a6,a5
 204:	0007a283          	lw	t0,0(a5)
 208:	00128293          	addi	t0,t0,1
 20c:	0057a023          	sw	t0,0(a5)
 210:	fc76eee3          	bltu	a3,t2,1ec <sort+0x114>
 214:	00482283          	lw	t0,4(a6)
 218:	00082683          	lw	a3,0(a6)
 21c:	000f0793          	mv	a5,t5
 220:	00d282b3          	add	t0,t0,a3
 224:	00582223          	sw	t0,4(a6)
 228:	0007a683          	lw	a3,0(a5)
 22c:	0047a383          	lw	t2,4(a5)
 230:	00878793          	addi	a5,a5,8
 234:	00d286b3          	add	a3,t0,a3
 238:	007682b3          	add	t0,a3,t2
 23c:	fed7ac23          	sw	a3,-8(a5)
 240:	fe57ae23          	sw	t0,-4(a5)
 244:	fee792e3          	bne	a5,a4,228 <sort+0x150>
 248:	01f304b3          	add	s1,t1,t6
 24c:	00c30b13          	addi	s6,t1,12
 250:	0d64ea63          	bltu	s1,s6,324 <sort+0x24c>
 254:	00048293          	mv	t0,s1
 258:	0002aa83          	lw	s5,0(t0)
 25c:	ffc2aa03          	lw	s4,-4(t0)
 260:	ff82a983          	lw	s3,-8(t0)
 264:	011ad6b3          	srl	a3,s5,a7
 268:	0ff6f693          	andi	a3,a3,255
 26c:	00269693          	slli	a3,a3,0x2
 270:	00d806b3          	add	a3,a6,a3
 274:	0006a403          	lw	s0,0(a3)
 278:	011a57b3          	srl	a5,s4,a7
 27c:	0ff7f793          	andi	a5,a5,255
 280:	fff40393          	addi	t2,s0,-1
 284:	00279793          	slli	a5,a5,0x2
 288:	ff42a903          	lw	s2,-12(t0)
 28c:	00f807b3          	add	a5,a6,a5
 290:	0076a023          	sw	t2,0(a3)
 294:	0007a383          	lw	t2,0(a5)
 298:	0119d6b3          	srl	a3,s3,a7
 29c:	0ff6f693          	andi	a3,a3,255
 2a0:	fff38b93          	addi	s7,t2,-1
 2a4:	00269693          	slli	a3,a3,0x2
 2a8:	0177a023          	sw	s7,0(a5)
 2ac:	00d806b3          	add	a3,a6,a3
 2b0:	0006ab83          	lw	s7,0(a3)
 2b4:	011957b3          	srl	a5,s2,a7
 2b8:	0ff7f793          	andi	a5,a5,255
 2bc:	fffb8c13          	addi	s8,s7,-1
 2c0:	00279793          	slli	a5,a5,0x2
 2c4:	0186a023          	sw	s8,0(a3)
 2c8:	00f807b3          	add	a5,a6,a5
 2cc:	0007a683          	lw	a3,0(a5)
 2d0:	00241413          	slli	s0,s0,0x2
 2d4:	00850433          	add	s0,a0,s0
 2d8:	fff68c13          	addi	s8,a3,-1
 2dc:	0187a023          	sw	s8,0(a5)
 2e0:	00239393          	slli	t2,t2,0x2
 2e4:	ff542e23          	sw	s5,-4(s0)
 2e8:	007503b3          	add	t2,a0,t2
 2ec:	002b9b93          	slli	s7,s7,0x2
 2f0:	ff43ae23          	sw	s4,-4(t2)
 2f4:	01750bb3          	add	s7,a0,s7
 2f8:	00269693          	slli	a3,a3,0x2
 2fc:	ff3bae23          	sw	s3,-4(s7)
 300:	00d506b3          	add	a3,a0,a3
 304:	ff26ae23          	sw	s2,-4(a3)
 308:	ff028293          	addi	t0,t0,-16
 30c:	f562f6e3          	bleu	s6,t0,258 <sort+0x180>
 310:	406487b3          	sub	a5,s1,t1
 314:	ff478793          	addi	a5,a5,-12
 318:	fff7c793          	not	a5,a5
 31c:	ff07f793          	andi	a5,a5,-16
 320:	00f484b3          	add	s1,s1,a5
 324:	0264ee63          	bltu	s1,t1,360 <sort+0x288>
 328:	0004a783          	lw	a5,0(s1)
 32c:	ffc48493          	addi	s1,s1,-4
 330:	0117d7b3          	srl	a5,a5,a7
 334:	0ff7f793          	andi	a5,a5,255
 338:	00279793          	slli	a5,a5,0x2
 33c:	00f807b3          	add	a5,a6,a5
 340:	0007a683          	lw	a3,0(a5)
 344:	fff68693          	addi	a3,a3,-1
 348:	00d7a023          	sw	a3,0(a5)
 34c:	0044a783          	lw	a5,4(s1)
 350:	00269693          	slli	a3,a3,0x2
 354:	00d506b3          	add	a3,a0,a3
 358:	00f6a023          	sw	a5,0(a3)
 35c:	fc64f6e3          	bleu	t1,s1,328 <sort+0x250>
 360:	00888893          	addi	a7,a7,8
 364:	01d88a63          	beq	a7,t4,378 <sort+0x2a0>
 368:	00030793          	mv	a5,t1
 36c:	00050313          	mv	t1,a0
 370:	00078513          	mv	a0,a5
 374:	db9ff06f          	j	12c <sort+0x54>
 378:	02a58e63          	beq	a1,a0,3b4 <sort+0x2dc>
 37c:	42c12403          	lw	s0,1068(sp)
 380:	42812483          	lw	s1,1064(sp)
 384:	42412903          	lw	s2,1060(sp)
 388:	42012983          	lw	s3,1056(sp)
 38c:	41c12a03          	lw	s4,1052(sp)
 390:	41812a83          	lw	s5,1048(sp)
 394:	41412b03          	lw	s6,1044(sp)
 398:	41012b83          	lw	s7,1040(sp)
 39c:	40c12c03          	lw	s8,1036(sp)
 3a0:	00030593          	mv	a1,t1
 3a4:	43010113          	addi	sp,sp,1072
 3a8:	03c0006f          	j	3e4 <memcpy>
 3ac:	00030693          	mv	a3,t1
 3b0:	e35ff06f          	j	1e4 <sort+0x10c>
 3b4:	42c12403          	lw	s0,1068(sp)
 3b8:	42812483          	lw	s1,1064(sp)
 3bc:	42412903          	lw	s2,1060(sp)
 3c0:	42012983          	lw	s3,1056(sp)
 3c4:	41c12a03          	lw	s4,1052(sp)
 3c8:	41812a83          	lw	s5,1048(sp)
 3cc:	41412b03          	lw	s6,1044(sp)
 3d0:	41012b83          	lw	s7,1040(sp)
 3d4:	40c12c03          	lw	s8,1036(sp)
 3d8:	43010113          	addi	sp,sp,1072
 3dc:	00008067          	ret

000003e0 <setStats>:
 3e0:	00008067          	ret

000003e4 <memcpy>:
 3e4:	00c5e7b3          	or	a5,a1,a2
 3e8:	00f567b3          	or	a5,a0,a5
 3ec:	0037f793          	andi	a5,a5,3
 3f0:	00c506b3          	add	a3,a0,a2
 3f4:	02078463          	beqz	a5,41c <memcpy+0x38>
 3f8:	00c58633          	add	a2,a1,a2
 3fc:	00050793          	mv	a5,a0
 400:	02d57e63          	bleu	a3,a0,43c <memcpy+0x58>
 404:	00158593          	addi	a1,a1,1
 408:	fff5c703          	lbu	a4,-1(a1)
 40c:	00178793          	addi	a5,a5,1
 410:	fee78fa3          	sb	a4,-1(a5)
 414:	feb618e3          	bne	a2,a1,404 <memcpy+0x20>
 418:	00008067          	ret
 41c:	fed57ee3          	bleu	a3,a0,418 <memcpy+0x34>
 420:	00050793          	mv	a5,a0
 424:	00458593          	addi	a1,a1,4
 428:	ffc5a703          	lw	a4,-4(a1)
 42c:	00478793          	addi	a5,a5,4
 430:	fee7ae23          	sw	a4,-4(a5)
 434:	fed7e8e3          	bltu	a5,a3,424 <memcpy+0x40>
 438:	00008067          	ret
 43c:	00008067          	ret

00000440 <memset>:
 440:	00c567b3          	or	a5,a0,a2
 444:	0037f793          	andi	a5,a5,3
 448:	00c50633          	add	a2,a0,a2
 44c:	02078063          	beqz	a5,46c <memset+0x2c>
 450:	0ff5f593          	andi	a1,a1,255
 454:	00050793          	mv	a5,a0
 458:	04c57063          	bleu	a2,a0,498 <memset+0x58>
 45c:	00178793          	addi	a5,a5,1
 460:	feb78fa3          	sb	a1,-1(a5)
 464:	fef61ce3          	bne	a2,a5,45c <memset+0x1c>
 468:	00008067          	ret
 46c:	0ff5f593          	andi	a1,a1,255
 470:	00859793          	slli	a5,a1,0x8
 474:	00b7e7b3          	or	a5,a5,a1
 478:	01079593          	slli	a1,a5,0x10
 47c:	00f5e5b3          	or	a1,a1,a5
 480:	fec574e3          	bleu	a2,a0,468 <memset+0x28>
 484:	00050793          	mv	a5,a0
 488:	00478793          	addi	a5,a5,4
 48c:	feb7ae23          	sw	a1,-4(a5)
 490:	fec7ece3          	bltu	a5,a2,488 <memset+0x48>
 494:	00008067          	ret
 498:	00008067          	ret

0000049c <strlen>:
 49c:	00054783          	lbu	a5,0(a0)
 4a0:	00050713          	mv	a4,a0
 4a4:	00078c63          	beqz	a5,4bc <strlen+0x20>
 4a8:	00150513          	addi	a0,a0,1
 4ac:	00054783          	lbu	a5,0(a0)
 4b0:	fe079ce3          	bnez	a5,4a8 <strlen+0xc>
 4b4:	40e50533          	sub	a0,a0,a4
 4b8:	00008067          	ret
 4bc:	00000513          	li	a0,0
 4c0:	00008067          	ret

000004c4 <strnlen>:
 4c4:	00050713          	mv	a4,a0
 4c8:	02058663          	beqz	a1,4f4 <strnlen+0x30>
 4cc:	00054783          	lbu	a5,0(a0)
 4d0:	02078263          	beqz	a5,4f4 <strnlen+0x30>
 4d4:	00b505b3          	add	a1,a0,a1
 4d8:	00c0006f          	j	4e4 <strnlen+0x20>
 4dc:	00054783          	lbu	a5,0(a0)
 4e0:	00078663          	beqz	a5,4ec <strnlen+0x28>
 4e4:	00150513          	addi	a0,a0,1
 4e8:	feb51ae3          	bne	a0,a1,4dc <strnlen+0x18>
 4ec:	40e50533          	sub	a0,a0,a4
 4f0:	00008067          	ret
 4f4:	00000513          	li	a0,0
 4f8:	00008067          	ret

000004fc <strcmp>:
 4fc:	00150513          	addi	a0,a0,1
 500:	fff54783          	lbu	a5,-1(a0)
 504:	00158593          	addi	a1,a1,1
 508:	fff5c703          	lbu	a4,-1(a1)
 50c:	00078863          	beqz	a5,51c <strcmp+0x20>
 510:	fee786e3          	beq	a5,a4,4fc <strcmp>
 514:	40e78533          	sub	a0,a5,a4
 518:	00008067          	ret
 51c:	00000793          	li	a5,0
 520:	ff5ff06f          	j	514 <strcmp+0x18>

00000524 <strcpy>:
 524:	00050793          	mv	a5,a0
 528:	00158593          	addi	a1,a1,1
 52c:	fff5c703          	lbu	a4,-1(a1)
 530:	00178793          	addi	a5,a5,1
 534:	fee78fa3          	sb	a4,-1(a5)
 538:	fe0718e3          	bnez	a4,528 <strcpy+0x4>
 53c:	00008067          	ret

00000540 <atol>:
 540:	00054783          	lbu	a5,0(a0)
 544:	02000713          	li	a4,32
 548:	00e79863          	bne	a5,a4,558 <atol+0x18>
 54c:	00150513          	addi	a0,a0,1
 550:	00054783          	lbu	a5,0(a0)
 554:	fee78ce3          	beq	a5,a4,54c <atol+0xc>
 558:	fd578713          	addi	a4,a5,-43
 55c:	0fd77713          	andi	a4,a4,253
 560:	04070263          	beqz	a4,5a4 <atol+0x64>
 564:	00054683          	lbu	a3,0(a0)
 568:	00050793          	mv	a5,a0
 56c:	00000613          	li	a2,0
 570:	04068863          	beqz	a3,5c0 <atol+0x80>
 574:	00000513          	li	a0,0
 578:	00178793          	addi	a5,a5,1
 57c:	fd068593          	addi	a1,a3,-48
 580:	00251713          	slli	a4,a0,0x2
 584:	0007c683          	lbu	a3,0(a5)
 588:	00a70533          	add	a0,a4,a0
 58c:	00151513          	slli	a0,a0,0x1
 590:	00a58533          	add	a0,a1,a0
 594:	fe0692e3          	bnez	a3,578 <atol+0x38>
 598:	00060463          	beqz	a2,5a0 <atol+0x60>
 59c:	40a00533          	neg	a0,a0
 5a0:	00008067          	ret
 5a4:	00154683          	lbu	a3,1(a0)
 5a8:	fd378793          	addi	a5,a5,-45
 5ac:	0017b613          	seqz	a2,a5
 5b0:	00150793          	addi	a5,a0,1
 5b4:	fc0690e3          	bnez	a3,574 <atol+0x34>
 5b8:	00000513          	li	a0,0
 5bc:	fddff06f          	j	598 <atol+0x58>
 5c0:	00000513          	li	a0,0
 5c4:	00008067          	ret

000005c8 <main>:
 5c8:	ff010113          	addi	sp,sp,-16
 5cc:	00812423          	sw	s0,8(sp)
 5d0:	00001437          	lui	s0,0x1
 5d4:	80040513          	addi	a0,s0,-2048 # 800 <verify_data+0xa8>
 5d8:	00005617          	auipc	a2,0x5
 5dc:	28060613          	addi	a2,a2,640 # 5858 <STACK>
 5e0:	75800593          	li	a1,1880
 5e4:	00112623          	sw	ra,12(sp)
 5e8:	af1ff0ef          	jal	ra,d8 <sort>
 5ec:	00002517          	auipc	a0,0x2
 5f0:	16c50513          	addi	a0,a0,364 # 2758 <input_data>
 5f4:	a99ff0ef          	jal	ra,8c <verify.constprop.1>
 5f8:	00050c63          	beqz	a0,610 <main+0x48>
 5fc:	00c12083          	lw	ra,12(sp)
 600:	00812403          	lw	s0,8(sp)
 604:	00100513          	li	a0,1
 608:	01010113          	addi	sp,sp,16
 60c:	00008067          	ret
 610:	80040513          	addi	a0,s0,-2048
 614:	00005617          	auipc	a2,0x5
 618:	24460613          	addi	a2,a2,580 # 5858 <STACK>
 61c:	00002597          	auipc	a1,0x2
 620:	13c58593          	addi	a1,a1,316 # 2758 <input_data>
 624:	ab5ff0ef          	jal	ra,d8 <sort>
 628:	00812403          	lw	s0,8(sp)
 62c:	00c12083          	lw	ra,12(sp)
 630:	75800513          	li	a0,1880
 634:	01010113          	addi	sp,sp,16
 638:	a55ff06f          	j	8c <verify.constprop.1>

0000063c <end>:
 63c:	00000013          	nop
 640:	00000013          	nop
 644:	00000013          	nop
 648:	00000013          	nop
 64c:	00000013          	nop
 650:	00000013          	nop

00000654 <_last>:
 654:	fe9ff06f          	j	63c <end>
