
rsort-loops-unrolled.riscv:     file format elf64-littleriscv


Disassembly of section .text:

0000000000000000 <_start>:
       0:	00000093          	li	ra,0
       4:	00000113          	li	sp,0
       8:	00000193          	li	gp,0
       c:	00000213          	li	tp,0
      10:	00000293          	li	t0,0
      14:	00000313          	li	t1,0
      18:	00000393          	li	t2,0
      1c:	00000413          	li	s0,0
      20:	00000493          	li	s1,0
      24:	00000513          	li	a0,0
      28:	00000593          	li	a1,0
      2c:	00000613          	li	a2,0
      30:	00000693          	li	a3,0
      34:	00000713          	li	a4,0
      38:	00000793          	li	a5,0
      3c:	00000813          	li	a6,0
      40:	00000893          	li	a7,0
      44:	00000913          	li	s2,0
      48:	00000993          	li	s3,0
      4c:	00000a13          	li	s4,0
      50:	00000a93          	li	s5,0
      54:	00000b13          	li	s6,0
      58:	00000b93          	li	s7,0
      5c:	00000c13          	li	s8,0
      60:	00000c93          	li	s9,0
      64:	00000d13          	li	s10,0
      68:	00000d93          	li	s11,0
      6c:	00000e13          	li	t3,0
      70:	00000e93          	li	t4,0
      74:	00000f13          	li	t5,0
      78:	00000f93          	li	t6,0
      7c:	00007117          	auipc	sp,0x7
      80:	1ac10113          	addi	sp,sp,428 # 7228 <scratch.0>
      84:	619000ef          	jal	ra,e9c <main>
      88:	7810006f          	j	1008 <end>

000000000000008c <sort>:
      8c:	81010113          	addi	sp,sp,-2032
      90:	79a13823          	sd	s10,1936(sp)
      94:	00251d13          	slli	s10,a0,0x2
      98:	7b813023          	sd	s8,1952(sp)
      9c:	ff0d0793          	addi	a5,s10,-16
      a0:	00001c37          	lui	s8,0x1
      a4:	ff3d0713          	addi	a4,s10,-13
      a8:	7e113423          	sd	ra,2024(sp)
      ac:	7e813023          	sd	s0,2016(sp)
      b0:	7c913c23          	sd	s1,2008(sp)
      b4:	7d213823          	sd	s2,2000(sp)
      b8:	7d313423          	sd	s3,1992(sp)
      bc:	7d413023          	sd	s4,1984(sp)
      c0:	7b513c23          	sd	s5,1976(sp)
      c4:	7b613823          	sd	s6,1968(sp)
      c8:	7b713423          	sd	s7,1960(sp)
      cc:	79913c23          	sd	s9,1944(sp)
      d0:	fff7c413          	not	s0,a5
      d4:	f9010113          	addi	sp,sp,-112
      d8:	00475093          	srli	ra,a4,0x4
      dc:	800c0293          	addi	t0,s8,-2048 # 800 <sort+0x774>
      e0:	00010793          	mv	a5,sp
      e4:	00058993          	mv	s3,a1
      e8:	00060a93          	mv	s5,a2
      ec:	ff4d0913          	addi	s2,s10,-12
      f0:	ffcd0a13          	addi	s4,s10,-4
      f4:	01078c93          	addi	s9,a5,16
      f8:	00578c33          	add	s8,a5,t0
      fc:	00058b13          	mv	s6,a1
     100:	00000b93          	li	s7,0
     104:	00108493          	addi	s1,ra,1
     108:	ff047413          	andi	s0,s0,-16
     10c:	00001637          	lui	a2,0x1
     110:	00078513          	mv	a0,a5
     114:	80060613          	addi	a2,a2,-2048 # 800 <sort+0x774>
     118:	00000593          	li	a1,0
     11c:	239000ef          	jal	ra,b54 <memset>
     120:	012b0833          	add	a6,s6,s2
     124:	00050793          	mv	a5,a0
     128:	000b851b          	sext.w	a0,s7
     12c:	7d0b7663          	bgeu	s6,a6,8f8 <sort+0x86c>
     130:	000b2583          	lw	a1,0(s6)
     134:	004b2383          	lw	t2,4(s6)
     138:	008b2683          	lw	a3,8(s6)
     13c:	00a5d8bb          	srlw	a7,a1,a0
     140:	0ff8fe13          	zext.b	t3,a7
     144:	003e1e93          	slli	t4,t3,0x3
     148:	01d78f33          	add	t5,a5,t4
     14c:	000f3f83          	ld	t6,0(t5)
     150:	00a3d73b          	srlw	a4,t2,a0
     154:	0ff77093          	zext.b	ra,a4
     158:	001f8293          	addi	t0,t6,1
     15c:	00309613          	slli	a2,ra,0x3
     160:	00cb2303          	lw	t1,12(s6)
     164:	00c783b3          	add	t2,a5,a2
     168:	005f3023          	sd	t0,0(t5)
     16c:	0003b583          	ld	a1,0(t2)
     170:	00a6d6bb          	srlw	a3,a3,a0
     174:	0ff6f893          	zext.b	a7,a3
     178:	00158e13          	addi	t3,a1,1
     17c:	00389e93          	slli	t4,a7,0x3
     180:	01c3b023          	sd	t3,0(t2)
     184:	01d78f33          	add	t5,a5,t4
     188:	000f3f83          	ld	t6,0(t5)
     18c:	00a3573b          	srlw	a4,t1,a0
     190:	0ff77093          	zext.b	ra,a4
     194:	001f8293          	addi	t0,t6,1
     198:	00309613          	slli	a2,ra,0x3
     19c:	005f3023          	sd	t0,0(t5)
     1a0:	00c78333          	add	t1,a5,a2
     1a4:	00033383          	ld	t2,0(t1)
     1a8:	fffb4593          	not	a1,s6
     1ac:	00b806b3          	add	a3,a6,a1
     1b0:	00138893          	addi	a7,t2,1
     1b4:	0046de13          	srli	t3,a3,0x4
     1b8:	01133023          	sd	a7,0(t1)
     1bc:	010b0713          	addi	a4,s6,16
     1c0:	001e7e93          	andi	t4,t3,1
     1c4:	19077c63          	bgeu	a4,a6,35c <sort+0x2d0>
     1c8:	080e8663          	beqz	t4,254 <sort+0x1c8>
     1cc:	00072f03          	lw	t5,0(a4)
     1d0:	00472f83          	lw	t6,4(a4)
     1d4:	00872083          	lw	ra,8(a4)
     1d8:	00af52bb          	srlw	t0,t5,a0
     1dc:	0ff2f613          	zext.b	a2,t0
     1e0:	00361313          	slli	t1,a2,0x3
     1e4:	006783b3          	add	t2,a5,t1
     1e8:	0003b683          	ld	a3,0(t2)
     1ec:	00afd5bb          	srlw	a1,t6,a0
     1f0:	0ff5f893          	zext.b	a7,a1
     1f4:	00168e13          	addi	t3,a3,1
     1f8:	00389e93          	slli	t4,a7,0x3
     1fc:	00c72f03          	lw	t5,12(a4)
     200:	01d78fb3          	add	t6,a5,t4
     204:	01c3b023          	sd	t3,0(t2)
     208:	000fb283          	ld	t0,0(t6)
     20c:	00a0d73b          	srlw	a4,ra,a0
     210:	0ff77093          	zext.b	ra,a4
     214:	00128613          	addi	a2,t0,1
     218:	00309313          	slli	t1,ra,0x3
     21c:	00cfb023          	sd	a2,0(t6)
     220:	006783b3          	add	t2,a5,t1
     224:	0003b583          	ld	a1,0(t2)
     228:	00af56bb          	srlw	a3,t5,a0
     22c:	0ff6f893          	zext.b	a7,a3
     230:	00158e13          	addi	t3,a1,1
     234:	00389e93          	slli	t4,a7,0x3
     238:	01c3b023          	sd	t3,0(t2)
     23c:	01d78f33          	add	t5,a5,t4
     240:	000f3f83          	ld	t6,0(t5)
     244:	020b0713          	addi	a4,s6,32
     248:	001f8293          	addi	t0,t6,1
     24c:	005f3023          	sd	t0,0(t5)
     250:	11077663          	bgeu	a4,a6,35c <sort+0x2d0>
     254:	00072083          	lw	ra,0(a4)
     258:	00472383          	lw	t2,4(a4)
     25c:	00872603          	lw	a2,8(a4)
     260:	00a0d33b          	srlw	t1,ra,a0
     264:	0ff37593          	zext.b	a1,t1
     268:	00359693          	slli	a3,a1,0x3
     26c:	00d788b3          	add	a7,a5,a3
     270:	0008be03          	ld	t3,0(a7)
     274:	00a3debb          	srlw	t4,t2,a0
     278:	0ffeff13          	zext.b	t5,t4
     27c:	001e0f93          	addi	t6,t3,1
     280:	003f1293          	slli	t0,t5,0x3
     284:	00c72083          	lw	ra,12(a4)
     288:	005783b3          	add	t2,a5,t0
     28c:	01f8b023          	sd	t6,0(a7)
     290:	0003b303          	ld	t1,0(t2)
     294:	00a6563b          	srlw	a2,a2,a0
     298:	0ff67593          	zext.b	a1,a2
     29c:	00130693          	addi	a3,t1,1
     2a0:	00359893          	slli	a7,a1,0x3
     2a4:	00d3b023          	sd	a3,0(t2)
     2a8:	01178e33          	add	t3,a5,a7
     2ac:	000e3e83          	ld	t4,0(t3)
     2b0:	00a0df3b          	srlw	t5,ra,a0
     2b4:	0fff7f93          	zext.b	t6,t5
     2b8:	01072283          	lw	t0,16(a4)
     2bc:	001e8093          	addi	ra,t4,1
     2c0:	003f9393          	slli	t2,t6,0x3
     2c4:	001e3023          	sd	ra,0(t3)
     2c8:	00778333          	add	t1,a5,t2
     2cc:	00033603          	ld	a2,0(t1)
     2d0:	00a2d5bb          	srlw	a1,t0,a0
     2d4:	0ff5f693          	zext.b	a3,a1
     2d8:	01472e03          	lw	t3,20(a4)
     2dc:	00160e93          	addi	t4,a2,1
     2e0:	00369893          	slli	a7,a3,0x3
     2e4:	01d33023          	sd	t4,0(t1)
     2e8:	01178f33          	add	t5,a5,a7
     2ec:	000f3f83          	ld	t6,0(t5)
     2f0:	00ae52bb          	srlw	t0,t3,a0
     2f4:	0ff2f093          	zext.b	ra,t0
     2f8:	01872383          	lw	t2,24(a4)
     2fc:	001f8313          	addi	t1,t6,1
     300:	00309613          	slli	a2,ra,0x3
     304:	01c72683          	lw	a3,28(a4)
     308:	00c785b3          	add	a1,a5,a2
     30c:	006f3023          	sd	t1,0(t5)
     310:	0005be03          	ld	t3,0(a1)
     314:	00a3debb          	srlw	t4,t2,a0
     318:	0ffeff13          	zext.b	t5,t4
     31c:	001e0893          	addi	a7,t3,1
     320:	003f1f93          	slli	t6,t5,0x3
     324:	0115b023          	sd	a7,0(a1)
     328:	01f782b3          	add	t0,a5,t6
     32c:	0002b083          	ld	ra,0(t0)
     330:	00a6d3bb          	srlw	t2,a3,a0
     334:	0ff3f313          	zext.b	t1,t2
     338:	00108613          	addi	a2,ra,1
     33c:	00331693          	slli	a3,t1,0x3
     340:	00c2b023          	sd	a2,0(t0)
     344:	00d785b3          	add	a1,a5,a3
     348:	0005be03          	ld	t3,0(a1)
     34c:	02070713          	addi	a4,a4,32
     350:	001e0e93          	addi	t4,t3,1
     354:	01d5b023          	sd	t4,0(a1)
     358:	ef076ee3          	bltu	a4,a6,254 <sort+0x1c8>
     35c:	00449813          	slli	a6,s1,0x4
     360:	010b0333          	add	t1,s6,a6
     364:	01ab0f33          	add	t5,s6,s10
     368:	000b851b          	sext.w	a0,s7
     36c:	15e37463          	bgeu	t1,t5,4b4 <sort+0x428>
     370:	00032703          	lw	a4,0(t1)
     374:	fff34893          	not	a7,t1
     378:	011f0fb3          	add	t6,t5,a7
     37c:	00a752bb          	srlw	t0,a4,a0
     380:	0ff2f093          	zext.b	ra,t0
     384:	00309393          	slli	t2,ra,0x3
     388:	00778633          	add	a2,a5,t2
     38c:	00063e03          	ld	t3,0(a2)
     390:	002fd693          	srli	a3,t6,0x2
     394:	00430593          	addi	a1,t1,4
     398:	001e0e93          	addi	t4,t3,1
     39c:	01d63023          	sd	t4,0(a2)
     3a0:	0036f813          	andi	a6,a3,3
     3a4:	11e5f863          	bgeu	a1,t5,4b4 <sort+0x428>
     3a8:	08080263          	beqz	a6,42c <sort+0x3a0>
     3ac:	00100713          	li	a4,1
     3b0:	04e80a63          	beq	a6,a4,404 <sort+0x378>
     3b4:	00200893          	li	a7,2
     3b8:	03180463          	beq	a6,a7,3e0 <sort+0x354>
     3bc:	0005af83          	lw	t6,0(a1)
     3c0:	00830593          	addi	a1,t1,8
     3c4:	00afd33b          	srlw	t1,t6,a0
     3c8:	0ff37293          	zext.b	t0,t1
     3cc:	00329093          	slli	ra,t0,0x3
     3d0:	001783b3          	add	t2,a5,ra
     3d4:	0003b603          	ld	a2,0(t2)
     3d8:	00160e13          	addi	t3,a2,1
     3dc:	01c3b023          	sd	t3,0(t2)
     3e0:	0005a683          	lw	a3,0(a1)
     3e4:	00458593          	addi	a1,a1,4
     3e8:	00a6debb          	srlw	t4,a3,a0
     3ec:	0ffef813          	zext.b	a6,t4
     3f0:	00381713          	slli	a4,a6,0x3
     3f4:	00e788b3          	add	a7,a5,a4
     3f8:	0008bf83          	ld	t6,0(a7)
     3fc:	001f8313          	addi	t1,t6,1
     400:	0068b023          	sd	t1,0(a7)
     404:	0005a283          	lw	t0,0(a1)
     408:	00458593          	addi	a1,a1,4
     40c:	00a2d0bb          	srlw	ra,t0,a0
     410:	0ff0f393          	zext.b	t2,ra
     414:	00339613          	slli	a2,t2,0x3
     418:	00c78e33          	add	t3,a5,a2
     41c:	000e3683          	ld	a3,0(t3)
     420:	00168e93          	addi	t4,a3,1
     424:	01de3023          	sd	t4,0(t3)
     428:	09e5f663          	bgeu	a1,t5,4b4 <sort+0x428>
     42c:	0005a803          	lw	a6,0(a1)
     430:	0045af83          	lw	t6,4(a1)
     434:	0085a303          	lw	t1,8(a1)
     438:	00a8573b          	srlw	a4,a6,a0
     43c:	0ff77893          	zext.b	a7,a4
     440:	00389293          	slli	t0,a7,0x3
     444:	005780b3          	add	ra,a5,t0
     448:	0000b383          	ld	t2,0(ra)
     44c:	00afd63b          	srlw	a2,t6,a0
     450:	0ff67e13          	zext.b	t3,a2
     454:	00138693          	addi	a3,t2,1
     458:	003e1e93          	slli	t4,t3,0x3
     45c:	00d0b023          	sd	a3,0(ra)
     460:	01d78833          	add	a6,a5,t4
     464:	00083f83          	ld	t6,0(a6)
     468:	00a3533b          	srlw	t1,t1,a0
     46c:	0ff37293          	zext.b	t0,t1
     470:	00c5a703          	lw	a4,12(a1)
     474:	001f8893          	addi	a7,t6,1
     478:	00329093          	slli	ra,t0,0x3
     47c:	01183023          	sd	a7,0(a6)
     480:	001783b3          	add	t2,a5,ra
     484:	0003b603          	ld	a2,0(t2)
     488:	00a75e3b          	srlw	t3,a4,a0
     48c:	0ffe7693          	zext.b	a3,t3
     490:	00160e93          	addi	t4,a2,1
     494:	00369813          	slli	a6,a3,0x3
     498:	01d3b023          	sd	t4,0(t2)
     49c:	01078fb3          	add	t6,a5,a6
     4a0:	000fb303          	ld	t1,0(t6)
     4a4:	01058593          	addi	a1,a1,16
     4a8:	00130293          	addi	t0,t1,1
     4ac:	005fb023          	sd	t0,0(t6)
     4b0:	f7e5eee3          	bltu	a1,t5,42c <sort+0x3a0>
     4b4:	0087bf03          	ld	t5,8(a5)
     4b8:	0007b503          	ld	a0,0(a5)
     4bc:	419c05b3          	sub	a1,s8,s9
     4c0:	ff058713          	addi	a4,a1,-16
     4c4:	00475893          	srli	a7,a4,0x4
     4c8:	00af0633          	add	a2,t5,a0
     4cc:	00188093          	addi	ra,a7,1
     4d0:	00c7b423          	sd	a2,8(a5)
     4d4:	0070f393          	andi	t2,ra,7
     4d8:	000c8713          	mv	a4,s9
     4dc:	0e038e63          	beqz	t2,5d8 <sort+0x54c>
     4e0:	00100e13          	li	t3,1
     4e4:	0dc38a63          	beq	t2,t3,5b8 <sort+0x52c>
     4e8:	00200693          	li	a3,2
     4ec:	0ad38863          	beq	t2,a3,59c <sort+0x510>
     4f0:	00300e93          	li	t4,3
     4f4:	09d38663          	beq	t2,t4,580 <sort+0x4f4>
     4f8:	00400813          	li	a6,4
     4fc:	07038463          	beq	t2,a6,564 <sort+0x4d8>
     500:	00500f93          	li	t6,5
     504:	05f38263          	beq	t2,t6,548 <sort+0x4bc>
     508:	00600313          	li	t1,6
     50c:	02638063          	beq	t2,t1,52c <sort+0x4a0>
     510:	000cb283          	ld	t0,0(s9)
     514:	008cbf03          	ld	t5,8(s9)
     518:	010c8713          	addi	a4,s9,16
     51c:	00560533          	add	a0,a2,t0
     520:	01e50633          	add	a2,a0,t5
     524:	00acb023          	sd	a0,0(s9)
     528:	00ccb423          	sd	a2,8(s9)
     52c:	00073883          	ld	a7,0(a4)
     530:	00873583          	ld	a1,8(a4)
     534:	01070713          	addi	a4,a4,16
     538:	011600b3          	add	ra,a2,a7
     53c:	00b08633          	add	a2,ra,a1
     540:	fe173823          	sd	ra,-16(a4)
     544:	fec73c23          	sd	a2,-8(a4)
     548:	00073383          	ld	t2,0(a4)
     54c:	00873e03          	ld	t3,8(a4)
     550:	01070713          	addi	a4,a4,16
     554:	007606b3          	add	a3,a2,t2
     558:	01c68633          	add	a2,a3,t3
     55c:	fed73823          	sd	a3,-16(a4)
     560:	fec73c23          	sd	a2,-8(a4)
     564:	00073e83          	ld	t4,0(a4)
     568:	00873803          	ld	a6,8(a4)
     56c:	01070713          	addi	a4,a4,16
     570:	01d60fb3          	add	t6,a2,t4
     574:	010f8633          	add	a2,t6,a6
     578:	fff73823          	sd	t6,-16(a4)
     57c:	fec73c23          	sd	a2,-8(a4)
     580:	00073303          	ld	t1,0(a4)
     584:	00873283          	ld	t0,8(a4)
     588:	01070713          	addi	a4,a4,16
     58c:	00660f33          	add	t5,a2,t1
     590:	005f0633          	add	a2,t5,t0
     594:	ffe73823          	sd	t5,-16(a4)
     598:	fec73c23          	sd	a2,-8(a4)
     59c:	00073503          	ld	a0,0(a4)
     5a0:	00873883          	ld	a7,8(a4)
     5a4:	01070713          	addi	a4,a4,16
     5a8:	00a605b3          	add	a1,a2,a0
     5ac:	01158633          	add	a2,a1,a7
     5b0:	feb73823          	sd	a1,-16(a4)
     5b4:	fec73c23          	sd	a2,-8(a4)
     5b8:	00073083          	ld	ra,0(a4)
     5bc:	00873383          	ld	t2,8(a4)
     5c0:	01070713          	addi	a4,a4,16
     5c4:	00160e33          	add	t3,a2,ra
     5c8:	007e0633          	add	a2,t3,t2
     5cc:	ffc73823          	sd	t3,-16(a4)
     5d0:	fec73c23          	sd	a2,-8(a4)
     5d4:	0f870063          	beq	a4,s8,6b4 <sort+0x628>
     5d8:	00073e83          	ld	t4,0(a4)
     5dc:	00873803          	ld	a6,8(a4)
     5e0:	01073683          	ld	a3,16(a4)
     5e4:	01873f03          	ld	t5,24(a4)
     5e8:	01d60fb3          	add	t6,a2,t4
     5ec:	02073083          	ld	ra,32(a4)
     5f0:	010f8333          	add	t1,t6,a6
     5f4:	02873e03          	ld	t3,40(a4)
     5f8:	00d302b3          	add	t0,t1,a3
     5fc:	01e285b3          	add	a1,t0,t5
     600:	03073683          	ld	a3,48(a4)
     604:	00158eb3          	add	t4,a1,ra
     608:	01ce8833          	add	a6,t4,t3
     60c:	01f73023          	sd	t6,0(a4)
     610:	00573823          	sd	t0,16(a4)
     614:	00b73c23          	sd	a1,24(a4)
     618:	03d73023          	sd	t4,32(a4)
     61c:	00673423          	sd	t1,8(a4)
     620:	03073423          	sd	a6,40(a4)
     624:	03070893          	addi	a7,a4,48
     628:	04070393          	addi	t2,a4,64
     62c:	05070513          	addi	a0,a4,80
     630:	06070613          	addi	a2,a4,96
     634:	07070f93          	addi	t6,a4,112
     638:	00d802b3          	add	t0,a6,a3
     63c:	02573823          	sd	t0,48(a4)
     640:	0088b303          	ld	t1,8(a7)
     644:	08070713          	addi	a4,a4,128
     648:	00628f33          	add	t5,t0,t1
     64c:	01e8b423          	sd	t5,8(a7)
     650:	fc073883          	ld	a7,-64(a4)
     654:	011f05b3          	add	a1,t5,a7
     658:	fcb73023          	sd	a1,-64(a4)
     65c:	0083b083          	ld	ra,8(t2)
     660:	00158eb3          	add	t4,a1,ra
     664:	01d3b423          	sd	t4,8(t2)
     668:	fd073383          	ld	t2,-48(a4)
     66c:	007e8e33          	add	t3,t4,t2
     670:	fdc73823          	sd	t3,-48(a4)
     674:	00853803          	ld	a6,8(a0)
     678:	010e06b3          	add	a3,t3,a6
     67c:	00d53423          	sd	a3,8(a0)
     680:	fe073503          	ld	a0,-32(a4)
     684:	00a682b3          	add	t0,a3,a0
     688:	fe573023          	sd	t0,-32(a4)
     68c:	00863303          	ld	t1,8(a2)
     690:	00628f33          	add	t5,t0,t1
     694:	01e63423          	sd	t5,8(a2)
     698:	ff073603          	ld	a2,-16(a4)
     69c:	00cf08b3          	add	a7,t5,a2
     6a0:	ff173823          	sd	a7,-16(a4)
     6a4:	008fb583          	ld	a1,8(t6)
     6a8:	00b88633          	add	a2,a7,a1
     6ac:	00cfb423          	sd	a2,8(t6)
     6b0:	f38714e3          	bne	a4,s8,5d8 <sort+0x54c>
     6b4:	014b08b3          	add	a7,s6,s4
     6b8:	00cb0093          	addi	ra,s6,12
     6bc:	0c18e463          	bltu	a7,ra,784 <sort+0x6f8>
     6c0:	000b881b          	sext.w	a6,s7
     6c4:	00088593          	mv	a1,a7
     6c8:	0005ae03          	lw	t3,0(a1)
     6cc:	ffc5a303          	lw	t1,-4(a1)
     6d0:	ff85a503          	lw	a0,-8(a1)
     6d4:	010e573b          	srlw	a4,t3,a6
     6d8:	0ff77f93          	zext.b	t6,a4
     6dc:	003f9e93          	slli	t4,t6,0x3
     6e0:	01d783b3          	add	t2,a5,t4
     6e4:	0003b603          	ld	a2,0(t2)
     6e8:	010356bb          	srlw	a3,t1,a6
     6ec:	0ff6f293          	zext.b	t0,a3
     6f0:	00329713          	slli	a4,t0,0x3
     6f4:	fff60f13          	addi	t5,a2,-1
     6f8:	ff45ae83          	lw	t4,-12(a1)
     6fc:	00e78fb3          	add	t6,a5,a4
     700:	01e3b023          	sd	t5,0(t2)
     704:	000fb283          	ld	t0,0(t6)
     708:	010553bb          	srlw	t2,a0,a6
     70c:	0ff3f693          	zext.b	a3,t2
     710:	00369713          	slli	a4,a3,0x3
     714:	fff28f13          	addi	t5,t0,-1
     718:	01efb023          	sd	t5,0(t6)
     71c:	00e78fb3          	add	t6,a5,a4
     720:	000fbf03          	ld	t5,0(t6)
     724:	010ed3bb          	srlw	t2,t4,a6
     728:	0ff3f693          	zext.b	a3,t2
     72c:	00369713          	slli	a4,a3,0x3
     730:	ffff0393          	addi	t2,t5,-1
     734:	007fb023          	sd	t2,0(t6)
     738:	00e78733          	add	a4,a5,a4
     73c:	00073683          	ld	a3,0(a4)
     740:	00261613          	slli	a2,a2,0x2
     744:	00ca8fb3          	add	t6,s5,a2
     748:	fff68393          	addi	t2,a3,-1
     74c:	00773023          	sd	t2,0(a4)
     750:	00229293          	slli	t0,t0,0x2
     754:	ffcfae23          	sw	t3,-4(t6)
     758:	002f1f13          	slli	t5,t5,0x2
     75c:	005a8e33          	add	t3,s5,t0
     760:	fe6e2e23          	sw	t1,-4(t3)
     764:	00269713          	slli	a4,a3,0x2
     768:	01ea8333          	add	t1,s5,t5
     76c:	fea32e23          	sw	a0,-4(t1)
     770:	00ea8533          	add	a0,s5,a4
     774:	ffd52e23          	sw	t4,-4(a0)
     778:	ff058593          	addi	a1,a1,-16
     77c:	f415f6e3          	bgeu	a1,ra,6c8 <sort+0x63c>
     780:	008888b3          	add	a7,a7,s0
     784:	0d68e863          	bltu	a7,s6,854 <sort+0x7c8>
     788:	0008a083          	lw	ra,0(a7)
     78c:	ffc88813          	addi	a6,a7,-4
     790:	000b8e9b          	sext.w	t4,s7
     794:	0170d6bb          	srlw	a3,ra,s7
     798:	0ff6f613          	zext.b	a2,a3
     79c:	00361f93          	slli	t6,a2,0x3
     7a0:	01f783b3          	add	t2,a5,t6
     7a4:	0003b283          	ld	t0,0(t2)
     7a8:	fff28e13          	addi	t3,t0,-1
     7ac:	002e1f13          	slli	t5,t3,0x2
     7b0:	01c3b023          	sd	t3,0(t2)
     7b4:	01ea8333          	add	t1,s5,t5
     7b8:	00132023          	sw	ra,0(t1)
     7bc:	09686c63          	bltu	a6,s6,854 <sort+0x7c8>
     7c0:	ffc8a083          	lw	ra,-4(a7)
     7c4:	ff888593          	addi	a1,a7,-8
     7c8:	01d0d53b          	srlw	a0,ra,t4
     7cc:	0ff57813          	zext.b	a6,a0
     7d0:	00381693          	slli	a3,a6,0x3
     7d4:	00d78fb3          	add	t6,a5,a3
     7d8:	000fb603          	ld	a2,0(t6)
     7dc:	fff60393          	addi	t2,a2,-1
     7e0:	00239293          	slli	t0,t2,0x2
     7e4:	007fb023          	sd	t2,0(t6)
     7e8:	005a8e33          	add	t3,s5,t0
     7ec:	001e2023          	sw	ra,0(t3)
     7f0:	0765e263          	bltu	a1,s6,854 <sort+0x7c8>
     7f4:	ff88af03          	lw	t5,-8(a7)
     7f8:	ff488313          	addi	t1,a7,-12
     7fc:	01df573b          	srlw	a4,t5,t4
     800:	0ff77093          	zext.b	ra,a4
     804:	00309513          	slli	a0,ra,0x3
     808:	00a78833          	add	a6,a5,a0
     80c:	00083683          	ld	a3,0(a6)
     810:	fff68f93          	addi	t6,a3,-1
     814:	002f9613          	slli	a2,t6,0x2
     818:	01f83023          	sd	t6,0(a6)
     81c:	00ca83b3          	add	t2,s5,a2
     820:	01e3a023          	sw	t5,0(t2)
     824:	03636863          	bltu	t1,s6,854 <sort+0x7c8>
     828:	ff48a883          	lw	a7,-12(a7)
     82c:	01d8debb          	srlw	t4,a7,t4
     830:	0ffefe13          	zext.b	t3,t4
     834:	003e1593          	slli	a1,t3,0x3
     838:	00b78f33          	add	t5,a5,a1
     83c:	000f3303          	ld	t1,0(t5)
     840:	fff30713          	addi	a4,t1,-1
     844:	00271093          	slli	ra,a4,0x2
     848:	00ef3023          	sd	a4,0(t5)
     84c:	001a8533          	add	a0,s5,ra
     850:	01152023          	sw	a7,0(a0)
     854:	008b8b93          	addi	s7,s7,8
     858:	02000813          	li	a6,32
     85c:	010b8a63          	beq	s7,a6,870 <sort+0x7e4>
     860:	000b0693          	mv	a3,s6
     864:	000a8b13          	mv	s6,s5
     868:	00068a93          	mv	s5,a3
     86c:	8a1ff06f          	j	10c <sort+0x80>
     870:	05598663          	beq	s3,s5,8bc <sort+0x830>
     874:	07010113          	addi	sp,sp,112
     878:	7e813083          	ld	ra,2024(sp)
     87c:	7e013403          	ld	s0,2016(sp)
     880:	7d813483          	ld	s1,2008(sp)
     884:	7d013903          	ld	s2,2000(sp)
     888:	7c813983          	ld	s3,1992(sp)
     88c:	7c013a03          	ld	s4,1984(sp)
     890:	7a813b83          	ld	s7,1960(sp)
     894:	7a013c03          	ld	s8,1952(sp)
     898:	79813c83          	ld	s9,1944(sp)
     89c:	000d0613          	mv	a2,s10
     8a0:	000b0593          	mv	a1,s6
     8a4:	79013d03          	ld	s10,1936(sp)
     8a8:	7b013b03          	ld	s6,1968(sp)
     8ac:	000a8513          	mv	a0,s5
     8b0:	7b813a83          	ld	s5,1976(sp)
     8b4:	7f010113          	addi	sp,sp,2032
     8b8:	04c0006f          	j	904 <memcpy>
     8bc:	07010113          	addi	sp,sp,112
     8c0:	7e813083          	ld	ra,2024(sp)
     8c4:	7e013403          	ld	s0,2016(sp)
     8c8:	7d813483          	ld	s1,2008(sp)
     8cc:	7d013903          	ld	s2,2000(sp)
     8d0:	7c813983          	ld	s3,1992(sp)
     8d4:	7c013a03          	ld	s4,1984(sp)
     8d8:	7b813a83          	ld	s5,1976(sp)
     8dc:	7b013b03          	ld	s6,1968(sp)
     8e0:	7a813b83          	ld	s7,1960(sp)
     8e4:	7a013c03          	ld	s8,1952(sp)
     8e8:	79813c83          	ld	s9,1944(sp)
     8ec:	79013d03          	ld	s10,1936(sp)
     8f0:	7f010113          	addi	sp,sp,2032
     8f4:	00008067          	ret
     8f8:	000b0313          	mv	t1,s6
     8fc:	a69ff06f          	j	364 <sort+0x2d8>

0000000000000900 <setStats>:
     900:	00008067          	ret

0000000000000904 <memcpy>:
     904:	00b567b3          	or	a5,a0,a1
     908:	00c7e2b3          	or	t0,a5,a2
     90c:	0072f313          	andi	t1,t0,7
     910:	00c506b3          	add	a3,a0,a2
     914:	10030863          	beqz	t1,a24 <memcpy+0x120>
     918:	00c58633          	add	a2,a1,a2
     91c:	00050793          	mv	a5,a0
     920:	10d57063          	bgeu	a0,a3,a20 <memcpy+0x11c>
     924:	40b60733          	sub	a4,a2,a1
     928:	00777393          	andi	t2,a4,7
     92c:	0a038463          	beqz	t2,9d4 <memcpy+0xd0>
     930:	00100813          	li	a6,1
     934:	09038663          	beq	t2,a6,9c0 <memcpy+0xbc>
     938:	00200893          	li	a7,2
     93c:	07138a63          	beq	t2,a7,9b0 <memcpy+0xac>
     940:	00300e13          	li	t3,3
     944:	05c38e63          	beq	t2,t3,9a0 <memcpy+0x9c>
     948:	00400e93          	li	t4,4
     94c:	05d38263          	beq	t2,t4,990 <memcpy+0x8c>
     950:	00500f13          	li	t5,5
     954:	03e38663          	beq	t2,t5,980 <memcpy+0x7c>
     958:	00600f93          	li	t6,6
     95c:	01f38a63          	beq	t2,t6,970 <memcpy+0x6c>
     960:	0005c283          	lbu	t0,0(a1)
     964:	00150793          	addi	a5,a0,1
     968:	00158593          	addi	a1,a1,1
     96c:	00550023          	sb	t0,0(a0)
     970:	0005c303          	lbu	t1,0(a1)
     974:	00178793          	addi	a5,a5,1
     978:	00158593          	addi	a1,a1,1
     97c:	fe678fa3          	sb	t1,-1(a5)
     980:	0005c683          	lbu	a3,0(a1)
     984:	00178793          	addi	a5,a5,1
     988:	00158593          	addi	a1,a1,1
     98c:	fed78fa3          	sb	a3,-1(a5)
     990:	0005c703          	lbu	a4,0(a1)
     994:	00178793          	addi	a5,a5,1
     998:	00158593          	addi	a1,a1,1
     99c:	fee78fa3          	sb	a4,-1(a5)
     9a0:	0005c383          	lbu	t2,0(a1)
     9a4:	00178793          	addi	a5,a5,1
     9a8:	00158593          	addi	a1,a1,1
     9ac:	fe778fa3          	sb	t2,-1(a5)
     9b0:	0005c803          	lbu	a6,0(a1)
     9b4:	00178793          	addi	a5,a5,1
     9b8:	00158593          	addi	a1,a1,1
     9bc:	ff078fa3          	sb	a6,-1(a5)
     9c0:	0005c883          	lbu	a7,0(a1)
     9c4:	00158593          	addi	a1,a1,1
     9c8:	00178793          	addi	a5,a5,1
     9cc:	ff178fa3          	sb	a7,-1(a5)
     9d0:	16c58c63          	beq	a1,a2,b48 <memcpy+0x244>
     9d4:	0005ce03          	lbu	t3,0(a1)
     9d8:	00858593          	addi	a1,a1,8
     9dc:	00878793          	addi	a5,a5,8
     9e0:	ffc78c23          	sb	t3,-8(a5)
     9e4:	ff95ce83          	lbu	t4,-7(a1)
     9e8:	ffd78ca3          	sb	t4,-7(a5)
     9ec:	ffa5cf03          	lbu	t5,-6(a1)
     9f0:	ffe78d23          	sb	t5,-6(a5)
     9f4:	ffb5cf83          	lbu	t6,-5(a1)
     9f8:	fff78da3          	sb	t6,-5(a5)
     9fc:	ffc5c283          	lbu	t0,-4(a1)
     a00:	fe578e23          	sb	t0,-4(a5)
     a04:	ffd5c303          	lbu	t1,-3(a1)
     a08:	fe678ea3          	sb	t1,-3(a5)
     a0c:	ffe5c683          	lbu	a3,-2(a1)
     a10:	fed78f23          	sb	a3,-2(a5)
     a14:	fff5c703          	lbu	a4,-1(a1)
     a18:	fee78fa3          	sb	a4,-1(a5)
     a1c:	fac59ce3          	bne	a1,a2,9d4 <memcpy+0xd0>
     a20:	00008067          	ret
     a24:	fed57ee3          	bgeu	a0,a3,a20 <memcpy+0x11c>
     a28:	0005b603          	ld	a2,0(a1)
     a2c:	fff54393          	not	t2,a0
     a30:	00768833          	add	a6,a3,t2
     a34:	00385893          	srli	a7,a6,0x3
     a38:	00850793          	addi	a5,a0,8
     a3c:	fec7bc23          	sd	a2,-8(a5)
     a40:	00858593          	addi	a1,a1,8
     a44:	0078fe13          	andi	t3,a7,7
     a48:	10d7f463          	bgeu	a5,a3,b50 <memcpy+0x24c>
     a4c:	080e0c63          	beqz	t3,ae4 <memcpy+0x1e0>
     a50:	00100e93          	li	t4,1
     a54:	07de0e63          	beq	t3,t4,ad0 <memcpy+0x1cc>
     a58:	00200f13          	li	t5,2
     a5c:	07ee0263          	beq	t3,t5,ac0 <memcpy+0x1bc>
     a60:	00300f93          	li	t6,3
     a64:	05fe0663          	beq	t3,t6,ab0 <memcpy+0x1ac>
     a68:	00400293          	li	t0,4
     a6c:	025e0a63          	beq	t3,t0,aa0 <memcpy+0x19c>
     a70:	00500313          	li	t1,5
     a74:	006e0e63          	beq	t3,t1,a90 <memcpy+0x18c>
     a78:	00600713          	li	a4,6
     a7c:	0aee1c63          	bne	t3,a4,b34 <memcpy+0x230>
     a80:	0005b383          	ld	t2,0(a1)
     a84:	00878793          	addi	a5,a5,8
     a88:	00858593          	addi	a1,a1,8
     a8c:	fe77bc23          	sd	t2,-8(a5)
     a90:	0005b803          	ld	a6,0(a1)
     a94:	00878793          	addi	a5,a5,8
     a98:	00858593          	addi	a1,a1,8
     a9c:	ff07bc23          	sd	a6,-8(a5)
     aa0:	0005b883          	ld	a7,0(a1)
     aa4:	00878793          	addi	a5,a5,8
     aa8:	00858593          	addi	a1,a1,8
     aac:	ff17bc23          	sd	a7,-8(a5)
     ab0:	0005be03          	ld	t3,0(a1)
     ab4:	00878793          	addi	a5,a5,8
     ab8:	00858593          	addi	a1,a1,8
     abc:	ffc7bc23          	sd	t3,-8(a5)
     ac0:	0005be83          	ld	t4,0(a1)
     ac4:	00878793          	addi	a5,a5,8
     ac8:	00858593          	addi	a1,a1,8
     acc:	ffd7bc23          	sd	t4,-8(a5)
     ad0:	0005bf03          	ld	t5,0(a1)
     ad4:	00878793          	addi	a5,a5,8
     ad8:	00858593          	addi	a1,a1,8
     adc:	ffe7bc23          	sd	t5,-8(a5)
     ae0:	06d7f663          	bgeu	a5,a3,b4c <memcpy+0x248>
     ae4:	0005bf83          	ld	t6,0(a1)
     ae8:	04058593          	addi	a1,a1,64
     aec:	04078793          	addi	a5,a5,64
     af0:	fdf7b023          	sd	t6,-64(a5)
     af4:	fc85b283          	ld	t0,-56(a1)
     af8:	fc57b423          	sd	t0,-56(a5)
     afc:	fd05b303          	ld	t1,-48(a1)
     b00:	fc67b823          	sd	t1,-48(a5)
     b04:	fd85b703          	ld	a4,-40(a1)
     b08:	fce7bc23          	sd	a4,-40(a5)
     b0c:	fe05b603          	ld	a2,-32(a1)
     b10:	fec7b023          	sd	a2,-32(a5)
     b14:	fe85b383          	ld	t2,-24(a1)
     b18:	fe77b423          	sd	t2,-24(a5)
     b1c:	ff05b803          	ld	a6,-16(a1)
     b20:	ff07b823          	sd	a6,-16(a5)
     b24:	ff85b883          	ld	a7,-8(a1)
     b28:	ff17bc23          	sd	a7,-8(a5)
     b2c:	fad7ece3          	bltu	a5,a3,ae4 <memcpy+0x1e0>
     b30:	00008067          	ret
     b34:	0005b603          	ld	a2,0(a1)
     b38:	00878793          	addi	a5,a5,8
     b3c:	00858593          	addi	a1,a1,8
     b40:	fec7bc23          	sd	a2,-8(a5)
     b44:	f3dff06f          	j	a80 <memcpy+0x17c>
     b48:	00008067          	ret
     b4c:	00008067          	ret
     b50:	00008067          	ret

0000000000000b54 <memset>:
     b54:	ff010113          	addi	sp,sp,-16
     b58:	00c567b3          	or	a5,a0,a2
     b5c:	00113423          	sd	ra,8(sp)
     b60:	00813023          	sd	s0,0(sp)
     b64:	0077f093          	andi	ra,a5,7
     b68:	00050413          	mv	s0,a0
     b6c:	00c50733          	add	a4,a0,a2
     b70:	02008263          	beqz	ra,b94 <memset+0x40>
     b74:	00e57663          	bgeu	a0,a4,b80 <memset+0x2c>
     b78:	0ff5f593          	zext.b	a1,a1
     b7c:	fd9ff0ef          	jal	ra,b54 <memset>
     b80:	00813083          	ld	ra,8(sp)
     b84:	00040513          	mv	a0,s0
     b88:	00013403          	ld	s0,0(sp)
     b8c:	01010113          	addi	sp,sp,16
     b90:	00008067          	ret
     b94:	0ff5f593          	zext.b	a1,a1
     b98:	00859693          	slli	a3,a1,0x8
     b9c:	00b6e2b3          	or	t0,a3,a1
     ba0:	01029313          	slli	t1,t0,0x10
     ba4:	005363b3          	or	t2,t1,t0
     ba8:	02039513          	slli	a0,t2,0x20
     bac:	00756833          	or	a6,a0,t2
     bb0:	fce478e3          	bgeu	s0,a4,b80 <memset+0x2c>
     bb4:	fff44613          	not	a2,s0
     bb8:	00c708b3          	add	a7,a4,a2
     bbc:	0038de13          	srli	t3,a7,0x3
     bc0:	00840793          	addi	a5,s0,8
     bc4:	ff07bc23          	sd	a6,-8(a5)
     bc8:	007e7e93          	andi	t4,t3,7
     bcc:	fae7fae3          	bgeu	a5,a4,b80 <memset+0x2c>
     bd0:	060e8463          	beqz	t4,c38 <memset+0xe4>
     bd4:	00100f13          	li	t5,1
     bd8:	05ee8a63          	beq	t4,t5,c2c <memset+0xd8>
     bdc:	00200f93          	li	t6,2
     be0:	05fe8263          	beq	t4,t6,c24 <memset+0xd0>
     be4:	00300093          	li	ra,3
     be8:	021e8a63          	beq	t4,ra,c1c <memset+0xc8>
     bec:	00400593          	li	a1,4
     bf0:	02be8263          	beq	t4,a1,c14 <memset+0xc0>
     bf4:	00500693          	li	a3,5
     bf8:	00de8a63          	beq	t4,a3,c0c <memset+0xb8>
     bfc:	00600293          	li	t0,6
     c00:	065e9263          	bne	t4,t0,c64 <memset+0x110>
     c04:	0107b023          	sd	a6,0(a5)
     c08:	00878793          	addi	a5,a5,8
     c0c:	0107b023          	sd	a6,0(a5)
     c10:	00878793          	addi	a5,a5,8
     c14:	0107b023          	sd	a6,0(a5)
     c18:	00878793          	addi	a5,a5,8
     c1c:	0107b023          	sd	a6,0(a5)
     c20:	00878793          	addi	a5,a5,8
     c24:	0107b023          	sd	a6,0(a5)
     c28:	00878793          	addi	a5,a5,8
     c2c:	00878793          	addi	a5,a5,8
     c30:	ff07bc23          	sd	a6,-8(a5)
     c34:	f4e7f6e3          	bgeu	a5,a4,b80 <memset+0x2c>
     c38:	0107b023          	sd	a6,0(a5)
     c3c:	0107b423          	sd	a6,8(a5)
     c40:	0107b823          	sd	a6,16(a5)
     c44:	0107bc23          	sd	a6,24(a5)
     c48:	0307b023          	sd	a6,32(a5)
     c4c:	0307b423          	sd	a6,40(a5)
     c50:	0307b823          	sd	a6,48(a5)
     c54:	0307bc23          	sd	a6,56(a5)
     c58:	04078793          	addi	a5,a5,64
     c5c:	fce7eee3          	bltu	a5,a4,c38 <memset+0xe4>
     c60:	f21ff06f          	j	b80 <memset+0x2c>
     c64:	0107b023          	sd	a6,0(a5)
     c68:	00878793          	addi	a5,a5,8
     c6c:	f99ff06f          	j	c04 <memset+0xb0>

0000000000000c70 <strlen>:
     c70:	00054783          	lbu	a5,0(a0)
     c74:	00078e63          	beqz	a5,c90 <strlen+0x20>
     c78:	00050293          	mv	t0,a0
     c7c:	0012c703          	lbu	a4,1(t0)
     c80:	00128293          	addi	t0,t0,1
     c84:	fe071ce3          	bnez	a4,c7c <strlen+0xc>
     c88:	40a28533          	sub	a0,t0,a0
     c8c:	00008067          	ret
     c90:	00000513          	li	a0,0
     c94:	00008067          	ret

0000000000000c98 <strnlen>:
     c98:	00b506b3          	add	a3,a0,a1
     c9c:	00050793          	mv	a5,a0
     ca0:	10058a63          	beqz	a1,db4 <strnlen+0x11c>
     ca4:	40a68733          	sub	a4,a3,a0
     ca8:	00777293          	andi	t0,a4,7
     cac:	08028063          	beqz	t0,d2c <strnlen+0x94>
     cb0:	00100613          	li	a2,1
     cb4:	06c28463          	beq	t0,a2,d1c <strnlen+0x84>
     cb8:	00200313          	li	t1,2
     cbc:	04628a63          	beq	t0,t1,d10 <strnlen+0x78>
     cc0:	00300393          	li	t2,3
     cc4:	04728063          	beq	t0,t2,d04 <strnlen+0x6c>
     cc8:	00400593          	li	a1,4
     ccc:	02b28663          	beq	t0,a1,cf8 <strnlen+0x60>
     cd0:	00500813          	li	a6,5
     cd4:	01028c63          	beq	t0,a6,cec <strnlen+0x54>
     cd8:	00600893          	li	a7,6
     cdc:	0d129463          	bne	t0,a7,da4 <strnlen+0x10c>
     ce0:	0007ce83          	lbu	t4,0(a5)
     ce4:	0a0e8c63          	beqz	t4,d9c <strnlen+0x104>
     ce8:	00178793          	addi	a5,a5,1
     cec:	0007cf03          	lbu	t5,0(a5)
     cf0:	0a0f0663          	beqz	t5,d9c <strnlen+0x104>
     cf4:	00178793          	addi	a5,a5,1
     cf8:	0007cf83          	lbu	t6,0(a5)
     cfc:	0a0f8063          	beqz	t6,d9c <strnlen+0x104>
     d00:	00178793          	addi	a5,a5,1
     d04:	0007c703          	lbu	a4,0(a5)
     d08:	08070a63          	beqz	a4,d9c <strnlen+0x104>
     d0c:	00178793          	addi	a5,a5,1
     d10:	0007c283          	lbu	t0,0(a5)
     d14:	08028463          	beqz	t0,d9c <strnlen+0x104>
     d18:	00178793          	addi	a5,a5,1
     d1c:	0007c603          	lbu	a2,0(a5)
     d20:	06060e63          	beqz	a2,d9c <strnlen+0x104>
     d24:	00178793          	addi	a5,a5,1
     d28:	06f68663          	beq	a3,a5,d94 <strnlen+0xfc>
     d2c:	0007c303          	lbu	t1,0(a5)
     d30:	06030663          	beqz	t1,d9c <strnlen+0x104>
     d34:	0017c383          	lbu	t2,1(a5)
     d38:	00178793          	addi	a5,a5,1
     d3c:	00078593          	mv	a1,a5
     d40:	04038e63          	beqz	t2,d9c <strnlen+0x104>
     d44:	0017c803          	lbu	a6,1(a5)
     d48:	00178793          	addi	a5,a5,1
     d4c:	04080863          	beqz	a6,d9c <strnlen+0x104>
     d50:	0025c883          	lbu	a7,2(a1)
     d54:	00258793          	addi	a5,a1,2
     d58:	04088263          	beqz	a7,d9c <strnlen+0x104>
     d5c:	0035ce03          	lbu	t3,3(a1)
     d60:	00358793          	addi	a5,a1,3
     d64:	020e0c63          	beqz	t3,d9c <strnlen+0x104>
     d68:	0045ce83          	lbu	t4,4(a1)
     d6c:	00458793          	addi	a5,a1,4
     d70:	020e8663          	beqz	t4,d9c <strnlen+0x104>
     d74:	0055cf03          	lbu	t5,5(a1)
     d78:	00558793          	addi	a5,a1,5
     d7c:	020f0063          	beqz	t5,d9c <strnlen+0x104>
     d80:	0065cf83          	lbu	t6,6(a1)
     d84:	00658793          	addi	a5,a1,6
     d88:	000f8a63          	beqz	t6,d9c <strnlen+0x104>
     d8c:	00758793          	addi	a5,a1,7
     d90:	f8f69ee3          	bne	a3,a5,d2c <strnlen+0x94>
     d94:	40a68533          	sub	a0,a3,a0
     d98:	00008067          	ret
     d9c:	40a78533          	sub	a0,a5,a0
     da0:	00008067          	ret
     da4:	00054e03          	lbu	t3,0(a0)
     da8:	fe0e0ae3          	beqz	t3,d9c <strnlen+0x104>
     dac:	00150793          	addi	a5,a0,1
     db0:	f31ff06f          	j	ce0 <strnlen+0x48>
     db4:	00000513          	li	a0,0
     db8:	00008067          	ret

0000000000000dbc <strcmp>:
     dbc:	00054783          	lbu	a5,0(a0)
     dc0:	00158593          	addi	a1,a1,1
     dc4:	00150513          	addi	a0,a0,1
     dc8:	fff5c703          	lbu	a4,-1(a1)
     dcc:	00078a63          	beqz	a5,de0 <strcmp+0x24>
     dd0:	fee786e3          	beq	a5,a4,dbc <strcmp>
     dd4:	0007851b          	sext.w	a0,a5
     dd8:	40e5053b          	subw	a0,a0,a4
     ddc:	00008067          	ret
     de0:	00000513          	li	a0,0
     de4:	ff5ff06f          	j	dd8 <strcmp+0x1c>

0000000000000de8 <strcpy>:
     de8:	00050793          	mv	a5,a0
     dec:	0005c703          	lbu	a4,0(a1)
     df0:	00178793          	addi	a5,a5,1
     df4:	00158593          	addi	a1,a1,1
     df8:	fee78fa3          	sb	a4,-1(a5)
     dfc:	fe0718e3          	bnez	a4,dec <strcpy+0x4>
     e00:	00008067          	ret

0000000000000e04 <atol>:
     e04:	00054703          	lbu	a4,0(a0)
     e08:	02000693          	li	a3,32
     e0c:	00050793          	mv	a5,a0
     e10:	00d71863          	bne	a4,a3,e20 <atol+0x1c>
     e14:	0017c703          	lbu	a4,1(a5)
     e18:	00178793          	addi	a5,a5,1
     e1c:	fed70ce3          	beq	a4,a3,e14 <atol+0x10>
     e20:	02d00293          	li	t0,45
     e24:	06570063          	beq	a4,t0,e84 <atol+0x80>
     e28:	02b00313          	li	t1,43
     e2c:	04670063          	beq	a4,t1,e6c <atol+0x68>
     e30:	0007c383          	lbu	t2,0(a5)
     e34:	00000593          	li	a1,0
     e38:	04038263          	beqz	t2,e7c <atol+0x78>
     e3c:	00000513          	li	a0,0
     e40:	00178793          	addi	a5,a5,1
     e44:	fd03861b          	addiw	a2,t2,-48
     e48:	00251813          	slli	a6,a0,0x2
     e4c:	0007c383          	lbu	t2,0(a5)
     e50:	00a80533          	add	a0,a6,a0
     e54:	00151893          	slli	a7,a0,0x1
     e58:	01160533          	add	a0,a2,a7
     e5c:	fe0392e3          	bnez	t2,e40 <atol+0x3c>
     e60:	02058063          	beqz	a1,e80 <atol+0x7c>
     e64:	40a00533          	neg	a0,a0
     e68:	00008067          	ret
     e6c:	0017c383          	lbu	t2,1(a5)
     e70:	00000593          	li	a1,0
     e74:	00178793          	addi	a5,a5,1
     e78:	fc0392e3          	bnez	t2,e3c <atol+0x38>
     e7c:	00000513          	li	a0,0
     e80:	00008067          	ret
     e84:	0017c383          	lbu	t2,1(a5)
     e88:	00100593          	li	a1,1
     e8c:	00178793          	addi	a5,a5,1
     e90:	fa0396e3          	bnez	t2,e3c <atol+0x38>
     e94:	00000513          	li	a0,0
     e98:	fe9ff06f          	j	e80 <atol+0x7c>

0000000000000e9c <main>:
     e9c:	00001537          	lui	a0,0x1
     ea0:	ff010113          	addi	sp,sp,-16
     ea4:	80050513          	addi	a0,a0,-2048 # 800 <sort+0x774>
     ea8:	00006617          	auipc	a2,0x6
     eac:	38060613          	addi	a2,a2,896 # 7228 <scratch.0>
     eb0:	00002597          	auipc	a1,0x2
     eb4:	27858593          	addi	a1,a1,632 # 3128 <input_data>
     eb8:	00113423          	sd	ra,8(sp)
     ebc:	9d0ff0ef          	jal	ra,8c <sort>
     ec0:	00002717          	auipc	a4,0x2
     ec4:	26870713          	addi	a4,a4,616 # 3128 <input_data>
     ec8:	00000797          	auipc	a5,0x0
     ecc:	26078793          	addi	a5,a5,608 # 1128 <verify_data>
     ed0:	00000513          	li	a0,0
     ed4:	00072603          	lw	a2,0(a4)
     ed8:	0007a583          	lw	a1,0(a5)
     edc:	00472683          	lw	a3,4(a4)
     ee0:	0047a803          	lw	a6,4(a5)
     ee4:	0006809b          	sext.w	ra,a3
     ee8:	10c59c63          	bne	a1,a2,1000 <main+0x164>
     eec:	0025051b          	addiw	a0,a0,2
     ef0:	11009263          	bne	ra,a6,ff4 <main+0x158>
     ef4:	00872283          	lw	t0,8(a4)
     ef8:	0087a883          	lw	a7,8(a5)
     efc:	00c72383          	lw	t2,12(a4)
     f00:	00c7a303          	lw	t1,12(a5)
     f04:	00870e13          	addi	t3,a4,8
     f08:	00878e93          	addi	t4,a5,8
     f0c:	00038f1b          	sext.w	t5,t2
     f10:	0e589863          	bne	a7,t0,1000 <main+0x164>
     f14:	0025051b          	addiw	a0,a0,2
     f18:	0c6f1e63          	bne	t5,t1,ff4 <main+0x158>
     f1c:	01072f83          	lw	t6,16(a4)
     f20:	0107a603          	lw	a2,16(a5)
     f24:	01472583          	lw	a1,20(a4)
     f28:	0147a683          	lw	a3,20(a5)
     f2c:	0005881b          	sext.w	a6,a1
     f30:	0df61863          	bne	a2,t6,1000 <main+0x164>
     f34:	0025051b          	addiw	a0,a0,2
     f38:	0ad81e63          	bne	a6,a3,ff4 <main+0x158>
     f3c:	01872083          	lw	ra,24(a4)
     f40:	0187a283          	lw	t0,24(a5)
     f44:	01c72883          	lw	a7,28(a4)
     f48:	01c7a383          	lw	t2,28(a5)
     f4c:	0008831b          	sext.w	t1,a7
     f50:	0a129863          	bne	t0,ra,1000 <main+0x164>
     f54:	0025051b          	addiw	a0,a0,2
     f58:	08731e63          	bne	t1,t2,ff4 <main+0x158>
     f5c:	02072f03          	lw	t5,32(a4)
     f60:	0207af83          	lw	t6,32(a5)
     f64:	02472703          	lw	a4,36(a4)
     f68:	0247a783          	lw	a5,36(a5)
     f6c:	0007061b          	sext.w	a2,a4
     f70:	09ef9863          	bne	t6,t5,1000 <main+0x164>
     f74:	0025051b          	addiw	a0,a0,2
     f78:	06f61e63          	bne	a2,a5,ff4 <main+0x158>
     f7c:	020e2683          	lw	a3,32(t3)
     f80:	020ea583          	lw	a1,32(t4)
     f84:	024e2083          	lw	ra,36(t3)
     f88:	024ea803          	lw	a6,36(t4)
     f8c:	0000829b          	sext.w	t0,ra
     f90:	06d59863          	bne	a1,a3,1000 <main+0x164>
     f94:	0025051b          	addiw	a0,a0,2
     f98:	05029e63          	bne	t0,a6,ff4 <main+0x158>
     f9c:	028e2883          	lw	a7,40(t3)
     fa0:	028ea383          	lw	t2,40(t4)
     fa4:	02ce2303          	lw	t1,44(t3)
     fa8:	02ceaf03          	lw	t5,44(t4)
     fac:	00030f9b          	sext.w	t6,t1
     fb0:	05139863          	bne	t2,a7,1000 <main+0x164>
     fb4:	0025051b          	addiw	a0,a0,2
     fb8:	03ef9e63          	bne	t6,t5,ff4 <main+0x158>
     fbc:	030e2603          	lw	a2,48(t3)
     fc0:	030ea683          	lw	a3,48(t4)
     fc4:	034e2703          	lw	a4,52(t3)
     fc8:	034ea583          	lw	a1,52(t4)
     fcc:	0007009b          	sext.w	ra,a4
     fd0:	02c69863          	bne	a3,a2,1000 <main+0x164>
     fd4:	0025051b          	addiw	a0,a0,2
     fd8:	00b09e63          	bne	ra,a1,ff4 <main+0x158>
     fdc:	8005081b          	addiw	a6,a0,-2048
     fe0:	038e0713          	addi	a4,t3,56
     fe4:	038e8793          	addi	a5,t4,56
     fe8:	ee0816e3          	bnez	a6,ed4 <main+0x38>
     fec:	00bc6537          	lui	a0,0xbc6
     ff0:	14e50513          	addi	a0,a0,334 # bc614e <scratch.0+0xbbef26>
     ff4:	00813083          	ld	ra,8(sp)
     ff8:	01010113          	addi	sp,sp,16
     ffc:	00008067          	ret
    1000:	0015051b          	addiw	a0,a0,1
    1004:	ff1ff06f          	j	ff4 <main+0x158>

0000000000001008 <end>:
    1008:	00000013          	nop
    100c:	00000013          	nop
    1010:	00000013          	nop
    1014:	00000013          	nop
    1018:	00000013          	nop
    101c:	00000013          	nop

0000000000001020 <_last>:
    1020:	fe9ff06f          	j	1008 <end>
