
spmv.riscv:     file format elf32-littleriscv


Disassembly of section .text:

00000000 <_start>:
       0:	00000093          	li	ra,0
       4:	00000113          	li	sp,0
       8:	00000193          	li	gp,0
       c:	00000213          	li	tp,0
      10:	00000293          	li	t0,0
      14:	00000313          	li	t1,0
      18:	00000393          	li	t2,0
      1c:	00000413          	li	s0,0
      20:	00000493          	li	s1,0
      24:	00000513          	li	a0,0
      28:	00000593          	li	a1,0
      2c:	00000613          	li	a2,0
      30:	00000693          	li	a3,0
      34:	00000713          	li	a4,0
      38:	00000793          	li	a5,0
      3c:	00000813          	li	a6,0
      40:	00000893          	li	a7,0
      44:	00000913          	li	s2,0
      48:	00000993          	li	s3,0
      4c:	00000a13          	li	s4,0
      50:	00000a93          	li	s5,0
      54:	00000b13          	li	s6,0
      58:	00000b93          	li	s7,0
      5c:	00000c13          	li	s8,0
      60:	00000c93          	li	s9,0
      64:	00000d13          	li	s10,0
      68:	00000d93          	li	s11,0
      6c:	00000e13          	li	t3,0
      70:	00000e93          	li	t4,0
      74:	00000f13          	li	t5,0
      78:	00000f93          	li	t6,0
      7c:	0000d117          	auipc	sp,0xd
      80:	fc410113          	addi	sp,sp,-60 # d040 <STACK>
      84:	3ac010ef          	jal	ra,1430 <main>
      88:	4c00106f          	j	1548 <end>

0000008c <spmv>:
      8c:	30a05063          	blez	a0,38c <spmv+0x300>
      90:	fa010113          	addi	sp,sp,-96
      94:	00251513          	slli	a0,a0,0x2
      98:	00f12823          	sw	a5,16(sp)
      9c:	00a707b3          	add	a5,a4,a0
      a0:	03812c23          	sw	s8,56(sp)
      a4:	04112e23          	sw	ra,92(sp)
      a8:	04812c23          	sw	s0,88(sp)
      ac:	04912a23          	sw	s1,84(sp)
      b0:	05212823          	sw	s2,80(sp)
      b4:	05312623          	sw	s3,76(sp)
      b8:	05412423          	sw	s4,72(sp)
      bc:	05512223          	sw	s5,68(sp)
      c0:	05612023          	sw	s6,64(sp)
      c4:	03712e23          	sw	s7,60(sp)
      c8:	03912a23          	sw	s9,52(sp)
      cc:	03a12823          	sw	s10,48(sp)
      d0:	03b12623          	sw	s11,44(sp)
      d4:	00068c13          	mv	s8,a3
      d8:	00c12c23          	sw	a2,24(sp)
      dc:	00b12a23          	sw	a1,20(sp)
      e0:	00e12423          	sw	a4,8(sp)
      e4:	00f12e23          	sw	a5,28(sp)
      e8:	00812783          	lw	a5,8(sp)
      ec:	0047a703          	lw	a4,4(a5)
      f0:	0007ac83          	lw	s9,0(a5)
      f4:	ffd70793          	addi	a5,a4,-3
      f8:	00e12623          	sw	a4,12(sp)
      fc:	01912223          	sw	s9,4(sp)
     100:	00f12023          	sw	a5,0(sp)
     104:	26fcda63          	ble	a5,s9,378 <spmv+0x2ec>
     108:	01412703          	lw	a4,20(sp)
     10c:	003c9413          	slli	s0,s9,0x3
     110:	00000d13          	li	s10,0
     114:	00870433          	add	s0,a4,s0
     118:	01812703          	lw	a4,24(sp)
     11c:	00000d93          	li	s11,0
     120:	002c9793          	slli	a5,s9,0x2
     124:	00f704b3          	add	s1,a4,a5
     128:	000d0b13          	mv	s6,s10
     12c:	000d8b93          	mv	s7,s11
     130:	000d0a13          	mv	s4,s10
     134:	000d8a93          	mv	s5,s11
     138:	000d0913          	mv	s2,s10
     13c:	000d8993          	mv	s3,s11
     140:	0004a703          	lw	a4,0(s1)
     144:	00042603          	lw	a2,0(s0)
     148:	00442683          	lw	a3,4(s0)
     14c:	00371713          	slli	a4,a4,0x3
     150:	00ec0733          	add	a4,s8,a4
     154:	00072503          	lw	a0,0(a4)
     158:	00472583          	lw	a1,4(a4)
     15c:	01048493          	addi	s1,s1,16
     160:	02040413          	addi	s0,s0,32
     164:	4a9000ef          	jal	ra,e0c <__muldf3>
     168:	00050613          	mv	a2,a0
     16c:	00058693          	mv	a3,a1
     170:	00090513          	mv	a0,s2
     174:	00098593          	mv	a1,s3
     178:	400000ef          	jal	ra,578 <__adddf3>
     17c:	ff44a703          	lw	a4,-12(s1)
     180:	fe842603          	lw	a2,-24(s0)
     184:	fec42683          	lw	a3,-20(s0)
     188:	00371713          	slli	a4,a4,0x3
     18c:	00ec0733          	add	a4,s8,a4
     190:	00050913          	mv	s2,a0
     194:	00058993          	mv	s3,a1
     198:	00072503          	lw	a0,0(a4)
     19c:	00472583          	lw	a1,4(a4)
     1a0:	004c8c93          	addi	s9,s9,4
     1a4:	469000ef          	jal	ra,e0c <__muldf3>
     1a8:	00050613          	mv	a2,a0
     1ac:	00058693          	mv	a3,a1
     1b0:	000a0513          	mv	a0,s4
     1b4:	000a8593          	mv	a1,s5
     1b8:	3c0000ef          	jal	ra,578 <__adddf3>
     1bc:	ff84a703          	lw	a4,-8(s1)
     1c0:	ff042603          	lw	a2,-16(s0)
     1c4:	ff442683          	lw	a3,-12(s0)
     1c8:	00371713          	slli	a4,a4,0x3
     1cc:	00ec0733          	add	a4,s8,a4
     1d0:	00050a13          	mv	s4,a0
     1d4:	00058a93          	mv	s5,a1
     1d8:	00072503          	lw	a0,0(a4)
     1dc:	00472583          	lw	a1,4(a4)
     1e0:	42d000ef          	jal	ra,e0c <__muldf3>
     1e4:	00050613          	mv	a2,a0
     1e8:	00058693          	mv	a3,a1
     1ec:	000b0513          	mv	a0,s6
     1f0:	000b8593          	mv	a1,s7
     1f4:	384000ef          	jal	ra,578 <__adddf3>
     1f8:	ffc4a703          	lw	a4,-4(s1)
     1fc:	ff842603          	lw	a2,-8(s0)
     200:	ffc42683          	lw	a3,-4(s0)
     204:	00371713          	slli	a4,a4,0x3
     208:	00ec0733          	add	a4,s8,a4
     20c:	00050b13          	mv	s6,a0
     210:	00058b93          	mv	s7,a1
     214:	00072503          	lw	a0,0(a4)
     218:	00472583          	lw	a1,4(a4)
     21c:	3f1000ef          	jal	ra,e0c <__muldf3>
     220:	00050613          	mv	a2,a0
     224:	00058693          	mv	a3,a1
     228:	000d0513          	mv	a0,s10
     22c:	000d8593          	mv	a1,s11
     230:	348000ef          	jal	ra,578 <__adddf3>
     234:	00012783          	lw	a5,0(sp)
     238:	00050d13          	mv	s10,a0
     23c:	00058d93          	mv	s11,a1
     240:	f0fcc0e3          	blt	s9,a5,140 <spmv+0xb4>
     244:	00c12783          	lw	a5,12(sp)
     248:	00412703          	lw	a4,4(sp)
     24c:	000b0613          	mv	a2,s6
     250:	ffc78793          	addi	a5,a5,-4
     254:	40e787b3          	sub	a5,a5,a4
     258:	00470493          	addi	s1,a4,4
     25c:	ffc7f793          	andi	a5,a5,-4
     260:	009787b3          	add	a5,a5,s1
     264:	000b8693          	mv	a3,s7
     268:	000a0513          	mv	a0,s4
     26c:	000a8593          	mv	a1,s5
     270:	00f12223          	sw	a5,4(sp)
     274:	304000ef          	jal	ra,578 <__adddf3>
     278:	000d0613          	mv	a2,s10
     27c:	000d8693          	mv	a3,s11
     280:	2f8000ef          	jal	ra,578 <__adddf3>
     284:	00050a13          	mv	s4,a0
     288:	00058a93          	mv	s5,a1
     28c:	00c12703          	lw	a4,12(sp)
     290:	00412783          	lw	a5,4(sp)
     294:	06e7d663          	ble	a4,a5,300 <spmv+0x274>
     298:	00379b13          	slli	s6,a5,0x3
     29c:	00279493          	slli	s1,a5,0x2
     2a0:	00371413          	slli	s0,a4,0x3
     2a4:	01412783          	lw	a5,20(sp)
     2a8:	01812703          	lw	a4,24(sp)
     2ac:	01678b33          	add	s6,a5,s6
     2b0:	009704b3          	add	s1,a4,s1
     2b4:	00878433          	add	s0,a5,s0
     2b8:	0004a783          	lw	a5,0(s1)
     2bc:	000b2603          	lw	a2,0(s6)
     2c0:	004b2683          	lw	a3,4(s6)
     2c4:	00379793          	slli	a5,a5,0x3
     2c8:	00fc07b3          	add	a5,s8,a5
     2cc:	0007a503          	lw	a0,0(a5)
     2d0:	0047a583          	lw	a1,4(a5)
     2d4:	008b0b13          	addi	s6,s6,8
     2d8:	00448493          	addi	s1,s1,4
     2dc:	331000ef          	jal	ra,e0c <__muldf3>
     2e0:	00050613          	mv	a2,a0
     2e4:	00058693          	mv	a3,a1
     2e8:	00090513          	mv	a0,s2
     2ec:	00098593          	mv	a1,s3
     2f0:	288000ef          	jal	ra,578 <__adddf3>
     2f4:	00050913          	mv	s2,a0
     2f8:	00058993          	mv	s3,a1
     2fc:	fb641ee3          	bne	s0,s6,2b8 <spmv+0x22c>
     300:	000a0613          	mv	a2,s4
     304:	000a8693          	mv	a3,s5
     308:	00090513          	mv	a0,s2
     30c:	00098593          	mv	a1,s3
     310:	268000ef          	jal	ra,578 <__adddf3>
     314:	01012783          	lw	a5,16(sp)
     318:	00812703          	lw	a4,8(sp)
     31c:	00a7a023          	sw	a0,0(a5)
     320:	00b7a223          	sw	a1,4(a5)
     324:	00878793          	addi	a5,a5,8
     328:	00f12823          	sw	a5,16(sp)
     32c:	01c12783          	lw	a5,28(sp)
     330:	00470713          	addi	a4,a4,4
     334:	00e12423          	sw	a4,8(sp)
     338:	dae798e3          	bne	a5,a4,e8 <spmv+0x5c>
     33c:	05c12083          	lw	ra,92(sp)
     340:	05812403          	lw	s0,88(sp)
     344:	05412483          	lw	s1,84(sp)
     348:	05012903          	lw	s2,80(sp)
     34c:	04c12983          	lw	s3,76(sp)
     350:	04812a03          	lw	s4,72(sp)
     354:	04412a83          	lw	s5,68(sp)
     358:	04012b03          	lw	s6,64(sp)
     35c:	03c12b83          	lw	s7,60(sp)
     360:	03812c03          	lw	s8,56(sp)
     364:	03412c83          	lw	s9,52(sp)
     368:	03012d03          	lw	s10,48(sp)
     36c:	02c12d83          	lw	s11,44(sp)
     370:	06010113          	addi	sp,sp,96
     374:	00008067          	ret
     378:	00000a13          	li	s4,0
     37c:	00000a93          	li	s5,0
     380:	000a0913          	mv	s2,s4
     384:	000a8993          	mv	s3,s5
     388:	f05ff06f          	j	28c <spmv+0x200>
     38c:	00008067          	ret

00000390 <setStats>:
     390:	00008067          	ret

00000394 <memcpy>:
     394:	00c5e7b3          	or	a5,a1,a2
     398:	00f567b3          	or	a5,a0,a5
     39c:	0037f793          	andi	a5,a5,3
     3a0:	00c506b3          	add	a3,a0,a2
     3a4:	02078463          	beqz	a5,3cc <memcpy+0x38>
     3a8:	00c58633          	add	a2,a1,a2
     3ac:	00050793          	mv	a5,a0
     3b0:	02d57e63          	bleu	a3,a0,3ec <memcpy+0x58>
     3b4:	00158593          	addi	a1,a1,1
     3b8:	fff5c703          	lbu	a4,-1(a1)
     3bc:	00178793          	addi	a5,a5,1
     3c0:	fee78fa3          	sb	a4,-1(a5)
     3c4:	feb618e3          	bne	a2,a1,3b4 <memcpy+0x20>
     3c8:	00008067          	ret
     3cc:	fed57ee3          	bleu	a3,a0,3c8 <memcpy+0x34>
     3d0:	00050793          	mv	a5,a0
     3d4:	00458593          	addi	a1,a1,4
     3d8:	ffc5a703          	lw	a4,-4(a1)
     3dc:	00478793          	addi	a5,a5,4
     3e0:	fee7ae23          	sw	a4,-4(a5)
     3e4:	fed7e8e3          	bltu	a5,a3,3d4 <memcpy+0x40>
     3e8:	00008067          	ret
     3ec:	00008067          	ret

000003f0 <memset>:
     3f0:	00c567b3          	or	a5,a0,a2
     3f4:	0037f793          	andi	a5,a5,3
     3f8:	00c50633          	add	a2,a0,a2
     3fc:	02078063          	beqz	a5,41c <memset+0x2c>
     400:	0ff5f593          	andi	a1,a1,255
     404:	00050793          	mv	a5,a0
     408:	04c57063          	bleu	a2,a0,448 <memset+0x58>
     40c:	00178793          	addi	a5,a5,1
     410:	feb78fa3          	sb	a1,-1(a5)
     414:	fef61ce3          	bne	a2,a5,40c <memset+0x1c>
     418:	00008067          	ret
     41c:	0ff5f593          	andi	a1,a1,255
     420:	00859793          	slli	a5,a1,0x8
     424:	00b7e7b3          	or	a5,a5,a1
     428:	01079593          	slli	a1,a5,0x10
     42c:	00f5e5b3          	or	a1,a1,a5
     430:	fec574e3          	bleu	a2,a0,418 <memset+0x28>
     434:	00050793          	mv	a5,a0
     438:	00478793          	addi	a5,a5,4
     43c:	feb7ae23          	sw	a1,-4(a5)
     440:	fec7ece3          	bltu	a5,a2,438 <memset+0x48>
     444:	00008067          	ret
     448:	00008067          	ret

0000044c <strlen>:
     44c:	00054783          	lbu	a5,0(a0)
     450:	00050713          	mv	a4,a0
     454:	00078c63          	beqz	a5,46c <strlen+0x20>
     458:	00150513          	addi	a0,a0,1
     45c:	00054783          	lbu	a5,0(a0)
     460:	fe079ce3          	bnez	a5,458 <strlen+0xc>
     464:	40e50533          	sub	a0,a0,a4
     468:	00008067          	ret
     46c:	00000513          	li	a0,0
     470:	00008067          	ret

00000474 <strnlen>:
     474:	00050713          	mv	a4,a0
     478:	02058663          	beqz	a1,4a4 <strnlen+0x30>
     47c:	00054783          	lbu	a5,0(a0)
     480:	02078263          	beqz	a5,4a4 <strnlen+0x30>
     484:	00b505b3          	add	a1,a0,a1
     488:	00c0006f          	j	494 <strnlen+0x20>
     48c:	00054783          	lbu	a5,0(a0)
     490:	00078663          	beqz	a5,49c <strnlen+0x28>
     494:	00150513          	addi	a0,a0,1
     498:	feb51ae3          	bne	a0,a1,48c <strnlen+0x18>
     49c:	40e50533          	sub	a0,a0,a4
     4a0:	00008067          	ret
     4a4:	00000513          	li	a0,0
     4a8:	00008067          	ret

000004ac <strcmp>:
     4ac:	00150513          	addi	a0,a0,1
     4b0:	fff54783          	lbu	a5,-1(a0)
     4b4:	00158593          	addi	a1,a1,1
     4b8:	fff5c703          	lbu	a4,-1(a1)
     4bc:	00078863          	beqz	a5,4cc <strcmp+0x20>
     4c0:	fee786e3          	beq	a5,a4,4ac <strcmp>
     4c4:	40e78533          	sub	a0,a5,a4
     4c8:	00008067          	ret
     4cc:	00000793          	li	a5,0
     4d0:	ff5ff06f          	j	4c4 <strcmp+0x18>

000004d4 <strcpy>:
     4d4:	00050793          	mv	a5,a0
     4d8:	00158593          	addi	a1,a1,1
     4dc:	fff5c703          	lbu	a4,-1(a1)
     4e0:	00178793          	addi	a5,a5,1
     4e4:	fee78fa3          	sb	a4,-1(a5)
     4e8:	fe0718e3          	bnez	a4,4d8 <strcpy+0x4>
     4ec:	00008067          	ret

000004f0 <atol>:
     4f0:	00054783          	lbu	a5,0(a0)
     4f4:	02000713          	li	a4,32
     4f8:	00e79863          	bne	a5,a4,508 <atol+0x18>
     4fc:	00150513          	addi	a0,a0,1
     500:	00054783          	lbu	a5,0(a0)
     504:	fee78ce3          	beq	a5,a4,4fc <atol+0xc>
     508:	fd578713          	addi	a4,a5,-43
     50c:	0fd77713          	andi	a4,a4,253
     510:	04070263          	beqz	a4,554 <atol+0x64>
     514:	00054683          	lbu	a3,0(a0)
     518:	00050793          	mv	a5,a0
     51c:	00000613          	li	a2,0
     520:	04068863          	beqz	a3,570 <atol+0x80>
     524:	00000513          	li	a0,0
     528:	00178793          	addi	a5,a5,1
     52c:	fd068593          	addi	a1,a3,-48
     530:	00251713          	slli	a4,a0,0x2
     534:	0007c683          	lbu	a3,0(a5)
     538:	00a70533          	add	a0,a4,a0
     53c:	00151513          	slli	a0,a0,0x1
     540:	00a58533          	add	a0,a1,a0
     544:	fe0692e3          	bnez	a3,528 <atol+0x38>
     548:	00060463          	beqz	a2,550 <atol+0x60>
     54c:	40a00533          	neg	a0,a0
     550:	00008067          	ret
     554:	00154683          	lbu	a3,1(a0)
     558:	fd378793          	addi	a5,a5,-45
     55c:	0017b613          	seqz	a2,a5
     560:	00150793          	addi	a5,a0,1
     564:	fc0690e3          	bnez	a3,524 <atol+0x34>
     568:	00000513          	li	a0,0
     56c:	fddff06f          	j	548 <atol+0x58>
     570:	00000513          	li	a0,0
     574:	00008067          	ret

00000578 <__adddf3>:
     578:	00100837          	lui	a6,0x100
     57c:	fff80813          	addi	a6,a6,-1 # fffff <STACK+0xf2fbf>
     580:	fe010113          	addi	sp,sp,-32
     584:	00b878b3          	and	a7,a6,a1
     588:	0145d713          	srli	a4,a1,0x14
     58c:	01d55793          	srli	a5,a0,0x1d
     590:	01212823          	sw	s2,16(sp)
     594:	7ff77913          	andi	s2,a4,2047
     598:	00389713          	slli	a4,a7,0x3
     59c:	00d87833          	and	a6,a6,a3
     5a0:	00e7e7b3          	or	a5,a5,a4
     5a4:	0146d713          	srli	a4,a3,0x14
     5a8:	00381813          	slli	a6,a6,0x3
     5ac:	00912a23          	sw	s1,20(sp)
     5b0:	7ff77713          	andi	a4,a4,2047
     5b4:	01f6d893          	srli	a7,a3,0x1f
     5b8:	00112e23          	sw	ra,28(sp)
     5bc:	01d65693          	srli	a3,a2,0x1d
     5c0:	00812c23          	sw	s0,24(sp)
     5c4:	01312623          	sw	s3,12(sp)
     5c8:	01f5d493          	srli	s1,a1,0x1f
     5cc:	0106e333          	or	t1,a3,a6
     5d0:	00351513          	slli	a0,a0,0x3
     5d4:	00361613          	slli	a2,a2,0x3
     5d8:	40e90833          	sub	a6,s2,a4
     5dc:	3b149463          	bne	s1,a7,984 <__adddf3+0x40c>
     5e0:	1f005463          	blez	a6,7c8 <__adddf3+0x250>
     5e4:	14071263          	bnez	a4,728 <__adddf3+0x1b0>
     5e8:	00c36733          	or	a4,t1,a2
     5ec:	0c071463          	bnez	a4,6b4 <__adddf3+0x13c>
     5f0:	7ff00693          	li	a3,2047
     5f4:	00080713          	mv	a4,a6
     5f8:	30d81c63          	bne	a6,a3,910 <__adddf3+0x398>
     5fc:	00a7e6b3          	or	a3,a5,a0
     600:	30069863          	bnez	a3,910 <__adddf3+0x398>
     604:	00000793          	li	a5,0
     608:	00000513          	li	a0,0
     60c:	00879693          	slli	a3,a5,0x8
     610:	0006de63          	bgez	a3,62c <__adddf3+0xb4>
     614:	00170713          	addi	a4,a4,1
     618:	7ff00693          	li	a3,2047
     61c:	74d70c63          	beq	a4,a3,d74 <__adddf3+0x7fc>
     620:	ff8006b7          	lui	a3,0xff800
     624:	fff68693          	addi	a3,a3,-1 # ff7fffff <STACK+0xff7f2fbf>
     628:	00d7f7b3          	and	a5,a5,a3
     62c:	01d79693          	slli	a3,a5,0x1d
     630:	00355513          	srli	a0,a0,0x3
     634:	00a6e533          	or	a0,a3,a0
     638:	7ff00693          	li	a3,2047
     63c:	0037d793          	srli	a5,a5,0x3
     640:	00d71e63          	bne	a4,a3,65c <__adddf3+0xe4>
     644:	00f56533          	or	a0,a0,a5
     648:	00000793          	li	a5,0
     64c:	00050863          	beqz	a0,65c <__adddf3+0xe4>
     650:	000807b7          	lui	a5,0x80
     654:	00000513          	li	a0,0
     658:	00000493          	li	s1,0
     65c:	001006b7          	lui	a3,0x100
     660:	fff68693          	addi	a3,a3,-1 # fffff <STACK+0xf2fbf>
     664:	00d7f7b3          	and	a5,a5,a3
     668:	801006b7          	lui	a3,0x80100
     66c:	7ff77713          	andi	a4,a4,2047
     670:	fff68693          	addi	a3,a3,-1 # 800fffff <STACK+0x800f2fbf>
     674:	01471713          	slli	a4,a4,0x14
     678:	00d7f7b3          	and	a5,a5,a3
     67c:	00e7e7b3          	or	a5,a5,a4
     680:	80000737          	lui	a4,0x80000
     684:	fff74713          	not	a4,a4
     688:	01c12083          	lw	ra,28(sp)
     68c:	01812403          	lw	s0,24(sp)
     690:	01f49593          	slli	a1,s1,0x1f
     694:	00e7f7b3          	and	a5,a5,a4
     698:	00b7e733          	or	a4,a5,a1
     69c:	01412483          	lw	s1,20(sp)
     6a0:	01012903          	lw	s2,16(sp)
     6a4:	00c12983          	lw	s3,12(sp)
     6a8:	00070593          	mv	a1,a4
     6ac:	02010113          	addi	sp,sp,32
     6b0:	00008067          	ret
     6b4:	fff80593          	addi	a1,a6,-1
     6b8:	04059c63          	bnez	a1,710 <__adddf3+0x198>
     6bc:	00c50633          	add	a2,a0,a2
     6c0:	00a63533          	sltu	a0,a2,a0
     6c4:	006787b3          	add	a5,a5,t1
     6c8:	00a787b3          	add	a5,a5,a0
     6cc:	00100713          	li	a4,1
     6d0:	00060513          	mv	a0,a2
     6d4:	00879693          	slli	a3,a5,0x8
     6d8:	2206dc63          	bgez	a3,910 <__adddf3+0x398>
     6dc:	00170713          	addi	a4,a4,1 # 80000001 <STACK+0x7fff2fc1>
     6e0:	7ff00693          	li	a3,2047
     6e4:	f2d700e3          	beq	a4,a3,604 <__adddf3+0x8c>
     6e8:	ff8006b7          	lui	a3,0xff800
     6ec:	fff68693          	addi	a3,a3,-1 # ff7fffff <STACK+0xff7f2fbf>
     6f0:	00d7f6b3          	and	a3,a5,a3
     6f4:	00155593          	srli	a1,a0,0x1
     6f8:	00157513          	andi	a0,a0,1
     6fc:	01f69793          	slli	a5,a3,0x1f
     700:	00a5e533          	or	a0,a1,a0
     704:	00a7e533          	or	a0,a5,a0
     708:	0016d793          	srli	a5,a3,0x1
     70c:	2040006f          	j	910 <__adddf3+0x398>
     710:	7ff00713          	li	a4,2047
     714:	02e81463          	bne	a6,a4,73c <__adddf3+0x1c4>
     718:	00a7e733          	or	a4,a5,a0
     71c:	62070063          	beqz	a4,d3c <__adddf3+0x7c4>
     720:	7ff00713          	li	a4,2047
     724:	1ec0006f          	j	910 <__adddf3+0x398>
     728:	7ff00713          	li	a4,2047
     72c:	fee906e3          	beq	s2,a4,718 <__adddf3+0x1a0>
     730:	00800737          	lui	a4,0x800
     734:	00e36333          	or	t1,t1,a4
     738:	00080593          	mv	a1,a6
     73c:	03800713          	li	a4,56
     740:	06b74e63          	blt	a4,a1,7bc <__adddf3+0x244>
     744:	01f00713          	li	a4,31
     748:	04b74263          	blt	a4,a1,78c <__adddf3+0x214>
     74c:	02000713          	li	a4,32
     750:	40b70733          	sub	a4,a4,a1
     754:	00b656b3          	srl	a3,a2,a1
     758:	00e31833          	sll	a6,t1,a4
     75c:	00e61633          	sll	a2,a2,a4
     760:	00d86833          	or	a6,a6,a3
     764:	00c03633          	snez	a2,a2
     768:	00c86833          	or	a6,a6,a2
     76c:	00b355b3          	srl	a1,t1,a1
     770:	00a80833          	add	a6,a6,a0
     774:	00f585b3          	add	a1,a1,a5
     778:	00a837b3          	sltu	a5,a6,a0
     77c:	00f587b3          	add	a5,a1,a5
     780:	00080513          	mv	a0,a6
     784:	00090713          	mv	a4,s2
     788:	f4dff06f          	j	6d4 <__adddf3+0x15c>
     78c:	02000713          	li	a4,32
     790:	00b35833          	srl	a6,t1,a1
     794:	00000693          	li	a3,0
     798:	00e58863          	beq	a1,a4,7a8 <__adddf3+0x230>
     79c:	04000693          	li	a3,64
     7a0:	40b685b3          	sub	a1,a3,a1
     7a4:	00b316b3          	sll	a3,t1,a1
     7a8:	00c6e633          	or	a2,a3,a2
     7ac:	00c03633          	snez	a2,a2
     7b0:	00c86833          	or	a6,a6,a2
     7b4:	00000593          	li	a1,0
     7b8:	fb9ff06f          	j	770 <__adddf3+0x1f8>
     7bc:	00c36833          	or	a6,t1,a2
     7c0:	01003833          	snez	a6,a6
     7c4:	ff1ff06f          	j	7b4 <__adddf3+0x23c>
     7c8:	0e080a63          	beqz	a6,8bc <__adddf3+0x344>
     7cc:	08091e63          	bnez	s2,868 <__adddf3+0x2f0>
     7d0:	00a7e6b3          	or	a3,a5,a0
     7d4:	02069263          	bnez	a3,7f8 <__adddf3+0x280>
     7d8:	7ff00793          	li	a5,2047
     7dc:	00f71863          	bne	a4,a5,7ec <__adddf3+0x274>
     7e0:	00c36533          	or	a0,t1,a2
     7e4:	00000793          	li	a5,0
     7e8:	e20502e3          	beqz	a0,60c <__adddf3+0x94>
     7ec:	00030793          	mv	a5,t1
     7f0:	00060513          	mv	a0,a2
     7f4:	11c0006f          	j	910 <__adddf3+0x398>
     7f8:	fff00693          	li	a3,-1
     7fc:	00d81c63          	bne	a6,a3,814 <__adddf3+0x29c>
     800:	00c50533          	add	a0,a0,a2
     804:	006787b3          	add	a5,a5,t1
     808:	00c53633          	sltu	a2,a0,a2
     80c:	00c787b3          	add	a5,a5,a2
     810:	ec5ff06f          	j	6d4 <__adddf3+0x15c>
     814:	7ff00693          	li	a3,2047
     818:	fff84813          	not	a6,a6
     81c:	fcd702e3          	beq	a4,a3,7e0 <__adddf3+0x268>
     820:	03800693          	li	a3,56
     824:	0906c663          	blt	a3,a6,8b0 <__adddf3+0x338>
     828:	01f00693          	li	a3,31
     82c:	0506ca63          	blt	a3,a6,880 <__adddf3+0x308>
     830:	02000593          	li	a1,32
     834:	410585b3          	sub	a1,a1,a6
     838:	010558b3          	srl	a7,a0,a6
     83c:	00b796b3          	sll	a3,a5,a1
     840:	00b51533          	sll	a0,a0,a1
     844:	0116e6b3          	or	a3,a3,a7
     848:	00a03533          	snez	a0,a0
     84c:	00a6e533          	or	a0,a3,a0
     850:	0107d833          	srl	a6,a5,a6
     854:	00c50533          	add	a0,a0,a2
     858:	00680833          	add	a6,a6,t1
     85c:	00c537b3          	sltu	a5,a0,a2
     860:	00f807b3          	add	a5,a6,a5
     864:	e71ff06f          	j	6d4 <__adddf3+0x15c>
     868:	7ff00693          	li	a3,2047
     86c:	f6d70ae3          	beq	a4,a3,7e0 <__adddf3+0x268>
     870:	008006b7          	lui	a3,0x800
     874:	41000833          	neg	a6,a6
     878:	00d7e7b3          	or	a5,a5,a3
     87c:	fa5ff06f          	j	820 <__adddf3+0x2a8>
     880:	02000893          	li	a7,32
     884:	0107d6b3          	srl	a3,a5,a6
     888:	00000593          	li	a1,0
     88c:	01180863          	beq	a6,a7,89c <__adddf3+0x324>
     890:	04000593          	li	a1,64
     894:	41058833          	sub	a6,a1,a6
     898:	010795b3          	sll	a1,a5,a6
     89c:	00a5e533          	or	a0,a1,a0
     8a0:	00a03533          	snez	a0,a0
     8a4:	00a6e533          	or	a0,a3,a0
     8a8:	00000813          	li	a6,0
     8ac:	fa9ff06f          	j	854 <__adddf3+0x2dc>
     8b0:	00a7e533          	or	a0,a5,a0
     8b4:	00a03533          	snez	a0,a0
     8b8:	ff1ff06f          	j	8a8 <__adddf3+0x330>
     8bc:	00190713          	addi	a4,s2,1
     8c0:	7ff77593          	andi	a1,a4,2047
     8c4:	00100693          	li	a3,1
     8c8:	08b6c863          	blt	a3,a1,958 <__adddf3+0x3e0>
     8cc:	00a7e733          	or	a4,a5,a0
     8d0:	06091463          	bnez	s2,938 <__adddf3+0x3c0>
     8d4:	44070863          	beqz	a4,d24 <__adddf3+0x7ac>
     8d8:	00c366b3          	or	a3,t1,a2
     8dc:	00000713          	li	a4,0
     8e0:	02068863          	beqz	a3,910 <__adddf3+0x398>
     8e4:	00c50633          	add	a2,a0,a2
     8e8:	00a63533          	sltu	a0,a2,a0
     8ec:	006787b3          	add	a5,a5,t1
     8f0:	00a787b3          	add	a5,a5,a0
     8f4:	00879693          	slli	a3,a5,0x8
     8f8:	00060513          	mv	a0,a2
     8fc:	0006da63          	bgez	a3,910 <__adddf3+0x398>
     900:	ff800737          	lui	a4,0xff800
     904:	fff70713          	addi	a4,a4,-1 # ff7fffff <STACK+0xff7f2fbf>
     908:	00e7f7b3          	and	a5,a5,a4
     90c:	00100713          	li	a4,1
     910:	00757693          	andi	a3,a0,7
     914:	ce068ce3          	beqz	a3,60c <__adddf3+0x94>
     918:	00f57693          	andi	a3,a0,15
     91c:	00400613          	li	a2,4
     920:	cec686e3          	beq	a3,a2,60c <__adddf3+0x94>
     924:	00450693          	addi	a3,a0,4
     928:	00a6b533          	sltu	a0,a3,a0
     92c:	00a787b3          	add	a5,a5,a0
     930:	00068513          	mv	a0,a3
     934:	cd9ff06f          	j	60c <__adddf3+0x94>
     938:	3e070c63          	beqz	a4,d30 <__adddf3+0x7b8>
     93c:	00c36833          	or	a6,t1,a2
     940:	de0800e3          	beqz	a6,720 <__adddf3+0x1a8>
     944:	004007b7          	lui	a5,0x400
     948:	00000513          	li	a0,0
     94c:	7ff00713          	li	a4,2047
     950:	00000493          	li	s1,0
     954:	cb9ff06f          	j	60c <__adddf3+0x94>
     958:	7ff00693          	li	a3,2047
     95c:	cad704e3          	beq	a4,a3,604 <__adddf3+0x8c>
     960:	00c50633          	add	a2,a0,a2
     964:	00678833          	add	a6,a5,t1
     968:	00a637b3          	sltu	a5,a2,a0
     96c:	00f80833          	add	a6,a6,a5
     970:	01f81513          	slli	a0,a6,0x1f
     974:	00165613          	srli	a2,a2,0x1
     978:	00c56533          	or	a0,a0,a2
     97c:	00185793          	srli	a5,a6,0x1
     980:	f91ff06f          	j	910 <__adddf3+0x398>
     984:	0f005e63          	blez	a6,a80 <__adddf3+0x508>
     988:	0a071263          	bnez	a4,a2c <__adddf3+0x4b4>
     98c:	00c36733          	or	a4,t1,a2
     990:	c60700e3          	beqz	a4,5f0 <__adddf3+0x78>
     994:	fff80693          	addi	a3,a6,-1
     998:	02069e63          	bnez	a3,9d4 <__adddf3+0x45c>
     99c:	40c50633          	sub	a2,a0,a2
     9a0:	00c53533          	sltu	a0,a0,a2
     9a4:	406787b3          	sub	a5,a5,t1
     9a8:	40a787b3          	sub	a5,a5,a0
     9ac:	00100713          	li	a4,1
     9b0:	00060513          	mv	a0,a2
     9b4:	00879693          	slli	a3,a5,0x8
     9b8:	f406dce3          	bgez	a3,910 <__adddf3+0x398>
     9bc:	00800437          	lui	s0,0x800
     9c0:	fff40413          	addi	s0,s0,-1 # 7fffff <STACK+0x7f2fbf>
     9c4:	0087f433          	and	s0,a5,s0
     9c8:	00050993          	mv	s3,a0
     9cc:	00070913          	mv	s2,a4
     9d0:	2700006f          	j	c40 <__adddf3+0x6c8>
     9d4:	7ff00713          	li	a4,2047
     9d8:	d4e800e3          	beq	a6,a4,718 <__adddf3+0x1a0>
     9dc:	03800713          	li	a4,56
     9e0:	08d74a63          	blt	a4,a3,a74 <__adddf3+0x4fc>
     9e4:	01f00713          	li	a4,31
     9e8:	04d74e63          	blt	a4,a3,a44 <__adddf3+0x4cc>
     9ec:	02000713          	li	a4,32
     9f0:	40d70733          	sub	a4,a4,a3
     9f4:	00d655b3          	srl	a1,a2,a3
     9f8:	00e31833          	sll	a6,t1,a4
     9fc:	00e61633          	sll	a2,a2,a4
     a00:	00b86833          	or	a6,a6,a1
     a04:	00c03633          	snez	a2,a2
     a08:	00c86833          	or	a6,a6,a2
     a0c:	00d356b3          	srl	a3,t1,a3
     a10:	41050833          	sub	a6,a0,a6
     a14:	40d786b3          	sub	a3,a5,a3
     a18:	010537b3          	sltu	a5,a0,a6
     a1c:	40f687b3          	sub	a5,a3,a5
     a20:	00080513          	mv	a0,a6
     a24:	00090713          	mv	a4,s2
     a28:	f8dff06f          	j	9b4 <__adddf3+0x43c>
     a2c:	7ff00713          	li	a4,2047
     a30:	cee904e3          	beq	s2,a4,718 <__adddf3+0x1a0>
     a34:	00800737          	lui	a4,0x800
     a38:	00e36333          	or	t1,t1,a4
     a3c:	00080693          	mv	a3,a6
     a40:	f9dff06f          	j	9dc <__adddf3+0x464>
     a44:	02000713          	li	a4,32
     a48:	00d35833          	srl	a6,t1,a3
     a4c:	00000413          	li	s0,0
     a50:	00e68863          	beq	a3,a4,a60 <__adddf3+0x4e8>
     a54:	04000413          	li	s0,64
     a58:	40d406b3          	sub	a3,s0,a3
     a5c:	00d31433          	sll	s0,t1,a3
     a60:	00c46633          	or	a2,s0,a2
     a64:	00c03633          	snez	a2,a2
     a68:	00c86833          	or	a6,a6,a2
     a6c:	00000693          	li	a3,0
     a70:	fa1ff06f          	j	a10 <__adddf3+0x498>
     a74:	00c36833          	or	a6,t1,a2
     a78:	01003833          	snez	a6,a6
     a7c:	ff1ff06f          	j	a6c <__adddf3+0x4f4>
     a80:	0e080a63          	beqz	a6,b74 <__adddf3+0x5fc>
     a84:	08091e63          	bnez	s2,b20 <__adddf3+0x5a8>
     a88:	00a7e6b3          	or	a3,a5,a0
     a8c:	02069063          	bnez	a3,aac <__adddf3+0x534>
     a90:	7ff00793          	li	a5,2047
     a94:	00f71663          	bne	a4,a5,aa0 <__adddf3+0x528>
     a98:	00c36533          	or	a0,t1,a2
     a9c:	2a050863          	beqz	a0,d4c <__adddf3+0x7d4>
     aa0:	00030793          	mv	a5,t1
     aa4:	00060513          	mv	a0,a2
     aa8:	0fc0006f          	j	ba4 <__adddf3+0x62c>
     aac:	fff00693          	li	a3,-1
     ab0:	00d81e63          	bne	a6,a3,acc <__adddf3+0x554>
     ab4:	40a60533          	sub	a0,a2,a0
     ab8:	40f307b3          	sub	a5,t1,a5
     abc:	00a63633          	sltu	a2,a2,a0
     ac0:	40c787b3          	sub	a5,a5,a2
     ac4:	00088493          	mv	s1,a7
     ac8:	eedff06f          	j	9b4 <__adddf3+0x43c>
     acc:	7ff00693          	li	a3,2047
     ad0:	fff84813          	not	a6,a6
     ad4:	fcd702e3          	beq	a4,a3,a98 <__adddf3+0x520>
     ad8:	03800693          	li	a3,56
     adc:	0906c663          	blt	a3,a6,b68 <__adddf3+0x5f0>
     ae0:	01f00693          	li	a3,31
     ae4:	0506ca63          	blt	a3,a6,b38 <__adddf3+0x5c0>
     ae8:	02000593          	li	a1,32
     aec:	410585b3          	sub	a1,a1,a6
     af0:	01055e33          	srl	t3,a0,a6
     af4:	00b796b3          	sll	a3,a5,a1
     af8:	00b51533          	sll	a0,a0,a1
     afc:	01c6e6b3          	or	a3,a3,t3
     b00:	00a03533          	snez	a0,a0
     b04:	00a6e533          	or	a0,a3,a0
     b08:	0107d833          	srl	a6,a5,a6
     b0c:	40a60533          	sub	a0,a2,a0
     b10:	41030833          	sub	a6,t1,a6
     b14:	00a637b3          	sltu	a5,a2,a0
     b18:	40f807b3          	sub	a5,a6,a5
     b1c:	fa9ff06f          	j	ac4 <__adddf3+0x54c>
     b20:	7ff00693          	li	a3,2047
     b24:	f6d70ae3          	beq	a4,a3,a98 <__adddf3+0x520>
     b28:	008006b7          	lui	a3,0x800
     b2c:	41000833          	neg	a6,a6
     b30:	00d7e7b3          	or	a5,a5,a3
     b34:	fa5ff06f          	j	ad8 <__adddf3+0x560>
     b38:	02000e13          	li	t3,32
     b3c:	0107d6b3          	srl	a3,a5,a6
     b40:	00000593          	li	a1,0
     b44:	01c80863          	beq	a6,t3,b54 <__adddf3+0x5dc>
     b48:	04000593          	li	a1,64
     b4c:	41058833          	sub	a6,a1,a6
     b50:	010795b3          	sll	a1,a5,a6
     b54:	00a5e533          	or	a0,a1,a0
     b58:	00a03533          	snez	a0,a0
     b5c:	00a6e533          	or	a0,a3,a0
     b60:	00000813          	li	a6,0
     b64:	fa9ff06f          	j	b0c <__adddf3+0x594>
     b68:	00a7e533          	or	a0,a5,a0
     b6c:	00a03533          	snez	a0,a0
     b70:	ff1ff06f          	j	b60 <__adddf3+0x5e8>
     b74:	00190713          	addi	a4,s2,1
     b78:	7ff77713          	andi	a4,a4,2047
     b7c:	00100693          	li	a3,1
     b80:	08e6ca63          	blt	a3,a4,c14 <__adddf3+0x69c>
     b84:	00a7e6b3          	or	a3,a5,a0
     b88:	00c36733          	or	a4,t1,a2
     b8c:	06091463          	bnez	s2,bf4 <__adddf3+0x67c>
     b90:	00069e63          	bnez	a3,bac <__adddf3+0x634>
     b94:	1c070263          	beqz	a4,d58 <__adddf3+0x7e0>
     b98:	00030793          	mv	a5,t1
     b9c:	00060513          	mv	a0,a2
     ba0:	00000713          	li	a4,0
     ba4:	00088493          	mv	s1,a7
     ba8:	d69ff06f          	j	910 <__adddf3+0x398>
     bac:	04070063          	beqz	a4,bec <__adddf3+0x674>
     bb0:	40c506b3          	sub	a3,a0,a2
     bb4:	00d535b3          	sltu	a1,a0,a3
     bb8:	40678733          	sub	a4,a5,t1
     bbc:	40b70733          	sub	a4,a4,a1
     bc0:	00871593          	slli	a1,a4,0x8
     bc4:	0005dc63          	bgez	a1,bdc <__adddf3+0x664>
     bc8:	40a60533          	sub	a0,a2,a0
     bcc:	40f307b3          	sub	a5,t1,a5
     bd0:	00a63633          	sltu	a2,a2,a0
     bd4:	40c787b3          	sub	a5,a5,a2
     bd8:	fc9ff06f          	j	ba0 <__adddf3+0x628>
     bdc:	00e6e533          	or	a0,a3,a4
     be0:	0c050a63          	beqz	a0,cb4 <__adddf3+0x73c>
     be4:	00070793          	mv	a5,a4
     be8:	00068513          	mv	a0,a3
     bec:	00000713          	li	a4,0
     bf0:	d21ff06f          	j	910 <__adddf3+0x398>
     bf4:	00069c63          	bnez	a3,c0c <__adddf3+0x694>
     bf8:	16070863          	beqz	a4,d68 <__adddf3+0x7f0>
     bfc:	00030793          	mv	a5,t1
     c00:	00060513          	mv	a0,a2
     c04:	00088493          	mv	s1,a7
     c08:	b19ff06f          	j	720 <__adddf3+0x1a8>
     c0c:	b0070ae3          	beqz	a4,720 <__adddf3+0x1a8>
     c10:	d35ff06f          	j	944 <__adddf3+0x3cc>
     c14:	40c509b3          	sub	s3,a0,a2
     c18:	40678433          	sub	s0,a5,t1
     c1c:	01353833          	sltu	a6,a0,s3
     c20:	41040433          	sub	s0,s0,a6
     c24:	00841713          	slli	a4,s0,0x8
     c28:	08075263          	bgez	a4,cac <__adddf3+0x734>
     c2c:	40a609b3          	sub	s3,a2,a0
     c30:	40f30433          	sub	s0,t1,a5
     c34:	013637b3          	sltu	a5,a2,s3
     c38:	40f40433          	sub	s0,s0,a5
     c3c:	00088493          	mv	s1,a7
     c40:	06040e63          	beqz	s0,cbc <__adddf3+0x744>
     c44:	00040513          	mv	a0,s0
     c48:	79c000ef          	jal	ra,13e4 <__clzsi2>
     c4c:	ff850713          	addi	a4,a0,-8
     c50:	01f00793          	li	a5,31
     c54:	06e7cc63          	blt	a5,a4,ccc <__adddf3+0x754>
     c58:	02000793          	li	a5,32
     c5c:	40e787b3          	sub	a5,a5,a4
     c60:	00e41433          	sll	s0,s0,a4
     c64:	00f9d7b3          	srl	a5,s3,a5
     c68:	0087e433          	or	s0,a5,s0
     c6c:	00e99533          	sll	a0,s3,a4
     c70:	0b274063          	blt	a4,s2,d10 <__adddf3+0x798>
     c74:	41270733          	sub	a4,a4,s2
     c78:	00170793          	addi	a5,a4,1 # 800001 <STACK+0x7f2fc1>
     c7c:	01f00693          	li	a3,31
     c80:	04f6ce63          	blt	a3,a5,cdc <__adddf3+0x764>
     c84:	02000713          	li	a4,32
     c88:	40f70733          	sub	a4,a4,a5
     c8c:	00f55633          	srl	a2,a0,a5
     c90:	00e416b3          	sll	a3,s0,a4
     c94:	00e51533          	sll	a0,a0,a4
     c98:	00c6e6b3          	or	a3,a3,a2
     c9c:	00a03533          	snez	a0,a0
     ca0:	00a6e533          	or	a0,a3,a0
     ca4:	00f457b3          	srl	a5,s0,a5
     ca8:	f45ff06f          	j	bec <__adddf3+0x674>
     cac:	0089e533          	or	a0,s3,s0
     cb0:	f80518e3          	bnez	a0,c40 <__adddf3+0x6c8>
     cb4:	00000793          	li	a5,0
     cb8:	0a80006f          	j	d60 <__adddf3+0x7e8>
     cbc:	00098513          	mv	a0,s3
     cc0:	724000ef          	jal	ra,13e4 <__clzsi2>
     cc4:	02050513          	addi	a0,a0,32
     cc8:	f85ff06f          	j	c4c <__adddf3+0x6d4>
     ccc:	fd850413          	addi	s0,a0,-40
     cd0:	00899433          	sll	s0,s3,s0
     cd4:	00000513          	li	a0,0
     cd8:	f99ff06f          	j	c70 <__adddf3+0x6f8>
     cdc:	fe170713          	addi	a4,a4,-31
     ce0:	02000613          	li	a2,32
     ce4:	00e45733          	srl	a4,s0,a4
     ce8:	00000693          	li	a3,0
     cec:	00c78863          	beq	a5,a2,cfc <__adddf3+0x784>
     cf0:	04000693          	li	a3,64
     cf4:	40f686b3          	sub	a3,a3,a5
     cf8:	00d416b3          	sll	a3,s0,a3
     cfc:	00d56533          	or	a0,a0,a3
     d00:	00a03533          	snez	a0,a0
     d04:	00a76533          	or	a0,a4,a0
     d08:	00000793          	li	a5,0
     d0c:	ee1ff06f          	j	bec <__adddf3+0x674>
     d10:	ff8007b7          	lui	a5,0xff800
     d14:	fff78793          	addi	a5,a5,-1 # ff7fffff <STACK+0xff7f2fbf>
     d18:	40e90733          	sub	a4,s2,a4
     d1c:	00f477b3          	and	a5,s0,a5
     d20:	bf1ff06f          	j	910 <__adddf3+0x398>
     d24:	00030793          	mv	a5,t1
     d28:	00060513          	mv	a0,a2
     d2c:	ec1ff06f          	j	bec <__adddf3+0x674>
     d30:	00030793          	mv	a5,t1
     d34:	00060513          	mv	a0,a2
     d38:	9e9ff06f          	j	720 <__adddf3+0x1a8>
     d3c:	00000793          	li	a5,0
     d40:	00000513          	li	a0,0
     d44:	7ff00713          	li	a4,2047
     d48:	8c5ff06f          	j	60c <__adddf3+0x94>
     d4c:	00000793          	li	a5,0
     d50:	00088493          	mv	s1,a7
     d54:	8b9ff06f          	j	60c <__adddf3+0x94>
     d58:	00000793          	li	a5,0
     d5c:	00000513          	li	a0,0
     d60:	00000713          	li	a4,0
     d64:	bedff06f          	j	950 <__adddf3+0x3d8>
     d68:	00000513          	li	a0,0
     d6c:	004007b7          	lui	a5,0x400
     d70:	bddff06f          	j	94c <__adddf3+0x3d4>
     d74:	00000793          	li	a5,0
     d78:	00000513          	li	a0,0
     d7c:	8b1ff06f          	j	62c <__adddf3+0xb4>

00000d80 <__eqdf2>:
     d80:	0145d713          	srli	a4,a1,0x14
     d84:	001007b7          	lui	a5,0x100
     d88:	fff78793          	addi	a5,a5,-1 # fffff <STACK+0xf2fbf>
     d8c:	0146d813          	srli	a6,a3,0x14
     d90:	00050313          	mv	t1,a0
     d94:	00050e93          	mv	t4,a0
     d98:	7ff77713          	andi	a4,a4,2047
     d9c:	7ff00513          	li	a0,2047
     da0:	00b7f8b3          	and	a7,a5,a1
     da4:	00060f13          	mv	t5,a2
     da8:	00d7f7b3          	and	a5,a5,a3
     dac:	01f5d593          	srli	a1,a1,0x1f
     db0:	7ff87813          	andi	a6,a6,2047
     db4:	01f6d693          	srli	a3,a3,0x1f
     db8:	00a71c63          	bne	a4,a0,dd0 <__eqdf2+0x50>
     dbc:	0068ee33          	or	t3,a7,t1
     dc0:	00100513          	li	a0,1
     dc4:	000e1463          	bnez	t3,dcc <__eqdf2+0x4c>
     dc8:	00e80663          	beq	a6,a4,dd4 <__eqdf2+0x54>
     dcc:	00008067          	ret
     dd0:	00a81863          	bne	a6,a0,de0 <__eqdf2+0x60>
     dd4:	00c7e633          	or	a2,a5,a2
     dd8:	00100513          	li	a0,1
     ddc:	fe0618e3          	bnez	a2,dcc <__eqdf2+0x4c>
     de0:	00100513          	li	a0,1
     de4:	ff0714e3          	bne	a4,a6,dcc <__eqdf2+0x4c>
     de8:	fef892e3          	bne	a7,a5,dcc <__eqdf2+0x4c>
     dec:	ffee90e3          	bne	t4,t5,dcc <__eqdf2+0x4c>
     df0:	00d58a63          	beq	a1,a3,e04 <__eqdf2+0x84>
     df4:	fc071ce3          	bnez	a4,dcc <__eqdf2+0x4c>
     df8:	0068e533          	or	a0,a7,t1
     dfc:	00a03533          	snez	a0,a0
     e00:	00008067          	ret
     e04:	00000513          	li	a0,0
     e08:	00008067          	ret

00000e0c <__muldf3>:
     e0c:	fd010113          	addi	sp,sp,-48
     e10:	03212023          	sw	s2,32(sp)
     e14:	01512a23          	sw	s5,20(sp)
     e18:	00100937          	lui	s2,0x100
     e1c:	0145da93          	srli	s5,a1,0x14
     e20:	01312e23          	sw	s3,28(sp)
     e24:	01412c23          	sw	s4,24(sp)
     e28:	01612823          	sw	s6,16(sp)
     e2c:	01712623          	sw	s7,12(sp)
     e30:	fff90913          	addi	s2,s2,-1 # fffff <STACK+0xf2fbf>
     e34:	02112623          	sw	ra,44(sp)
     e38:	02812423          	sw	s0,40(sp)
     e3c:	02912223          	sw	s1,36(sp)
     e40:	7ffafa93          	andi	s5,s5,2047
     e44:	00050b13          	mv	s6,a0
     e48:	00060b93          	mv	s7,a2
     e4c:	00068a13          	mv	s4,a3
     e50:	00b97933          	and	s2,s2,a1
     e54:	01f5d993          	srli	s3,a1,0x1f
     e58:	0a0a8663          	beqz	s5,f04 <__muldf3+0xf8>
     e5c:	7ff00793          	li	a5,2047
     e60:	10fa8463          	beq	s5,a5,f68 <__muldf3+0x15c>
     e64:	00800437          	lui	s0,0x800
     e68:	00391913          	slli	s2,s2,0x3
     e6c:	00896933          	or	s2,s2,s0
     e70:	01d55413          	srli	s0,a0,0x1d
     e74:	01246433          	or	s0,s0,s2
     e78:	00351493          	slli	s1,a0,0x3
     e7c:	c01a8a93          	addi	s5,s5,-1023
     e80:	00000b13          	li	s6,0
     e84:	014a5513          	srli	a0,s4,0x14
     e88:	00100937          	lui	s2,0x100
     e8c:	fff90913          	addi	s2,s2,-1 # fffff <STACK+0xf2fbf>
     e90:	7ff57513          	andi	a0,a0,2047
     e94:	01497933          	and	s2,s2,s4
     e98:	000b8713          	mv	a4,s7
     e9c:	01fa5a13          	srli	s4,s4,0x1f
     ea0:	10050263          	beqz	a0,fa4 <__muldf3+0x198>
     ea4:	7ff00793          	li	a5,2047
     ea8:	16f50263          	beq	a0,a5,100c <__muldf3+0x200>
     eac:	008007b7          	lui	a5,0x800
     eb0:	00391913          	slli	s2,s2,0x3
     eb4:	00f96933          	or	s2,s2,a5
     eb8:	01dbd793          	srli	a5,s7,0x1d
     ebc:	0127e7b3          	or	a5,a5,s2
     ec0:	003b9713          	slli	a4,s7,0x3
     ec4:	c0150513          	addi	a0,a0,-1023
     ec8:	00000693          	li	a3,0
     ecc:	002b1593          	slli	a1,s6,0x2
     ed0:	00d5e5b3          	or	a1,a1,a3
     ed4:	00aa8533          	add	a0,s5,a0
     ed8:	fff58593          	addi	a1,a1,-1
     edc:	00e00893          	li	a7,14
     ee0:	0149c633          	xor	a2,s3,s4
     ee4:	00150813          	addi	a6,a0,1
     ee8:	14b8ee63          	bltu	a7,a1,1044 <__muldf3+0x238>
     eec:	0000b537          	lui	a0,0xb
     ef0:	00259593          	slli	a1,a1,0x2
     ef4:	df850513          	addi	a0,a0,-520 # adf8 <val+0x4af8>
     ef8:	00a585b3          	add	a1,a1,a0
     efc:	0005a583          	lw	a1,0(a1)
     f00:	00058067          	jr	a1
     f04:	00a96433          	or	s0,s2,a0
     f08:	06040e63          	beqz	s0,f84 <__muldf3+0x178>
     f0c:	04090063          	beqz	s2,f4c <__muldf3+0x140>
     f10:	00090513          	mv	a0,s2
     f14:	4d0000ef          	jal	ra,13e4 <__clzsi2>
     f18:	ff550793          	addi	a5,a0,-11
     f1c:	01c00713          	li	a4,28
     f20:	02f74c63          	blt	a4,a5,f58 <__muldf3+0x14c>
     f24:	01d00413          	li	s0,29
     f28:	ff850493          	addi	s1,a0,-8
     f2c:	40f40433          	sub	s0,s0,a5
     f30:	00991933          	sll	s2,s2,s1
     f34:	008b5433          	srl	s0,s6,s0
     f38:	01246433          	or	s0,s0,s2
     f3c:	009b14b3          	sll	s1,s6,s1
     f40:	c0d00a93          	li	s5,-1011
     f44:	40aa8ab3          	sub	s5,s5,a0
     f48:	f39ff06f          	j	e80 <__muldf3+0x74>
     f4c:	498000ef          	jal	ra,13e4 <__clzsi2>
     f50:	02050513          	addi	a0,a0,32
     f54:	fc5ff06f          	j	f18 <__muldf3+0x10c>
     f58:	fd850413          	addi	s0,a0,-40
     f5c:	008b1433          	sll	s0,s6,s0
     f60:	00000493          	li	s1,0
     f64:	fddff06f          	j	f40 <__muldf3+0x134>
     f68:	00a96433          	or	s0,s2,a0
     f6c:	02040463          	beqz	s0,f94 <__muldf3+0x188>
     f70:	00050493          	mv	s1,a0
     f74:	00090413          	mv	s0,s2
     f78:	7ff00a93          	li	s5,2047
     f7c:	00300b13          	li	s6,3
     f80:	f05ff06f          	j	e84 <__muldf3+0x78>
     f84:	00000493          	li	s1,0
     f88:	00000a93          	li	s5,0
     f8c:	00100b13          	li	s6,1
     f90:	ef5ff06f          	j	e84 <__muldf3+0x78>
     f94:	00000493          	li	s1,0
     f98:	7ff00a93          	li	s5,2047
     f9c:	00200b13          	li	s6,2
     fa0:	ee5ff06f          	j	e84 <__muldf3+0x78>
     fa4:	017967b3          	or	a5,s2,s7
     fa8:	06078e63          	beqz	a5,1024 <__muldf3+0x218>
     fac:	04090063          	beqz	s2,fec <__muldf3+0x1e0>
     fb0:	00090513          	mv	a0,s2
     fb4:	430000ef          	jal	ra,13e4 <__clzsi2>
     fb8:	ff550693          	addi	a3,a0,-11
     fbc:	01c00793          	li	a5,28
     fc0:	02d7ce63          	blt	a5,a3,ffc <__muldf3+0x1f0>
     fc4:	01d00793          	li	a5,29
     fc8:	ff850713          	addi	a4,a0,-8
     fcc:	40d787b3          	sub	a5,a5,a3
     fd0:	00e91933          	sll	s2,s2,a4
     fd4:	00fbd7b3          	srl	a5,s7,a5
     fd8:	0127e7b3          	or	a5,a5,s2
     fdc:	00eb9733          	sll	a4,s7,a4
     fe0:	c0d00693          	li	a3,-1011
     fe4:	40a68533          	sub	a0,a3,a0
     fe8:	ee1ff06f          	j	ec8 <__muldf3+0xbc>
     fec:	000b8513          	mv	a0,s7
     ff0:	3f4000ef          	jal	ra,13e4 <__clzsi2>
     ff4:	02050513          	addi	a0,a0,32
     ff8:	fc1ff06f          	j	fb8 <__muldf3+0x1ac>
     ffc:	fd850793          	addi	a5,a0,-40
    1000:	00fb97b3          	sll	a5,s7,a5
    1004:	00000713          	li	a4,0
    1008:	fd9ff06f          	j	fe0 <__muldf3+0x1d4>
    100c:	017967b3          	or	a5,s2,s7
    1010:	02078263          	beqz	a5,1034 <__muldf3+0x228>
    1014:	00090793          	mv	a5,s2
    1018:	7ff00513          	li	a0,2047
    101c:	00300693          	li	a3,3
    1020:	eadff06f          	j	ecc <__muldf3+0xc0>
    1024:	00000713          	li	a4,0
    1028:	00000513          	li	a0,0
    102c:	00100693          	li	a3,1
    1030:	e9dff06f          	j	ecc <__muldf3+0xc0>
    1034:	00000713          	li	a4,0
    1038:	7ff00513          	li	a0,2047
    103c:	00200693          	li	a3,2
    1040:	e8dff06f          	j	ecc <__muldf3+0xc0>
    1044:	00010fb7          	lui	t6,0x10
    1048:	ffff8f13          	addi	t5,t6,-1 # ffff <STACK+0x2fbf>
    104c:	0104d693          	srli	a3,s1,0x10
    1050:	01075313          	srli	t1,a4,0x10
    1054:	01e4f4b3          	and	s1,s1,t5
    1058:	01e77733          	and	a4,a4,t5
    105c:	029308b3          	mul	a7,t1,s1
    1060:	029705b3          	mul	a1,a4,s1
    1064:	02e682b3          	mul	t0,a3,a4
    1068:	00588e33          	add	t3,a7,t0
    106c:	0105d893          	srli	a7,a1,0x10
    1070:	01c888b3          	add	a7,a7,t3
    1074:	02668eb3          	mul	t4,a3,t1
    1078:	0058f463          	bleu	t0,a7,1080 <__muldf3+0x274>
    107c:	01fe8eb3          	add	t4,t4,t6
    1080:	0108d913          	srli	s2,a7,0x10
    1084:	01e8f8b3          	and	a7,a7,t5
    1088:	0107df93          	srli	t6,a5,0x10
    108c:	01e5f5b3          	and	a1,a1,t5
    1090:	01e7f3b3          	and	t2,a5,t5
    1094:	01089893          	slli	a7,a7,0x10
    1098:	00b888b3          	add	a7,a7,a1
    109c:	027687b3          	mul	a5,a3,t2
    10a0:	029385b3          	mul	a1,t2,s1
    10a4:	029f84b3          	mul	s1,t6,s1
    10a8:	00f48e33          	add	t3,s1,a5
    10ac:	0105d493          	srli	s1,a1,0x10
    10b0:	01c484b3          	add	s1,s1,t3
    10b4:	03f686b3          	mul	a3,a3,t6
    10b8:	00f4f663          	bleu	a5,s1,10c4 <__muldf3+0x2b8>
    10bc:	000107b7          	lui	a5,0x10
    10c0:	00f686b3          	add	a3,a3,a5
    10c4:	0104df13          	srli	t5,s1,0x10
    10c8:	000109b7          	lui	s3,0x10
    10cc:	00df0f33          	add	t5,t5,a3
    10d0:	fff98693          	addi	a3,s3,-1 # ffff <STACK+0x2fbf>
    10d4:	00d4f4b3          	and	s1,s1,a3
    10d8:	00d5f5b3          	and	a1,a1,a3
    10dc:	01045793          	srli	a5,s0,0x10
    10e0:	01049493          	slli	s1,s1,0x10
    10e4:	00d47433          	and	s0,s0,a3
    10e8:	00b484b3          	add	s1,s1,a1
    10ec:	028706b3          	mul	a3,a4,s0
    10f0:	00990933          	add	s2,s2,s1
    10f4:	02e78e33          	mul	t3,a5,a4
    10f8:	028305b3          	mul	a1,t1,s0
    10fc:	02f30733          	mul	a4,t1,a5
    1100:	01c58333          	add	t1,a1,t3
    1104:	0106d593          	srli	a1,a3,0x10
    1108:	006585b3          	add	a1,a1,t1
    110c:	01c5f463          	bleu	t3,a1,1114 <__muldf3+0x308>
    1110:	01370733          	add	a4,a4,s3
    1114:	0105d313          	srli	t1,a1,0x10
    1118:	000109b7          	lui	s3,0x10
    111c:	00e302b3          	add	t0,t1,a4
    1120:	fff98713          	addi	a4,s3,-1 # ffff <STACK+0x2fbf>
    1124:	00e5f5b3          	and	a1,a1,a4
    1128:	00e6f6b3          	and	a3,a3,a4
    112c:	02838333          	mul	t1,t2,s0
    1130:	01059593          	slli	a1,a1,0x10
    1134:	00d585b3          	add	a1,a1,a3
    1138:	02778733          	mul	a4,a5,t2
    113c:	028f8433          	mul	s0,t6,s0
    1140:	02ff8e33          	mul	t3,t6,a5
    1144:	00e40433          	add	s0,s0,a4
    1148:	01035793          	srli	a5,t1,0x10
    114c:	00878433          	add	s0,a5,s0
    1150:	00e47463          	bleu	a4,s0,1158 <__muldf3+0x34c>
    1154:	013e0e33          	add	t3,t3,s3
    1158:	000107b7          	lui	a5,0x10
    115c:	fff78793          	addi	a5,a5,-1 # ffff <STACK+0x2fbf>
    1160:	00f476b3          	and	a3,s0,a5
    1164:	00f37333          	and	t1,t1,a5
    1168:	01069693          	slli	a3,a3,0x10
    116c:	012e8eb3          	add	t4,t4,s2
    1170:	006686b3          	add	a3,a3,t1
    1174:	009eb4b3          	sltu	s1,t4,s1
    1178:	01e686b3          	add	a3,a3,t5
    117c:	009687b3          	add	a5,a3,s1
    1180:	00be8eb3          	add	t4,t4,a1
    1184:	00beb5b3          	sltu	a1,t4,a1
    1188:	00578333          	add	t1,a5,t0
    118c:	00b30fb3          	add	t6,t1,a1
    1190:	01e6b6b3          	sltu	a3,a3,t5
    1194:	0097b7b3          	sltu	a5,a5,s1
    1198:	00f6e7b3          	or	a5,a3,a5
    119c:	01045413          	srli	s0,s0,0x10
    11a0:	00533333          	sltu	t1,t1,t0
    11a4:	00bfb5b3          	sltu	a1,t6,a1
    11a8:	008787b3          	add	a5,a5,s0
    11ac:	00b365b3          	or	a1,t1,a1
    11b0:	00b787b3          	add	a5,a5,a1
    11b4:	01c787b3          	add	a5,a5,t3
    11b8:	017fd713          	srli	a4,t6,0x17
    11bc:	00979793          	slli	a5,a5,0x9
    11c0:	00e7e7b3          	or	a5,a5,a4
    11c4:	009e9713          	slli	a4,t4,0x9
    11c8:	01176733          	or	a4,a4,a7
    11cc:	00e03733          	snez	a4,a4
    11d0:	017ede93          	srli	t4,t4,0x17
    11d4:	009f9693          	slli	a3,t6,0x9
    11d8:	01d76733          	or	a4,a4,t4
    11dc:	00d76733          	or	a4,a4,a3
    11e0:	00779693          	slli	a3,a5,0x7
    11e4:	1006da63          	bgez	a3,12f8 <__muldf3+0x4ec>
    11e8:	00175693          	srli	a3,a4,0x1
    11ec:	00177713          	andi	a4,a4,1
    11f0:	00e6e733          	or	a4,a3,a4
    11f4:	01f79693          	slli	a3,a5,0x1f
    11f8:	00d76733          	or	a4,a4,a3
    11fc:	0017d793          	srli	a5,a5,0x1
    1200:	3ff80593          	addi	a1,a6,1023
    1204:	0eb05e63          	blez	a1,1300 <__muldf3+0x4f4>
    1208:	00777693          	andi	a3,a4,7
    120c:	02068063          	beqz	a3,122c <__muldf3+0x420>
    1210:	00f77693          	andi	a3,a4,15
    1214:	00400513          	li	a0,4
    1218:	00a68a63          	beq	a3,a0,122c <__muldf3+0x420>
    121c:	00470693          	addi	a3,a4,4
    1220:	00e6b733          	sltu	a4,a3,a4
    1224:	00e787b3          	add	a5,a5,a4
    1228:	00068713          	mv	a4,a3
    122c:	00779693          	slli	a3,a5,0x7
    1230:	0006da63          	bgez	a3,1244 <__muldf3+0x438>
    1234:	ff0006b7          	lui	a3,0xff000
    1238:	fff68693          	addi	a3,a3,-1 # feffffff <STACK+0xfeff2fbf>
    123c:	00d7f7b3          	and	a5,a5,a3
    1240:	40080593          	addi	a1,a6,1024
    1244:	7fe00693          	li	a3,2046
    1248:	16b6ce63          	blt	a3,a1,13c4 <__muldf3+0x5b8>
    124c:	00375693          	srli	a3,a4,0x3
    1250:	01d79713          	slli	a4,a5,0x1d
    1254:	00d76733          	or	a4,a4,a3
    1258:	0037d793          	srli	a5,a5,0x3
    125c:	001006b7          	lui	a3,0x100
    1260:	fff68693          	addi	a3,a3,-1 # fffff <STACK+0xf2fbf>
    1264:	00d7f7b3          	and	a5,a5,a3
    1268:	7ff5f693          	andi	a3,a1,2047
    126c:	801005b7          	lui	a1,0x80100
    1270:	fff58593          	addi	a1,a1,-1 # 800fffff <STACK+0x800f2fbf>
    1274:	01469693          	slli	a3,a3,0x14
    1278:	00b7f7b3          	and	a5,a5,a1
    127c:	02c12083          	lw	ra,44(sp)
    1280:	02812403          	lw	s0,40(sp)
    1284:	01f61613          	slli	a2,a2,0x1f
    1288:	00d7e7b3          	or	a5,a5,a3
    128c:	00c7e6b3          	or	a3,a5,a2
    1290:	02412483          	lw	s1,36(sp)
    1294:	02012903          	lw	s2,32(sp)
    1298:	01c12983          	lw	s3,28(sp)
    129c:	01812a03          	lw	s4,24(sp)
    12a0:	01412a83          	lw	s5,20(sp)
    12a4:	01012b03          	lw	s6,16(sp)
    12a8:	00c12b83          	lw	s7,12(sp)
    12ac:	00070513          	mv	a0,a4
    12b0:	00068593          	mv	a1,a3
    12b4:	03010113          	addi	sp,sp,48
    12b8:	00008067          	ret
    12bc:	00098613          	mv	a2,s3
    12c0:	00040793          	mv	a5,s0
    12c4:	00048713          	mv	a4,s1
    12c8:	000b0693          	mv	a3,s6
    12cc:	00200593          	li	a1,2
    12d0:	0eb68a63          	beq	a3,a1,13c4 <__muldf3+0x5b8>
    12d4:	00300593          	li	a1,3
    12d8:	0cb68c63          	beq	a3,a1,13b0 <__muldf3+0x5a4>
    12dc:	00100593          	li	a1,1
    12e0:	f2b690e3          	bne	a3,a1,1200 <__muldf3+0x3f4>
    12e4:	00000793          	li	a5,0
    12e8:	00000713          	li	a4,0
    12ec:	0880006f          	j	1374 <__muldf3+0x568>
    12f0:	000a0613          	mv	a2,s4
    12f4:	fd9ff06f          	j	12cc <__muldf3+0x4c0>
    12f8:	00050813          	mv	a6,a0
    12fc:	f05ff06f          	j	1200 <__muldf3+0x3f4>
    1300:	00100513          	li	a0,1
    1304:	40b50533          	sub	a0,a0,a1
    1308:	03800693          	li	a3,56
    130c:	fca6cce3          	blt	a3,a0,12e4 <__muldf3+0x4d8>
    1310:	01f00693          	li	a3,31
    1314:	06a6c463          	blt	a3,a0,137c <__muldf3+0x570>
    1318:	41e80813          	addi	a6,a6,1054
    131c:	010796b3          	sll	a3,a5,a6
    1320:	00a755b3          	srl	a1,a4,a0
    1324:	01071733          	sll	a4,a4,a6
    1328:	00b6e6b3          	or	a3,a3,a1
    132c:	00e03733          	snez	a4,a4
    1330:	00e6e733          	or	a4,a3,a4
    1334:	00a7d7b3          	srl	a5,a5,a0
    1338:	00777693          	andi	a3,a4,7
    133c:	02068063          	beqz	a3,135c <__muldf3+0x550>
    1340:	00f77693          	andi	a3,a4,15
    1344:	00400593          	li	a1,4
    1348:	00b68a63          	beq	a3,a1,135c <__muldf3+0x550>
    134c:	00470693          	addi	a3,a4,4
    1350:	00e6b733          	sltu	a4,a3,a4
    1354:	00e787b3          	add	a5,a5,a4
    1358:	00068713          	mv	a4,a3
    135c:	00879693          	slli	a3,a5,0x8
    1360:	0606ca63          	bltz	a3,13d4 <__muldf3+0x5c8>
    1364:	01d79693          	slli	a3,a5,0x1d
    1368:	00375713          	srli	a4,a4,0x3
    136c:	00e6e733          	or	a4,a3,a4
    1370:	0037d793          	srli	a5,a5,0x3
    1374:	00000593          	li	a1,0
    1378:	ee5ff06f          	j	125c <__muldf3+0x450>
    137c:	fe100693          	li	a3,-31
    1380:	40b686b3          	sub	a3,a3,a1
    1384:	02000893          	li	a7,32
    1388:	00d7d6b3          	srl	a3,a5,a3
    138c:	00000593          	li	a1,0
    1390:	01150663          	beq	a0,a7,139c <__muldf3+0x590>
    1394:	43e80813          	addi	a6,a6,1086
    1398:	010795b3          	sll	a1,a5,a6
    139c:	00e5e733          	or	a4,a1,a4
    13a0:	00e03733          	snez	a4,a4
    13a4:	00e6e733          	or	a4,a3,a4
    13a8:	00000793          	li	a5,0
    13ac:	f8dff06f          	j	1338 <__muldf3+0x52c>
    13b0:	000807b7          	lui	a5,0x80
    13b4:	00000713          	li	a4,0
    13b8:	7ff00593          	li	a1,2047
    13bc:	00000613          	li	a2,0
    13c0:	e9dff06f          	j	125c <__muldf3+0x450>
    13c4:	00000793          	li	a5,0
    13c8:	00000713          	li	a4,0
    13cc:	7ff00593          	li	a1,2047
    13d0:	e8dff06f          	j	125c <__muldf3+0x450>
    13d4:	00000793          	li	a5,0
    13d8:	00000713          	li	a4,0
    13dc:	00100593          	li	a1,1
    13e0:	e7dff06f          	j	125c <__muldf3+0x450>

000013e4 <__clzsi2>:
    13e4:	000107b7          	lui	a5,0x10
    13e8:	02f57a63          	bleu	a5,a0,141c <__clzsi2+0x38>
    13ec:	0ff00793          	li	a5,255
    13f0:	00a7b7b3          	sltu	a5,a5,a0
    13f4:	00379793          	slli	a5,a5,0x3
    13f8:	02000713          	li	a4,32
    13fc:	40f70733          	sub	a4,a4,a5
    1400:	00f557b3          	srl	a5,a0,a5
    1404:	0000b537          	lui	a0,0xb
    1408:	e3450513          	addi	a0,a0,-460 # ae34 <__clz_tab>
    140c:	00a787b3          	add	a5,a5,a0
    1410:	0007c503          	lbu	a0,0(a5) # 10000 <STACK+0x2fc0>
    1414:	40a70533          	sub	a0,a4,a0
    1418:	00008067          	ret
    141c:	01000737          	lui	a4,0x1000
    1420:	01000793          	li	a5,16
    1424:	fce56ae3          	bltu	a0,a4,13f8 <__clzsi2+0x14>
    1428:	01800793          	li	a5,24
    142c:	fcdff06f          	j	13f8 <__clzsi2+0x14>

00001430 <main>:
    1430:	81010113          	addi	sp,sp,-2032
    1434:	000017b7          	lui	a5,0x1
    1438:	7e812423          	sw	s0,2024(sp)
    143c:	7e912223          	sw	s1,2020(sp)
    1440:	7f212023          	sw	s2,2016(sp)
    1444:	7d612823          	sw	s6,2000(sp)
    1448:	7e112623          	sw	ra,2028(sp)
    144c:	7d312e23          	sw	s3,2012(sp)
    1450:	7d412c23          	sw	s4,2008(sp)
    1454:	7d512a23          	sw	s5,2004(sp)
    1458:	fffff437          	lui	s0,0xfffff
    145c:	83010113          	addi	sp,sp,-2000
    1460:	fa078793          	addi	a5,a5,-96 # fa0 <__muldf3+0x194>
    1464:	002787b3          	add	a5,a5,sp
    1468:	06040413          	addi	s0,s0,96 # fffff060 <STACK+0xffff2020>
    146c:	00878433          	add	s0,a5,s0
    1470:	00040793          	mv	a5,s0
    1474:	00005597          	auipc	a1,0x5
    1478:	e8c58593          	addi	a1,a1,-372 # 6300 <val>
    147c:	1f400513          	li	a0,500
    1480:	00000717          	auipc	a4,0x0
    1484:	1e870713          	addi	a4,a4,488 # 1668 <ptr>
    1488:	00002697          	auipc	a3,0x2
    148c:	95868693          	addi	a3,a3,-1704 # 2de0 <x>
    1490:	00003617          	auipc	a2,0x3
    1494:	8f060613          	addi	a2,a2,-1808 # 3d80 <idx>
    1498:	bf5fe0ef          	jal	ra,8c <spmv>
    149c:	0000a797          	auipc	a5,0xa
    14a0:	a9c78793          	addi	a5,a5,-1380 # af38 <__clz_tab+0x104>
    14a4:	0007a503          	lw	a0,0(a5)
    14a8:	0047a583          	lw	a1,4(a5)
    14ac:	00001497          	auipc	s1,0x1
    14b0:	99c48493          	addi	s1,s1,-1636 # 1e48 <verify_data+0x8>
    14b4:	00000913          	li	s2,0
    14b8:	1f400b13          	li	s6,500
    14bc:	00042603          	lw	a2,0(s0)
    14c0:	00442683          	lw	a3,4(s0)
    14c4:	00842a03          	lw	s4,8(s0)
    14c8:	00c42a83          	lw	s5,12(s0)
    14cc:	8b5ff0ef          	jal	ra,d80 <__eqdf2>
    14d0:	00153993          	seqz	s3,a0
    14d4:	0044a583          	lw	a1,4(s1)
    14d8:	0004a503          	lw	a0,0(s1)
    14dc:	000a0613          	mv	a2,s4
    14e0:	000a8693          	mv	a3,s5
    14e4:	01048493          	addi	s1,s1,16
    14e8:	899ff0ef          	jal	ra,d80 <__eqdf2>
    14ec:	02050c63          	beqz	a0,1524 <main+0xf4>
    14f0:	00190513          	addi	a0,s2,1
    14f4:	01350533          	add	a0,a0,s3
    14f8:	7d010113          	addi	sp,sp,2000
    14fc:	7ec12083          	lw	ra,2028(sp)
    1500:	7e812403          	lw	s0,2024(sp)
    1504:	7e412483          	lw	s1,2020(sp)
    1508:	7e012903          	lw	s2,2016(sp)
    150c:	7dc12983          	lw	s3,2012(sp)
    1510:	7d812a03          	lw	s4,2008(sp)
    1514:	7d412a83          	lw	s5,2004(sp)
    1518:	7d012b03          	lw	s6,2000(sp)
    151c:	7f010113          	addi	sp,sp,2032
    1520:	00008067          	ret
    1524:	fc0986e3          	beqz	s3,14f0 <main+0xc0>
    1528:	00290913          	addi	s2,s2,2
    152c:	01040413          	addi	s0,s0,16
    1530:	01690863          	beq	s2,s6,1540 <main+0x110>
    1534:	ff84a503          	lw	a0,-8(s1)
    1538:	ffc4a583          	lw	a1,-4(s1)
    153c:	f81ff06f          	j	14bc <main+0x8c>
    1540:	00000513          	li	a0,0
    1544:	fb5ff06f          	j	14f8 <main+0xc8>

00001548 <end>:
    1548:	00000013          	nop
    154c:	00000013          	nop
    1550:	00000013          	nop
    1554:	00000013          	nop
    1558:	00000013          	nop
    155c:	00000013          	nop

00001560 <_last>:
    1560:	fe9ff06f          	j	1548 <end>
