
towers.riscv:     file format elf32-littleriscv


Disassembly of section .text:

00000000 <_start>:
   0:	00000093          	li	ra,0
   4:	00000113          	li	sp,0
   8:	00000193          	li	gp,0
   c:	00000213          	li	tp,0
  10:	00000293          	li	t0,0
  14:	00000313          	li	t1,0
  18:	00000393          	li	t2,0
  1c:	00000413          	li	s0,0
  20:	00000493          	li	s1,0
  24:	00000513          	li	a0,0
  28:	00000593          	li	a1,0
  2c:	00000613          	li	a2,0
  30:	00000693          	li	a3,0
  34:	00000713          	li	a4,0
  38:	00000793          	li	a5,0
  3c:	00000813          	li	a6,0
  40:	00000893          	li	a7,0
  44:	00000913          	li	s2,0
  48:	00000993          	li	s3,0
  4c:	00000a13          	li	s4,0
  50:	00000a93          	li	s5,0
  54:	00000b13          	li	s6,0
  58:	00000b93          	li	s7,0
  5c:	00000c13          	li	s8,0
  60:	00000c93          	li	s9,0
  64:	00000d13          	li	s10,0
  68:	00000d93          	li	s11,0
  6c:	00000e13          	li	t3,0
  70:	00000e93          	li	t4,0
  74:	00000f13          	li	t5,0
  78:	00000f93          	li	t6,0
  7c:	00002117          	auipc	sp,0x2
  80:	99410113          	addi	sp,sp,-1644 # 1a10 <STACK>
  84:	5d8000ef          	jal	ra,65c <main>
  88:	76c0006f          	j	7f4 <end>

0000008c <towers_verify.part.0>:
  8c:	01852603          	lw	a2,24(a0)
  90:	00052783          	lw	a5,0(a0)
  94:	04f61a63          	bne	a2,a5,e8 <towers_verify.part.0+0x5c>
  98:	01c52783          	lw	a5,28(a0)
  9c:	02078463          	beqz	a5,c4 <towers_verify.part.0+0x38>
  a0:	0007a703          	lw	a4,0(a5)
  a4:	00100693          	li	a3,1
  a8:	00d70863          	beq	a4,a3,b8 <towers_verify.part.0+0x2c>
  ac:	0440006f          	j	f0 <towers_verify.part.0+0x64>
  b0:	0007a683          	lw	a3,0(a5)
  b4:	02d71e63          	bne	a4,a3,f0 <towers_verify.part.0+0x64>
  b8:	0047a783          	lw	a5,4(a5)
  bc:	00170713          	addi	a4,a4,1
  c0:	fe0798e3          	bnez	a5,b0 <towers_verify.part.0+0x24>
  c4:	00452503          	lw	a0,4(a0)
  c8:	00100793          	li	a5,1
  cc:	00c79633          	sll	a2,a5,a2
  d0:	fff60613          	addi	a2,a2,-1
  d4:	40c50533          	sub	a0,a0,a2
  d8:	00a03533          	snez	a0,a0
  dc:	40a00533          	neg	a0,a0
  e0:	00657513          	andi	a0,a0,6
  e4:	00008067          	ret
  e8:	00400513          	li	a0,4
  ec:	00008067          	ret
  f0:	00500513          	li	a0,5
  f4:	00008067          	ret

000000f8 <list_getSize>:
  f8:	00052503          	lw	a0,0(a0)
  fc:	00008067          	ret

00000100 <list_init>:
 100:	00052023          	sw	zero,0(a0)
 104:	00052223          	sw	zero,4(a0)
 108:	00008067          	ret

0000010c <list_push>:
 10c:	00002697          	auipc	a3,0x2
 110:	93c68693          	addi	a3,a3,-1732 # 1a48 <g_nodeFreeList>
 114:	0046a783          	lw	a5,4(a3)
 118:	00052703          	lw	a4,0(a0)
 11c:	0047a603          	lw	a2,4(a5)
 120:	00170713          	addi	a4,a4,1
 124:	00c6a223          	sw	a2,4(a3)
 128:	00452683          	lw	a3,4(a0)
 12c:	00d7a223          	sw	a3,4(a5)
 130:	00f52223          	sw	a5,4(a0)
 134:	00b7a023          	sw	a1,0(a5)
 138:	00e52023          	sw	a4,0(a0)
 13c:	00008067          	ret

00000140 <list_pop>:
 140:	00452703          	lw	a4,4(a0)
 144:	00050793          	mv	a5,a0
 148:	00052683          	lw	a3,0(a0)
 14c:	00472583          	lw	a1,4(a4)
 150:	00072503          	lw	a0,0(a4)
 154:	00002617          	auipc	a2,0x2
 158:	8f460613          	addi	a2,a2,-1804 # 1a48 <g_nodeFreeList>
 15c:	00b7a223          	sw	a1,4(a5)
 160:	00462583          	lw	a1,4(a2)
 164:	fff68693          	addi	a3,a3,-1
 168:	00b72223          	sw	a1,4(a4)
 16c:	00e62223          	sw	a4,4(a2)
 170:	00d7a023          	sw	a3,0(a5)
 174:	00008067          	ret

00000178 <list_clear>:
 178:	00052703          	lw	a4,0(a0)
 17c:	02e05a63          	blez	a4,1b0 <list_clear+0x38>
 180:	00002617          	auipc	a2,0x2
 184:	8c860613          	addi	a2,a2,-1848 # 1a48 <g_nodeFreeList>
 188:	00452783          	lw	a5,4(a0)
 18c:	fff70713          	addi	a4,a4,-1
 190:	0047a683          	lw	a3,4(a5)
 194:	00d52223          	sw	a3,4(a0)
 198:	00462683          	lw	a3,4(a2)
 19c:	00d7a223          	sw	a3,4(a5)
 1a0:	00002697          	auipc	a3,0x2
 1a4:	8af6a623          	sw	a5,-1876(a3) # 1a4c <g_nodeFreeList+0x4>
 1a8:	fe0710e3          	bnez	a4,188 <list_clear+0x10>
 1ac:	00052023          	sw	zero,0(a0)
 1b0:	00008067          	ret

000001b4 <towers_init>:
 1b4:	00b52023          	sw	a1,0(a0)
 1b8:	00052223          	sw	zero,4(a0)
 1bc:	00052423          	sw	zero,8(a0)
 1c0:	00052623          	sw	zero,12(a0)
 1c4:	00052823          	sw	zero,16(a0)
 1c8:	00052a23          	sw	zero,20(a0)
 1cc:	00052c23          	sw	zero,24(a0)
 1d0:	00052e23          	sw	zero,28(a0)
 1d4:	04b05463          	blez	a1,21c <towers_init+0x68>
 1d8:	00002797          	auipc	a5,0x2
 1dc:	87078793          	addi	a5,a5,-1936 # 1a48 <g_nodeFreeList>
 1e0:	0047a783          	lw	a5,4(a5)
 1e4:	00058713          	mv	a4,a1
 1e8:	00000693          	li	a3,0
 1ec:	0080006f          	j	1f4 <towers_init+0x40>
 1f0:	00060793          	mv	a5,a2
 1f4:	0047a603          	lw	a2,4(a5)
 1f8:	00e7a023          	sw	a4,0(a5)
 1fc:	00d7a223          	sw	a3,4(a5)
 200:	fff70713          	addi	a4,a4,-1
 204:	00078693          	mv	a3,a5
 208:	fe0714e3          	bnez	a4,1f0 <towers_init+0x3c>
 20c:	00002717          	auipc	a4,0x2
 210:	84c72023          	sw	a2,-1984(a4) # 1a4c <g_nodeFreeList+0x4>
 214:	00f52623          	sw	a5,12(a0)
 218:	00b52423          	sw	a1,8(a0)
 21c:	00008067          	ret

00000220 <towers_clear>:
 220:	00852703          	lw	a4,8(a0)
 224:	04e05063          	blez	a4,264 <towers_clear+0x44>
 228:	00002697          	auipc	a3,0x2
 22c:	82068693          	addi	a3,a3,-2016 # 1a48 <g_nodeFreeList>
 230:	00c52783          	lw	a5,12(a0)
 234:	0046a683          	lw	a3,4(a3)
 238:	0080006f          	j	240 <towers_clear+0x20>
 23c:	00060793          	mv	a5,a2
 240:	0047a603          	lw	a2,4(a5)
 244:	fff70713          	addi	a4,a4,-1
 248:	00d7a223          	sw	a3,4(a5)
 24c:	00078693          	mv	a3,a5
 250:	fe0716e3          	bnez	a4,23c <towers_clear+0x1c>
 254:	00001717          	auipc	a4,0x1
 258:	7ef72c23          	sw	a5,2040(a4) # 1a4c <g_nodeFreeList+0x4>
 25c:	00c52623          	sw	a2,12(a0)
 260:	00052423          	sw	zero,8(a0)
 264:	01052703          	lw	a4,16(a0)
 268:	04e05063          	blez	a4,2a8 <towers_clear+0x88>
 26c:	00001697          	auipc	a3,0x1
 270:	7dc68693          	addi	a3,a3,2012 # 1a48 <g_nodeFreeList>
 274:	01452783          	lw	a5,20(a0)
 278:	0046a683          	lw	a3,4(a3)
 27c:	0080006f          	j	284 <towers_clear+0x64>
 280:	00060793          	mv	a5,a2
 284:	0047a603          	lw	a2,4(a5)
 288:	fff70713          	addi	a4,a4,-1
 28c:	00d7a223          	sw	a3,4(a5)
 290:	00078693          	mv	a3,a5
 294:	fe0716e3          	bnez	a4,280 <towers_clear+0x60>
 298:	00001717          	auipc	a4,0x1
 29c:	7af72a23          	sw	a5,1972(a4) # 1a4c <g_nodeFreeList+0x4>
 2a0:	00c52a23          	sw	a2,20(a0)
 2a4:	00052823          	sw	zero,16(a0)
 2a8:	01852703          	lw	a4,24(a0)
 2ac:	02e05c63          	blez	a4,2e4 <towers_clear+0xc4>
 2b0:	00001697          	auipc	a3,0x1
 2b4:	79868693          	addi	a3,a3,1944 # 1a48 <g_nodeFreeList>
 2b8:	01c52783          	lw	a5,28(a0)
 2bc:	0046a683          	lw	a3,4(a3)
 2c0:	0080006f          	j	2c8 <towers_clear+0xa8>
 2c4:	00060793          	mv	a5,a2
 2c8:	0047a603          	lw	a2,4(a5)
 2cc:	fff70713          	addi	a4,a4,-1
 2d0:	00d7a223          	sw	a3,4(a5)
 2d4:	00078693          	mv	a3,a5
 2d8:	fe0716e3          	bnez	a4,2c4 <towers_clear+0xa4>
 2dc:	00001717          	auipc	a4,0x1
 2e0:	76f72823          	sw	a5,1904(a4) # 1a4c <g_nodeFreeList+0x4>
 2e4:	00052583          	lw	a1,0(a0)
 2e8:	00052223          	sw	zero,4(a0)
 2ec:	00052423          	sw	zero,8(a0)
 2f0:	00052623          	sw	zero,12(a0)
 2f4:	00052823          	sw	zero,16(a0)
 2f8:	00052a23          	sw	zero,20(a0)
 2fc:	00052c23          	sw	zero,24(a0)
 300:	00052e23          	sw	zero,28(a0)
 304:	04b05463          	blez	a1,34c <towers_clear+0x12c>
 308:	00001797          	auipc	a5,0x1
 30c:	74078793          	addi	a5,a5,1856 # 1a48 <g_nodeFreeList>
 310:	0047a783          	lw	a5,4(a5)
 314:	00058713          	mv	a4,a1
 318:	00000693          	li	a3,0
 31c:	0080006f          	j	324 <towers_clear+0x104>
 320:	00060793          	mv	a5,a2
 324:	0047a603          	lw	a2,4(a5)
 328:	00e7a023          	sw	a4,0(a5)
 32c:	00d7a223          	sw	a3,4(a5)
 330:	fff70713          	addi	a4,a4,-1
 334:	00078693          	mv	a3,a5
 338:	fe0714e3          	bnez	a4,320 <towers_clear+0x100>
 33c:	00001717          	auipc	a4,0x1
 340:	70c72823          	sw	a2,1808(a4) # 1a4c <g_nodeFreeList+0x4>
 344:	00f52623          	sw	a5,12(a0)
 348:	00b52423          	sw	a1,8(a0)
 34c:	00008067          	ret

00000350 <towers_solve_h>:
 350:	fe010113          	addi	sp,sp,-32
 354:	00812c23          	sw	s0,24(sp)
 358:	00912a23          	sw	s1,20(sp)
 35c:	01212823          	sw	s2,16(sp)
 360:	01312623          	sw	s3,12(sp)
 364:	01412423          	sw	s4,8(sp)
 368:	00112e23          	sw	ra,28(sp)
 36c:	00100793          	li	a5,1
 370:	00050a13          	mv	s4,a0
 374:	00060913          	mv	s2,a2
 378:	00070993          	mv	s3,a4
 37c:	00058493          	mv	s1,a1
 380:	00068413          	mv	s0,a3
 384:	04f58863          	beq	a1,a5,3d4 <towers_solve_h+0x84>
 388:	fff48493          	addi	s1,s1,-1
 38c:	00048593          	mv	a1,s1
 390:	000a0513          	mv	a0,s4
 394:	00040713          	mv	a4,s0
 398:	00098693          	mv	a3,s3
 39c:	00090613          	mv	a2,s2
 3a0:	fb1ff0ef          	jal	ra,350 <towers_solve_h>
 3a4:	00098713          	mv	a4,s3
 3a8:	00040693          	mv	a3,s0
 3ac:	00090613          	mv	a2,s2
 3b0:	00100593          	li	a1,1
 3b4:	000a0513          	mv	a0,s4
 3b8:	f99ff0ef          	jal	ra,350 <towers_solve_h>
 3bc:	00100793          	li	a5,1
 3c0:	00090713          	mv	a4,s2
 3c4:	00f48a63          	beq	s1,a5,3d8 <towers_solve_h+0x88>
 3c8:	00040913          	mv	s2,s0
 3cc:	00070413          	mv	s0,a4
 3d0:	fb9ff06f          	j	388 <towers_solve_h+0x38>
 3d4:	00060413          	mv	s0,a2
 3d8:	00442783          	lw	a5,4(s0)
 3dc:	00042683          	lw	a3,0(s0)
 3e0:	004a2703          	lw	a4,4(s4)
 3e4:	0047a583          	lw	a1,4(a5)
 3e8:	0007a603          	lw	a2,0(a5)
 3ec:	fff68693          	addi	a3,a3,-1
 3f0:	00b42223          	sw	a1,4(s0)
 3f4:	0049a583          	lw	a1,4(s3)
 3f8:	00d42023          	sw	a3,0(s0)
 3fc:	0009a683          	lw	a3,0(s3)
 400:	00b7a223          	sw	a1,4(a5)
 404:	00f9a223          	sw	a5,4(s3)
 408:	00c7a023          	sw	a2,0(a5)
 40c:	01c12083          	lw	ra,28(sp)
 410:	00168793          	addi	a5,a3,1
 414:	01812403          	lw	s0,24(sp)
 418:	00f9a023          	sw	a5,0(s3)
 41c:	00170793          	addi	a5,a4,1
 420:	00fa2223          	sw	a5,4(s4)
 424:	01412483          	lw	s1,20(sp)
 428:	01012903          	lw	s2,16(sp)
 42c:	00c12983          	lw	s3,12(sp)
 430:	00812a03          	lw	s4,8(sp)
 434:	02010113          	addi	sp,sp,32
 438:	00008067          	ret

0000043c <towers_solve>:
 43c:	00052583          	lw	a1,0(a0)
 440:	01850713          	addi	a4,a0,24
 444:	01050693          	addi	a3,a0,16
 448:	00850613          	addi	a2,a0,8
 44c:	f05ff06f          	j	350 <towers_solve_h>

00000450 <towers_verify>:
 450:	00852703          	lw	a4,8(a0)
 454:	00071c63          	bnez	a4,46c <towers_verify+0x1c>
 458:	01052783          	lw	a5,16(a0)
 45c:	00079463          	bnez	a5,464 <towers_verify+0x14>
 460:	c2dff06f          	j	8c <towers_verify.part.0>
 464:	00300513          	li	a0,3
 468:	00008067          	ret
 46c:	00200513          	li	a0,2
 470:	00008067          	ret

00000474 <setStats>:
 474:	00008067          	ret

00000478 <memcpy>:
 478:	00c5e7b3          	or	a5,a1,a2
 47c:	00f567b3          	or	a5,a0,a5
 480:	0037f793          	andi	a5,a5,3
 484:	00c506b3          	add	a3,a0,a2
 488:	02078463          	beqz	a5,4b0 <memcpy+0x38>
 48c:	00c58633          	add	a2,a1,a2
 490:	00050793          	mv	a5,a0
 494:	02d57e63          	bleu	a3,a0,4d0 <memcpy+0x58>
 498:	00158593          	addi	a1,a1,1
 49c:	fff5c703          	lbu	a4,-1(a1)
 4a0:	00178793          	addi	a5,a5,1
 4a4:	fee78fa3          	sb	a4,-1(a5)
 4a8:	feb618e3          	bne	a2,a1,498 <memcpy+0x20>
 4ac:	00008067          	ret
 4b0:	fed57ee3          	bleu	a3,a0,4ac <memcpy+0x34>
 4b4:	00050793          	mv	a5,a0
 4b8:	00458593          	addi	a1,a1,4
 4bc:	ffc5a703          	lw	a4,-4(a1)
 4c0:	00478793          	addi	a5,a5,4
 4c4:	fee7ae23          	sw	a4,-4(a5)
 4c8:	fed7e8e3          	bltu	a5,a3,4b8 <memcpy+0x40>
 4cc:	00008067          	ret
 4d0:	00008067          	ret

000004d4 <memset>:
 4d4:	00c567b3          	or	a5,a0,a2
 4d8:	0037f793          	andi	a5,a5,3
 4dc:	00c50633          	add	a2,a0,a2
 4e0:	02078063          	beqz	a5,500 <memset+0x2c>
 4e4:	0ff5f593          	andi	a1,a1,255
 4e8:	00050793          	mv	a5,a0
 4ec:	04c57063          	bleu	a2,a0,52c <memset+0x58>
 4f0:	00178793          	addi	a5,a5,1
 4f4:	feb78fa3          	sb	a1,-1(a5)
 4f8:	fef61ce3          	bne	a2,a5,4f0 <memset+0x1c>
 4fc:	00008067          	ret
 500:	0ff5f593          	andi	a1,a1,255
 504:	00859793          	slli	a5,a1,0x8
 508:	00b7e7b3          	or	a5,a5,a1
 50c:	01079593          	slli	a1,a5,0x10
 510:	00f5e5b3          	or	a1,a1,a5
 514:	fec574e3          	bleu	a2,a0,4fc <memset+0x28>
 518:	00050793          	mv	a5,a0
 51c:	00478793          	addi	a5,a5,4
 520:	feb7ae23          	sw	a1,-4(a5)
 524:	fec7ece3          	bltu	a5,a2,51c <memset+0x48>
 528:	00008067          	ret
 52c:	00008067          	ret

00000530 <strlen>:
 530:	00054783          	lbu	a5,0(a0)
 534:	00050713          	mv	a4,a0
 538:	00078c63          	beqz	a5,550 <strlen+0x20>
 53c:	00150513          	addi	a0,a0,1
 540:	00054783          	lbu	a5,0(a0)
 544:	fe079ce3          	bnez	a5,53c <strlen+0xc>
 548:	40e50533          	sub	a0,a0,a4
 54c:	00008067          	ret
 550:	00000513          	li	a0,0
 554:	00008067          	ret

00000558 <strnlen>:
 558:	00050713          	mv	a4,a0
 55c:	02058663          	beqz	a1,588 <strnlen+0x30>
 560:	00054783          	lbu	a5,0(a0)
 564:	02078263          	beqz	a5,588 <strnlen+0x30>
 568:	00b505b3          	add	a1,a0,a1
 56c:	00c0006f          	j	578 <strnlen+0x20>
 570:	00054783          	lbu	a5,0(a0)
 574:	00078663          	beqz	a5,580 <strnlen+0x28>
 578:	00150513          	addi	a0,a0,1
 57c:	feb51ae3          	bne	a0,a1,570 <strnlen+0x18>
 580:	40e50533          	sub	a0,a0,a4
 584:	00008067          	ret
 588:	00000513          	li	a0,0
 58c:	00008067          	ret

00000590 <strcmp>:
 590:	00150513          	addi	a0,a0,1
 594:	fff54783          	lbu	a5,-1(a0)
 598:	00158593          	addi	a1,a1,1
 59c:	fff5c703          	lbu	a4,-1(a1)
 5a0:	00078863          	beqz	a5,5b0 <strcmp+0x20>
 5a4:	fee786e3          	beq	a5,a4,590 <strcmp>
 5a8:	40e78533          	sub	a0,a5,a4
 5ac:	00008067          	ret
 5b0:	00000793          	li	a5,0
 5b4:	ff5ff06f          	j	5a8 <strcmp+0x18>

000005b8 <strcpy>:
 5b8:	00050793          	mv	a5,a0
 5bc:	00158593          	addi	a1,a1,1
 5c0:	fff5c703          	lbu	a4,-1(a1)
 5c4:	00178793          	addi	a5,a5,1
 5c8:	fee78fa3          	sb	a4,-1(a5)
 5cc:	fe0718e3          	bnez	a4,5bc <strcpy+0x4>
 5d0:	00008067          	ret

000005d4 <atol>:
 5d4:	00054783          	lbu	a5,0(a0)
 5d8:	02000713          	li	a4,32
 5dc:	00e79863          	bne	a5,a4,5ec <atol+0x18>
 5e0:	00150513          	addi	a0,a0,1
 5e4:	00054783          	lbu	a5,0(a0)
 5e8:	fee78ce3          	beq	a5,a4,5e0 <atol+0xc>
 5ec:	fd578713          	addi	a4,a5,-43
 5f0:	0fd77713          	andi	a4,a4,253
 5f4:	04070263          	beqz	a4,638 <atol+0x64>
 5f8:	00054683          	lbu	a3,0(a0)
 5fc:	00050793          	mv	a5,a0
 600:	00000613          	li	a2,0
 604:	04068863          	beqz	a3,654 <atol+0x80>
 608:	00000513          	li	a0,0
 60c:	00178793          	addi	a5,a5,1
 610:	fd068593          	addi	a1,a3,-48
 614:	00251713          	slli	a4,a0,0x2
 618:	0007c683          	lbu	a3,0(a5)
 61c:	00a70533          	add	a0,a4,a0
 620:	00151513          	slli	a0,a0,0x1
 624:	00a58533          	add	a0,a1,a0
 628:	fe0692e3          	bnez	a3,60c <atol+0x38>
 62c:	00060463          	beqz	a2,634 <atol+0x60>
 630:	40a00533          	neg	a0,a0
 634:	00008067          	ret
 638:	00154683          	lbu	a3,1(a0)
 63c:	fd378793          	addi	a5,a5,-45
 640:	0017b613          	seqz	a2,a5
 644:	00150793          	addi	a5,a0,1
 648:	fc0690e3          	bnez	a3,608 <atol+0x34>
 64c:	00000513          	li	a0,0
 650:	fddff06f          	j	62c <atol+0x58>
 654:	00000513          	li	a0,0
 658:	00008067          	ret

0000065c <main>:
 65c:	00700713          	li	a4,7
 660:	00001797          	auipc	a5,0x1
 664:	3b078793          	addi	a5,a5,944 # 1a10 <STACK>
 668:	00001697          	auipc	a3,0x1
 66c:	3ef6a223          	sw	a5,996(a3) # 1a4c <g_nodeFreeList+0x4>
 670:	00001697          	auipc	a3,0x1
 674:	3ce6ac23          	sw	a4,984(a3) # 1a48 <g_nodeFreeList>
 678:	00001697          	auipc	a3,0x1
 67c:	3c06a623          	sw	zero,972(a3) # 1a44 <STACK+0x34>
 680:	06300693          	li	a3,99
 684:	00001617          	auipc	a2,0x1
 688:	3ad62e23          	sw	a3,956(a2) # 1a40 <STACK+0x30>
 68c:	00001697          	auipc	a3,0x1
 690:	38c68693          	addi	a3,a3,908 # 1a18 <STACK+0x8>
 694:	00001617          	auipc	a2,0x1
 698:	38d62023          	sw	a3,896(a2) # 1a14 <STACK+0x4>
 69c:	00001697          	auipc	a3,0x1
 6a0:	3606aa23          	sw	zero,884(a3) # 1a10 <STACK>
 6a4:	00001697          	auipc	a3,0x1
 6a8:	37c68693          	addi	a3,a3,892 # 1a20 <STACK+0x10>
 6ac:	00001617          	auipc	a2,0x1
 6b0:	36d62823          	sw	a3,880(a2) # 1a1c <STACK+0xc>
 6b4:	00100693          	li	a3,1
 6b8:	00001617          	auipc	a2,0x1
 6bc:	36d62023          	sw	a3,864(a2) # 1a18 <STACK+0x8>
 6c0:	00001697          	auipc	a3,0x1
 6c4:	36868693          	addi	a3,a3,872 # 1a28 <STACK+0x18>
 6c8:	00001617          	auipc	a2,0x1
 6cc:	34d62e23          	sw	a3,860(a2) # 1a24 <STACK+0x14>
 6d0:	00200693          	li	a3,2
 6d4:	00001617          	auipc	a2,0x1
 6d8:	34d62623          	sw	a3,844(a2) # 1a20 <STACK+0x10>
 6dc:	00001697          	auipc	a3,0x1
 6e0:	35468693          	addi	a3,a3,852 # 1a30 <STACK+0x20>
 6e4:	00001617          	auipc	a2,0x1
 6e8:	34d62423          	sw	a3,840(a2) # 1a2c <STACK+0x1c>
 6ec:	00300693          	li	a3,3
 6f0:	00001617          	auipc	a2,0x1
 6f4:	32d62c23          	sw	a3,824(a2) # 1a28 <STACK+0x18>
 6f8:	00001697          	auipc	a3,0x1
 6fc:	34068693          	addi	a3,a3,832 # 1a38 <STACK+0x28>
 700:	00001617          	auipc	a2,0x1
 704:	32d62a23          	sw	a3,820(a2) # 1a34 <STACK+0x24>
 708:	00400693          	li	a3,4
 70c:	00001617          	auipc	a2,0x1
 710:	32d62223          	sw	a3,804(a2) # 1a30 <STACK+0x20>
 714:	00001697          	auipc	a3,0x1
 718:	32c68693          	addi	a3,a3,812 # 1a40 <STACK+0x30>
 71c:	fd010113          	addi	sp,sp,-48
 720:	00001617          	auipc	a2,0x1
 724:	30d62e23          	sw	a3,796(a2) # 1a3c <STACK+0x2c>
 728:	00500693          	li	a3,5
 72c:	00001617          	auipc	a2,0x1
 730:	30d62623          	sw	a3,780(a2) # 1a38 <STACK+0x28>
 734:	02112623          	sw	ra,44(sp)
 738:	00e12023          	sw	a4,0(sp)
 73c:	00012223          	sw	zero,4(sp)
 740:	00012423          	sw	zero,8(sp)
 744:	00012623          	sw	zero,12(sp)
 748:	00012823          	sw	zero,16(sp)
 74c:	00012a23          	sw	zero,20(sp)
 750:	00012c23          	sw	zero,24(sp)
 754:	00012e23          	sw	zero,28(sp)
 758:	00000693          	li	a3,0
 75c:	0080006f          	j	764 <main+0x108>
 760:	00080793          	mv	a5,a6
 764:	0047a803          	lw	a6,4(a5)
 768:	00e7a023          	sw	a4,0(a5)
 76c:	00d7a223          	sw	a3,4(a5)
 770:	fff70713          	addi	a4,a4,-1
 774:	00078693          	mv	a3,a5
 778:	fe0714e3          	bnez	a4,760 <main+0x104>
 77c:	00700593          	li	a1,7
 780:	01810713          	addi	a4,sp,24
 784:	01010693          	addi	a3,sp,16
 788:	00810613          	addi	a2,sp,8
 78c:	00010513          	mv	a0,sp
 790:	00f12623          	sw	a5,12(sp)
 794:	00700793          	li	a5,7
 798:	00f12423          	sw	a5,8(sp)
 79c:	00001897          	auipc	a7,0x1
 7a0:	2b08a823          	sw	a6,688(a7) # 1a4c <g_nodeFreeList+0x4>
 7a4:	badff0ef          	jal	ra,350 <towers_solve_h>
 7a8:	00010513          	mv	a0,sp
 7ac:	a75ff0ef          	jal	ra,220 <towers_clear>
 7b0:	00012583          	lw	a1,0(sp)
 7b4:	00010513          	mv	a0,sp
 7b8:	01810713          	addi	a4,sp,24
 7bc:	01010693          	addi	a3,sp,16
 7c0:	00810613          	addi	a2,sp,8
 7c4:	b8dff0ef          	jal	ra,350 <towers_solve_h>
 7c8:	00812783          	lw	a5,8(sp)
 7cc:	00200513          	li	a0,2
 7d0:	00079c63          	bnez	a5,7e8 <main+0x18c>
 7d4:	01012783          	lw	a5,16(sp)
 7d8:	00300513          	li	a0,3
 7dc:	00079663          	bnez	a5,7e8 <main+0x18c>
 7e0:	00010513          	mv	a0,sp
 7e4:	8a9ff0ef          	jal	ra,8c <towers_verify.part.0>
 7e8:	02c12083          	lw	ra,44(sp)
 7ec:	03010113          	addi	sp,sp,48
 7f0:	00008067          	ret

000007f4 <end>:
 7f4:	00000013          	nop
 7f8:	00000013          	nop
 7fc:	00000013          	nop
 800:	00000013          	nop
 804:	00000013          	nop
 808:	00000013          	nop

0000080c <_last>:
 80c:	fe9ff06f          	j	7f4 <end>
