
towers-loops-unrolled.riscv:     file format elf64-littleriscv


Disassembly of section .text:

0000000000000000 <_start>:
       0:	00000093          	li	ra,0
       4:	00000113          	li	sp,0
       8:	00000193          	li	gp,0
       c:	00000213          	li	tp,0
      10:	00000293          	li	t0,0
      14:	00000313          	li	t1,0
      18:	00000393          	li	t2,0
      1c:	00000413          	li	s0,0
      20:	00000493          	li	s1,0
      24:	00000513          	li	a0,0
      28:	00000593          	li	a1,0
      2c:	00000613          	li	a2,0
      30:	00000693          	li	a3,0
      34:	00000713          	li	a4,0
      38:	00000793          	li	a5,0
      3c:	00000813          	li	a6,0
      40:	00000893          	li	a7,0
      44:	00000913          	li	s2,0
      48:	00000993          	li	s3,0
      4c:	00000a13          	li	s4,0
      50:	00000a93          	li	s5,0
      54:	00000b13          	li	s6,0
      58:	00000b93          	li	s7,0
      5c:	00000c13          	li	s8,0
      60:	00000c93          	li	s9,0
      64:	00000d13          	li	s10,0
      68:	00000d93          	li	s11,0
      6c:	00000e13          	li	t3,0
      70:	00000e93          	li	t4,0
      74:	00000f13          	li	t5,0
      78:	00000f93          	li	t6,0
      7c:	00004117          	auipc	sp,0x4
      80:	88410113          	addi	sp,sp,-1916 # 3900 <g_nodeFreeList>
      84:	550010ef          	jal	ra,15d4 <main>
      88:	65c0106f          	j	16e4 <end>

000000000000008c <list_getSize>:
      8c:	00052503          	lw	a0,0(a0)
      90:	00008067          	ret

0000000000000094 <list_init>:
      94:	00052023          	sw	zero,0(a0)
      98:	00053423          	sd	zero,8(a0)
      9c:	00008067          	ret

00000000000000a0 <list_push>:
      a0:	00004697          	auipc	a3,0x4
      a4:	86068693          	addi	a3,a3,-1952 # 3900 <g_nodeFreeList>
      a8:	0086b783          	ld	a5,8(a3)
      ac:	00052703          	lw	a4,0(a0)
      b0:	0087b603          	ld	a2,8(a5)
      b4:	0017031b          	addiw	t1,a4,1
      b8:	00c6b423          	sd	a2,8(a3)
      bc:	00853283          	ld	t0,8(a0)
      c0:	0057b423          	sd	t0,8(a5)
      c4:	00f53423          	sd	a5,8(a0)
      c8:	00b7a023          	sw	a1,0(a5)
      cc:	00652023          	sw	t1,0(a0)
      d0:	00008067          	ret

00000000000000d4 <list_pop>:
      d4:	00853703          	ld	a4,8(a0)
      d8:	00050793          	mv	a5,a0
      dc:	00052683          	lw	a3,0(a0)
      e0:	00873583          	ld	a1,8(a4)
      e4:	00072503          	lw	a0,0(a4)
      e8:	00004617          	auipc	a2,0x4
      ec:	81860613          	addi	a2,a2,-2024 # 3900 <g_nodeFreeList>
      f0:	00b7b423          	sd	a1,8(a5)
      f4:	00863303          	ld	t1,8(a2)
      f8:	fff6829b          	addiw	t0,a3,-1
      fc:	00673423          	sd	t1,8(a4)
     100:	00e63423          	sd	a4,8(a2)
     104:	0057a023          	sw	t0,0(a5)
     108:	00008067          	ret

000000000000010c <list_clear>:
     10c:	00052683          	lw	a3,0(a0)
     110:	1ad05e63          	blez	a3,2cc <list_clear+0x1c0>
     114:	0076f793          	andi	a5,a3,7
     118:	00003717          	auipc	a4,0x3
     11c:	7e870713          	addi	a4,a4,2024 # 3900 <g_nodeFreeList>
     120:	0e078063          	beqz	a5,200 <list_clear+0xf4>
     124:	00100613          	li	a2,1
     128:	0ac78c63          	beq	a5,a2,1e0 <list_clear+0xd4>
     12c:	00200293          	li	t0,2
     130:	08578a63          	beq	a5,t0,1c4 <list_clear+0xb8>
     134:	00300313          	li	t1,3
     138:	06678863          	beq	a5,t1,1a8 <list_clear+0x9c>
     13c:	00400393          	li	t2,4
     140:	04778663          	beq	a5,t2,18c <list_clear+0x80>
     144:	00500593          	li	a1,5
     148:	02b78463          	beq	a5,a1,170 <list_clear+0x64>
     14c:	00600813          	li	a6,6
     150:	19079063          	bne	a5,a6,2d0 <list_clear+0x1c4>
     154:	00853f03          	ld	t5,8(a0)
     158:	fff6869b          	addiw	a3,a3,-1
     15c:	008f3f83          	ld	t6,8(t5)
     160:	01f53423          	sd	t6,8(a0)
     164:	00873783          	ld	a5,8(a4)
     168:	00ff3423          	sd	a5,8(t5)
     16c:	01e73423          	sd	t5,8(a4)
     170:	00853283          	ld	t0,8(a0)
     174:	fff6869b          	addiw	a3,a3,-1
     178:	0082b603          	ld	a2,8(t0)
     17c:	00c53423          	sd	a2,8(a0)
     180:	00873303          	ld	t1,8(a4)
     184:	0062b423          	sd	t1,8(t0)
     188:	00573423          	sd	t0,8(a4)
     18c:	00853383          	ld	t2,8(a0)
     190:	fff6869b          	addiw	a3,a3,-1
     194:	0083b583          	ld	a1,8(t2)
     198:	00b53423          	sd	a1,8(a0)
     19c:	00873803          	ld	a6,8(a4)
     1a0:	0103b423          	sd	a6,8(t2)
     1a4:	00773423          	sd	t2,8(a4)
     1a8:	00853883          	ld	a7,8(a0)
     1ac:	fff6869b          	addiw	a3,a3,-1
     1b0:	0088be03          	ld	t3,8(a7)
     1b4:	01c53423          	sd	t3,8(a0)
     1b8:	00873e83          	ld	t4,8(a4)
     1bc:	01d8b423          	sd	t4,8(a7)
     1c0:	01173423          	sd	a7,8(a4)
     1c4:	00853f03          	ld	t5,8(a0)
     1c8:	fff6869b          	addiw	a3,a3,-1
     1cc:	008f3f83          	ld	t6,8(t5)
     1d0:	01f53423          	sd	t6,8(a0)
     1d4:	00873783          	ld	a5,8(a4)
     1d8:	00ff3423          	sd	a5,8(t5)
     1dc:	01e73423          	sd	t5,8(a4)
     1e0:	00853283          	ld	t0,8(a0)
     1e4:	fff6869b          	addiw	a3,a3,-1
     1e8:	0082b603          	ld	a2,8(t0)
     1ec:	00c53423          	sd	a2,8(a0)
     1f0:	00873303          	ld	t1,8(a4)
     1f4:	0062b423          	sd	t1,8(t0)
     1f8:	00573423          	sd	t0,8(a4)
     1fc:	0c068663          	beqz	a3,2c8 <list_clear+0x1bc>
     200:	00853383          	ld	t2,8(a0)
     204:	ff86869b          	addiw	a3,a3,-8
     208:	0083b583          	ld	a1,8(t2)
     20c:	00b53423          	sd	a1,8(a0)
     210:	00873803          	ld	a6,8(a4)
     214:	0103b423          	sd	a6,8(t2)
     218:	00773423          	sd	t2,8(a4)
     21c:	00853883          	ld	a7,8(a0)
     220:	0088be03          	ld	t3,8(a7)
     224:	01c53423          	sd	t3,8(a0)
     228:	00873e83          	ld	t4,8(a4)
     22c:	01d8b423          	sd	t4,8(a7)
     230:	01173423          	sd	a7,8(a4)
     234:	00853f03          	ld	t5,8(a0)
     238:	008f3f83          	ld	t6,8(t5)
     23c:	01f53423          	sd	t6,8(a0)
     240:	00873783          	ld	a5,8(a4)
     244:	00ff3423          	sd	a5,8(t5)
     248:	01e73423          	sd	t5,8(a4)
     24c:	00853283          	ld	t0,8(a0)
     250:	0082b603          	ld	a2,8(t0)
     254:	00c53423          	sd	a2,8(a0)
     258:	00873303          	ld	t1,8(a4)
     25c:	0062b423          	sd	t1,8(t0)
     260:	00573423          	sd	t0,8(a4)
     264:	00853383          	ld	t2,8(a0)
     268:	0083b583          	ld	a1,8(t2)
     26c:	00b53423          	sd	a1,8(a0)
     270:	00873803          	ld	a6,8(a4)
     274:	0103b423          	sd	a6,8(t2)
     278:	00773423          	sd	t2,8(a4)
     27c:	00853883          	ld	a7,8(a0)
     280:	0088be03          	ld	t3,8(a7)
     284:	01c53423          	sd	t3,8(a0)
     288:	00873e83          	ld	t4,8(a4)
     28c:	01d8b423          	sd	t4,8(a7)
     290:	01173423          	sd	a7,8(a4)
     294:	00853f03          	ld	t5,8(a0)
     298:	008f3f83          	ld	t6,8(t5)
     29c:	01f53423          	sd	t6,8(a0)
     2a0:	00873783          	ld	a5,8(a4)
     2a4:	00ff3423          	sd	a5,8(t5)
     2a8:	01e73423          	sd	t5,8(a4)
     2ac:	00853283          	ld	t0,8(a0)
     2b0:	0082b603          	ld	a2,8(t0)
     2b4:	00c53423          	sd	a2,8(a0)
     2b8:	00873303          	ld	t1,8(a4)
     2bc:	0062b423          	sd	t1,8(t0)
     2c0:	00573423          	sd	t0,8(a4)
     2c4:	f2069ee3          	bnez	a3,200 <list_clear+0xf4>
     2c8:	00052023          	sw	zero,0(a0)
     2cc:	00008067          	ret
     2d0:	00853883          	ld	a7,8(a0)
     2d4:	fff6869b          	addiw	a3,a3,-1
     2d8:	0088be03          	ld	t3,8(a7)
     2dc:	01c53423          	sd	t3,8(a0)
     2e0:	00873e83          	ld	t4,8(a4)
     2e4:	01d8b423          	sd	t4,8(a7)
     2e8:	01173423          	sd	a7,8(a4)
     2ec:	e69ff06f          	j	154 <list_clear+0x48>

00000000000002f0 <towers_init>:
     2f0:	00b52023          	sw	a1,0(a0)
     2f4:	00052223          	sw	zero,4(a0)
     2f8:	00052423          	sw	zero,8(a0)
     2fc:	00053823          	sd	zero,16(a0)
     300:	00052c23          	sw	zero,24(a0)
     304:	02053023          	sd	zero,32(a0)
     308:	02052423          	sw	zero,40(a0)
     30c:	02053823          	sd	zero,48(a0)
     310:	18b05263          	blez	a1,494 <towers_init+0x1a4>
     314:	fff5861b          	addiw	a2,a1,-1
     318:	00003297          	auipc	t0,0x3
     31c:	5e828293          	addi	t0,t0,1512 # 3900 <g_nodeFreeList>
     320:	00767313          	andi	t1,a2,7
     324:	0082b783          	ld	a5,8(t0)
     328:	0005871b          	sext.w	a4,a1
     32c:	00000693          	li	a3,0
     330:	12030063          	beqz	t1,450 <towers_init+0x160>
     334:	0087b883          	ld	a7,8(a5)
     338:	00e7a023          	sw	a4,0(a5)
     33c:	0007b423          	sd	zero,8(a5)
     340:	00100813          	li	a6,1
     344:	00078693          	mv	a3,a5
     348:	fff7071b          	addiw	a4,a4,-1
     34c:	00088793          	mv	a5,a7
     350:	11030063          	beq	t1,a6,450 <towers_init+0x160>
     354:	00200393          	li	t2,2
     358:	08730263          	beq	t1,t2,3dc <towers_init+0xec>
     35c:	00300e13          	li	t3,3
     360:	07c30263          	beq	t1,t3,3c4 <towers_init+0xd4>
     364:	00400e93          	li	t4,4
     368:	05d30263          	beq	t1,t4,3ac <towers_init+0xbc>
     36c:	00500f13          	li	t5,5
     370:	03e30263          	beq	t1,t5,394 <towers_init+0xa4>
     374:	00600f93          	li	t6,6
     378:	13f31063          	bne	t1,t6,498 <towers_init+0x1a8>
     37c:	0087b303          	ld	t1,8(a5)
     380:	00e7a023          	sw	a4,0(a5)
     384:	00d7b423          	sd	a3,8(a5)
     388:	fff7071b          	addiw	a4,a4,-1
     38c:	00078693          	mv	a3,a5
     390:	00030793          	mv	a5,t1
     394:	0087b883          	ld	a7,8(a5)
     398:	00e7a023          	sw	a4,0(a5)
     39c:	00d7b423          	sd	a3,8(a5)
     3a0:	fff7071b          	addiw	a4,a4,-1
     3a4:	00078693          	mv	a3,a5
     3a8:	00088793          	mv	a5,a7
     3ac:	0087b803          	ld	a6,8(a5)
     3b0:	00e7a023          	sw	a4,0(a5)
     3b4:	00d7b423          	sd	a3,8(a5)
     3b8:	fff7071b          	addiw	a4,a4,-1
     3bc:	00078693          	mv	a3,a5
     3c0:	00080793          	mv	a5,a6
     3c4:	0087b383          	ld	t2,8(a5)
     3c8:	00e7a023          	sw	a4,0(a5)
     3cc:	00d7b423          	sd	a3,8(a5)
     3d0:	fff7071b          	addiw	a4,a4,-1
     3d4:	00078693          	mv	a3,a5
     3d8:	00038793          	mv	a5,t2
     3dc:	0087be03          	ld	t3,8(a5)
     3e0:	00e7a023          	sw	a4,0(a5)
     3e4:	00d7b423          	sd	a3,8(a5)
     3e8:	fff7071b          	addiw	a4,a4,-1
     3ec:	00078693          	mv	a3,a5
     3f0:	000e0793          	mv	a5,t3
     3f4:	05c0006f          	j	450 <towers_init+0x160>
     3f8:	00863803          	ld	a6,8(a2)
     3fc:	00f63423          	sd	a5,8(a2)
     400:	00762023          	sw	t2,0(a2)
     404:	00883703          	ld	a4,8(a6)
     408:	00c83423          	sd	a2,8(a6)
     40c:	01e82023          	sw	t5,0(a6)
     410:	00873683          	ld	a3,8(a4)
     414:	01073423          	sd	a6,8(a4)
     418:	01d72023          	sw	t4,0(a4)
     41c:	0086b783          	ld	a5,8(a3)
     420:	00e6b423          	sd	a4,8(a3)
     424:	01c6a023          	sw	t3,0(a3)
     428:	0087b603          	ld	a2,8(a5)
     42c:	00d7b423          	sd	a3,8(a5)
     430:	0067a023          	sw	t1,0(a5)
     434:	00863683          	ld	a3,8(a2)
     438:	01162023          	sw	a7,0(a2)
     43c:	00f63423          	sd	a5,8(a2)
     440:	0086b783          	ld	a5,8(a3)
     444:	01f6a023          	sw	t6,0(a3)
     448:	00c6b423          	sd	a2,8(a3)
     44c:	ffff871b          	addiw	a4,t6,-1
     450:	fff7039b          	addiw	t2,a4,-1
     454:	fff38f1b          	addiw	t5,t2,-1
     458:	ffff0e9b          	addiw	t4,t5,-1
     45c:	fffe8e1b          	addiw	t3,t4,-1
     460:	fffe031b          	addiw	t1,t3,-1
     464:	0087b603          	ld	a2,8(a5)
     468:	fff3089b          	addiw	a7,t1,-1
     46c:	00e7a023          	sw	a4,0(a5)
     470:	00d7b423          	sd	a3,8(a5)
     474:	fff88f9b          	addiw	t6,a7,-1
     478:	f80390e3          	bnez	t2,3f8 <towers_init+0x108>
     47c:	00c2b423          	sd	a2,8(t0)
     480:	00d7b423          	sd	a3,8(a5)
     484:	00f53823          	sd	a5,16(a0)
     488:	00100293          	li	t0,1
     48c:	0057a023          	sw	t0,0(a5)
     490:	00b52423          	sw	a1,8(a0)
     494:	00008067          	ret
     498:	0088b603          	ld	a2,8(a7)
     49c:	00e8a023          	sw	a4,0(a7)
     4a0:	00d8b423          	sd	a3,8(a7)
     4a4:	fff7071b          	addiw	a4,a4,-1
     4a8:	00088693          	mv	a3,a7
     4ac:	00060793          	mv	a5,a2
     4b0:	ecdff06f          	j	37c <towers_init+0x8c>

00000000000004b4 <towers_clear>:
     4b4:	00852583          	lw	a1,8(a0)
     4b8:	14b05863          	blez	a1,608 <towers_clear+0x154>
     4bc:	fff5871b          	addiw	a4,a1,-1
     4c0:	00003817          	auipc	a6,0x3
     4c4:	44080813          	addi	a6,a6,1088 # 3900 <g_nodeFreeList>
     4c8:	00777293          	andi	t0,a4,7
     4cc:	01053783          	ld	a5,16(a0)
     4d0:	00883603          	ld	a2,8(a6)
     4d4:	10028a63          	beqz	t0,5e8 <towers_clear+0x134>
     4d8:	0087b683          	ld	a3,8(a5)
     4dc:	00078313          	mv	t1,a5
     4e0:	00c7b423          	sd	a2,8(a5)
     4e4:	00100893          	li	a7,1
     4e8:	fff5859b          	addiw	a1,a1,-1
     4ec:	00068793          	mv	a5,a3
     4f0:	00030613          	mv	a2,t1
     4f4:	0f128a63          	beq	t0,a7,5e8 <towers_clear+0x134>
     4f8:	00200393          	li	t2,2
     4fc:	08728263          	beq	t0,t2,580 <towers_clear+0xcc>
     500:	00300e13          	li	t3,3
     504:	07c28263          	beq	t0,t3,568 <towers_clear+0xb4>
     508:	00400e93          	li	t4,4
     50c:	05d28263          	beq	t0,t4,550 <towers_clear+0x9c>
     510:	00500f13          	li	t5,5
     514:	03e28263          	beq	t0,t5,538 <towers_clear+0x84>
     518:	00600f93          	li	t6,6
     51c:	53f29863          	bne	t0,t6,a4c <towers_clear+0x598>
     520:	0087b283          	ld	t0,8(a5)
     524:	00078693          	mv	a3,a5
     528:	00c7b423          	sd	a2,8(a5)
     52c:	fff5859b          	addiw	a1,a1,-1
     530:	00028793          	mv	a5,t0
     534:	00068613          	mv	a2,a3
     538:	0087b303          	ld	t1,8(a5)
     53c:	00078893          	mv	a7,a5
     540:	00c7b423          	sd	a2,8(a5)
     544:	fff5859b          	addiw	a1,a1,-1
     548:	00030793          	mv	a5,t1
     54c:	00088613          	mv	a2,a7
     550:	0087b383          	ld	t2,8(a5)
     554:	00078e13          	mv	t3,a5
     558:	00c7b423          	sd	a2,8(a5)
     55c:	fff5859b          	addiw	a1,a1,-1
     560:	00038793          	mv	a5,t2
     564:	000e0613          	mv	a2,t3
     568:	0087be83          	ld	t4,8(a5)
     56c:	00078f13          	mv	t5,a5
     570:	00c7b423          	sd	a2,8(a5)
     574:	fff5859b          	addiw	a1,a1,-1
     578:	000e8793          	mv	a5,t4
     57c:	000f0613          	mv	a2,t5
     580:	0087bf83          	ld	t6,8(a5)
     584:	00078713          	mv	a4,a5
     588:	00c7b423          	sd	a2,8(a5)
     58c:	fff5859b          	addiw	a1,a1,-1
     590:	000f8793          	mv	a5,t6
     594:	00070613          	mv	a2,a4
     598:	0087b283          	ld	t0,8(a5)
     59c:	fff5869b          	addiw	a3,a1,-1
     5a0:	00c7b423          	sd	a2,8(a5)
     5a4:	04068a63          	beqz	a3,5f8 <towers_clear+0x144>
     5a8:	0082b603          	ld	a2,8(t0)
     5ac:	00f2b423          	sd	a5,8(t0)
     5b0:	ff96859b          	addiw	a1,a3,-7
     5b4:	00863683          	ld	a3,8(a2)
     5b8:	00563423          	sd	t0,8(a2)
     5bc:	0086b303          	ld	t1,8(a3)
     5c0:	00c6b423          	sd	a2,8(a3)
     5c4:	00833883          	ld	a7,8(t1)
     5c8:	00d33423          	sd	a3,8(t1)
     5cc:	0088be83          	ld	t4,8(a7)
     5d0:	0068b423          	sd	t1,8(a7)
     5d4:	008ebf03          	ld	t5,8(t4)
     5d8:	011eb423          	sd	a7,8(t4)
     5dc:	008f3783          	ld	a5,8(t5)
     5e0:	000f0613          	mv	a2,t5
     5e4:	01df3423          	sd	t4,8(t5)
     5e8:	0087b283          	ld	t0,8(a5)
     5ec:	fff5869b          	addiw	a3,a1,-1
     5f0:	00c7b423          	sd	a2,8(a5)
     5f4:	fa069ae3          	bnez	a3,5a8 <towers_clear+0xf4>
     5f8:	00553823          	sd	t0,16(a0)
     5fc:	00c7b423          	sd	a2,8(a5)
     600:	00f83423          	sd	a5,8(a6)
     604:	00052423          	sw	zero,8(a0)
     608:	01852583          	lw	a1,24(a0)
     60c:	14b05863          	blez	a1,75c <towers_clear+0x2a8>
     610:	fff5831b          	addiw	t1,a1,-1
     614:	00003817          	auipc	a6,0x3
     618:	2ec80813          	addi	a6,a6,748 # 3900 <g_nodeFreeList>
     61c:	00737393          	andi	t2,t1,7
     620:	02053783          	ld	a5,32(a0)
     624:	00883603          	ld	a2,8(a6)
     628:	10038a63          	beqz	t2,73c <towers_clear+0x288>
     62c:	0087be03          	ld	t3,8(a5)
     630:	00078e93          	mv	t4,a5
     634:	00c7b423          	sd	a2,8(a5)
     638:	00100893          	li	a7,1
     63c:	fff5859b          	addiw	a1,a1,-1
     640:	000e0793          	mv	a5,t3
     644:	000e8613          	mv	a2,t4
     648:	0f138a63          	beq	t2,a7,73c <towers_clear+0x288>
     64c:	00200f13          	li	t5,2
     650:	09e38263          	beq	t2,t5,6d4 <towers_clear+0x220>
     654:	00300f93          	li	t6,3
     658:	07f38263          	beq	t2,t6,6bc <towers_clear+0x208>
     65c:	00400713          	li	a4,4
     660:	04e38263          	beq	t2,a4,6a4 <towers_clear+0x1f0>
     664:	00500293          	li	t0,5
     668:	02538263          	beq	t2,t0,68c <towers_clear+0x1d8>
     66c:	00600693          	li	a3,6
     670:	3ed39a63          	bne	t2,a3,a64 <towers_clear+0x5b0>
     674:	0087b383          	ld	t2,8(a5)
     678:	00078e13          	mv	t3,a5
     67c:	00c7b423          	sd	a2,8(a5)
     680:	fff5859b          	addiw	a1,a1,-1
     684:	00038793          	mv	a5,t2
     688:	000e0613          	mv	a2,t3
     68c:	0087be83          	ld	t4,8(a5)
     690:	00078893          	mv	a7,a5
     694:	00c7b423          	sd	a2,8(a5)
     698:	fff5859b          	addiw	a1,a1,-1
     69c:	000e8793          	mv	a5,t4
     6a0:	00088613          	mv	a2,a7
     6a4:	0087bf03          	ld	t5,8(a5)
     6a8:	00078f93          	mv	t6,a5
     6ac:	00c7b423          	sd	a2,8(a5)
     6b0:	fff5859b          	addiw	a1,a1,-1
     6b4:	000f0793          	mv	a5,t5
     6b8:	000f8613          	mv	a2,t6
     6bc:	0087b283          	ld	t0,8(a5)
     6c0:	00078713          	mv	a4,a5
     6c4:	00c7b423          	sd	a2,8(a5)
     6c8:	fff5859b          	addiw	a1,a1,-1
     6cc:	00028793          	mv	a5,t0
     6d0:	00070613          	mv	a2,a4
     6d4:	0087b683          	ld	a3,8(a5)
     6d8:	00078313          	mv	t1,a5
     6dc:	00c7b423          	sd	a2,8(a5)
     6e0:	fff5859b          	addiw	a1,a1,-1
     6e4:	00068793          	mv	a5,a3
     6e8:	00030613          	mv	a2,t1
     6ec:	0087b383          	ld	t2,8(a5)
     6f0:	fff58e1b          	addiw	t3,a1,-1
     6f4:	00c7b423          	sd	a2,8(a5)
     6f8:	040e0a63          	beqz	t3,74c <towers_clear+0x298>
     6fc:	0083bf83          	ld	t6,8(t2)
     700:	00f3b423          	sd	a5,8(t2)
     704:	ff9e059b          	addiw	a1,t3,-7
     708:	008fb283          	ld	t0,8(t6)
     70c:	007fb423          	sd	t2,8(t6)
     710:	0082b383          	ld	t2,8(t0)
     714:	01f2b423          	sd	t6,8(t0)
     718:	0083b783          	ld	a5,8(t2)
     71c:	0053b423          	sd	t0,8(t2)
     720:	0087be03          	ld	t3,8(a5)
     724:	0077b423          	sd	t2,8(a5)
     728:	008e3703          	ld	a4,8(t3)
     72c:	00fe3423          	sd	a5,8(t3)
     730:	00873783          	ld	a5,8(a4)
     734:	00070613          	mv	a2,a4
     738:	01c73423          	sd	t3,8(a4)
     73c:	0087b383          	ld	t2,8(a5)
     740:	fff58e1b          	addiw	t3,a1,-1
     744:	00c7b423          	sd	a2,8(a5)
     748:	fa0e1ae3          	bnez	t3,6fc <towers_clear+0x248>
     74c:	02753023          	sd	t2,32(a0)
     750:	00c7b423          	sd	a2,8(a5)
     754:	00f83423          	sd	a5,8(a6)
     758:	00052c23          	sw	zero,24(a0)
     75c:	02852583          	lw	a1,40(a0)
     760:	14b05263          	blez	a1,8a4 <towers_clear+0x3f0>
     764:	fff58e9b          	addiw	t4,a1,-1
     768:	00003817          	auipc	a6,0x3
     76c:	19880813          	addi	a6,a6,408 # 3900 <g_nodeFreeList>
     770:	007eff13          	andi	t5,t4,7
     774:	03053783          	ld	a5,48(a0)
     778:	00883603          	ld	a2,8(a6)
     77c:	100f0a63          	beqz	t5,890 <towers_clear+0x3dc>
     780:	0087bf83          	ld	t6,8(a5)
     784:	00078293          	mv	t0,a5
     788:	00c7b423          	sd	a2,8(a5)
     78c:	00100893          	li	a7,1
     790:	fff5859b          	addiw	a1,a1,-1
     794:	000f8793          	mv	a5,t6
     798:	00028613          	mv	a2,t0
     79c:	0f1f0a63          	beq	t5,a7,890 <towers_clear+0x3dc>
     7a0:	00200713          	li	a4,2
     7a4:	08ef0263          	beq	t5,a4,828 <towers_clear+0x374>
     7a8:	00300693          	li	a3,3
     7ac:	06df0263          	beq	t5,a3,810 <towers_clear+0x35c>
     7b0:	00400313          	li	t1,4
     7b4:	046f0263          	beq	t5,t1,7f8 <towers_clear+0x344>
     7b8:	00500393          	li	t2,5
     7bc:	027f0263          	beq	t5,t2,7e0 <towers_clear+0x32c>
     7c0:	00600e13          	li	t3,6
     7c4:	2bcf1c63          	bne	t5,t3,a7c <towers_clear+0x5c8>
     7c8:	0087bf03          	ld	t5,8(a5)
     7cc:	00078f93          	mv	t6,a5
     7d0:	00c7b423          	sd	a2,8(a5)
     7d4:	fff5859b          	addiw	a1,a1,-1
     7d8:	000f0793          	mv	a5,t5
     7dc:	000f8613          	mv	a2,t6
     7e0:	0087b283          	ld	t0,8(a5)
     7e4:	00078893          	mv	a7,a5
     7e8:	00c7b423          	sd	a2,8(a5)
     7ec:	fff5859b          	addiw	a1,a1,-1
     7f0:	00028793          	mv	a5,t0
     7f4:	00088613          	mv	a2,a7
     7f8:	0087b683          	ld	a3,8(a5)
     7fc:	00078713          	mv	a4,a5
     800:	00c7b423          	sd	a2,8(a5)
     804:	fff5859b          	addiw	a1,a1,-1
     808:	00068793          	mv	a5,a3
     80c:	00070613          	mv	a2,a4
     810:	0087b303          	ld	t1,8(a5)
     814:	00078393          	mv	t2,a5
     818:	00c7b423          	sd	a2,8(a5)
     81c:	fff5859b          	addiw	a1,a1,-1
     820:	00030793          	mv	a5,t1
     824:	00038613          	mv	a2,t2
     828:	0087be03          	ld	t3,8(a5)
     82c:	00078e93          	mv	t4,a5
     830:	00c7b423          	sd	a2,8(a5)
     834:	fff5859b          	addiw	a1,a1,-1
     838:	000e0793          	mv	a5,t3
     83c:	000e8613          	mv	a2,t4
     840:	0087bf03          	ld	t5,8(a5)
     844:	fff58f9b          	addiw	t6,a1,-1
     848:	00c7b423          	sd	a2,8(a5)
     84c:	040f8a63          	beqz	t6,8a0 <towers_clear+0x3ec>
     850:	008f3e03          	ld	t3,8(t5)
     854:	00ff3423          	sd	a5,8(t5)
     858:	ff9f859b          	addiw	a1,t6,-7
     85c:	008e3683          	ld	a3,8(t3)
     860:	01ee3423          	sd	t5,8(t3)
     864:	0086b303          	ld	t1,8(a3)
     868:	01c6b423          	sd	t3,8(a3)
     86c:	00833883          	ld	a7,8(t1)
     870:	00d33423          	sd	a3,8(t1)
     874:	0088be83          	ld	t4,8(a7)
     878:	0068b423          	sd	t1,8(a7)
     87c:	008ebf03          	ld	t5,8(t4)
     880:	011eb423          	sd	a7,8(t4)
     884:	008f3783          	ld	a5,8(t5)
     888:	000f0613          	mv	a2,t5
     88c:	01df3423          	sd	t4,8(t5)
     890:	0087bf03          	ld	t5,8(a5)
     894:	fff58f9b          	addiw	t6,a1,-1
     898:	00c7b423          	sd	a2,8(a5)
     89c:	fa0f9ae3          	bnez	t6,850 <towers_clear+0x39c>
     8a0:	00f83423          	sd	a5,8(a6)
     8a4:	00052f03          	lw	t5,0(a0)
     8a8:	00052223          	sw	zero,4(a0)
     8ac:	00052423          	sw	zero,8(a0)
     8b0:	00053823          	sd	zero,16(a0)
     8b4:	00052c23          	sw	zero,24(a0)
     8b8:	02053023          	sd	zero,32(a0)
     8bc:	02052423          	sw	zero,40(a0)
     8c0:	02053823          	sd	zero,48(a0)
     8c4:	19e05263          	blez	t5,a48 <towers_clear+0x594>
     8c8:	ffff081b          	addiw	a6,t5,-1
     8cc:	00003f97          	auipc	t6,0x3
     8d0:	034f8f93          	addi	t6,t6,52 # 3900 <g_nodeFreeList>
     8d4:	00787293          	andi	t0,a6,7
     8d8:	008fb783          	ld	a5,8(t6)
     8dc:	000f071b          	sext.w	a4,t5
     8e0:	00000613          	li	a2,0
     8e4:	12028063          	beqz	t0,a04 <towers_clear+0x550>
     8e8:	0087b883          	ld	a7,8(a5)
     8ec:	00e7a023          	sw	a4,0(a5)
     8f0:	0007b423          	sd	zero,8(a5)
     8f4:	00100693          	li	a3,1
     8f8:	00078613          	mv	a2,a5
     8fc:	fff7071b          	addiw	a4,a4,-1
     900:	00088793          	mv	a5,a7
     904:	10d28063          	beq	t0,a3,a04 <towers_clear+0x550>
     908:	00200313          	li	t1,2
     90c:	08628263          	beq	t0,t1,990 <towers_clear+0x4dc>
     910:	00300393          	li	t2,3
     914:	06728263          	beq	t0,t2,978 <towers_clear+0x4c4>
     918:	00400e13          	li	t3,4
     91c:	05c28263          	beq	t0,t3,960 <towers_clear+0x4ac>
     920:	00500e93          	li	t4,5
     924:	03d28263          	beq	t0,t4,948 <towers_clear+0x494>
     928:	00600593          	li	a1,6
     92c:	16b29463          	bne	t0,a1,a94 <towers_clear+0x5e0>
     930:	0087b283          	ld	t0,8(a5)
     934:	00e7a023          	sw	a4,0(a5)
     938:	00c7b423          	sd	a2,8(a5)
     93c:	fff7071b          	addiw	a4,a4,-1
     940:	00078613          	mv	a2,a5
     944:	00028793          	mv	a5,t0
     948:	0087b883          	ld	a7,8(a5)
     94c:	00e7a023          	sw	a4,0(a5)
     950:	00c7b423          	sd	a2,8(a5)
     954:	fff7071b          	addiw	a4,a4,-1
     958:	00078613          	mv	a2,a5
     95c:	00088793          	mv	a5,a7
     960:	0087b683          	ld	a3,8(a5)
     964:	00e7a023          	sw	a4,0(a5)
     968:	00c7b423          	sd	a2,8(a5)
     96c:	fff7071b          	addiw	a4,a4,-1
     970:	00078613          	mv	a2,a5
     974:	00068793          	mv	a5,a3
     978:	0087b303          	ld	t1,8(a5)
     97c:	00e7a023          	sw	a4,0(a5)
     980:	00c7b423          	sd	a2,8(a5)
     984:	fff7071b          	addiw	a4,a4,-1
     988:	00078613          	mv	a2,a5
     98c:	00030793          	mv	a5,t1
     990:	0087b383          	ld	t2,8(a5)
     994:	00e7a023          	sw	a4,0(a5)
     998:	00c7b423          	sd	a2,8(a5)
     99c:	fff7071b          	addiw	a4,a4,-1
     9a0:	00078613          	mv	a2,a5
     9a4:	00038793          	mv	a5,t2
     9a8:	05c0006f          	j	a04 <towers_clear+0x550>
     9ac:	0082b383          	ld	t2,8(t0)
     9b0:	00f2b423          	sd	a5,8(t0)
     9b4:	00d2a023          	sw	a3,0(t0)
     9b8:	0083b703          	ld	a4,8(t2)
     9bc:	0053b423          	sd	t0,8(t2)
     9c0:	01c3a023          	sw	t3,0(t2)
     9c4:	00873603          	ld	a2,8(a4)
     9c8:	00773423          	sd	t2,8(a4)
     9cc:	00672023          	sw	t1,0(a4)
     9d0:	00863783          	ld	a5,8(a2)
     9d4:	00e63423          	sd	a4,8(a2)
     9d8:	01162023          	sw	a7,0(a2)
     9dc:	0087b283          	ld	t0,8(a5)
     9e0:	00c7b423          	sd	a2,8(a5)
     9e4:	0107a023          	sw	a6,0(a5)
     9e8:	0082b603          	ld	a2,8(t0)
     9ec:	00b2a023          	sw	a1,0(t0)
     9f0:	00f2b423          	sd	a5,8(t0)
     9f4:	00863783          	ld	a5,8(a2)
     9f8:	01d62023          	sw	t4,0(a2)
     9fc:	00563423          	sd	t0,8(a2)
     a00:	fffe871b          	addiw	a4,t4,-1
     a04:	fff7069b          	addiw	a3,a4,-1
     a08:	fff68e1b          	addiw	t3,a3,-1
     a0c:	fffe031b          	addiw	t1,t3,-1
     a10:	fff3089b          	addiw	a7,t1,-1
     a14:	fff8881b          	addiw	a6,a7,-1
     a18:	0087b283          	ld	t0,8(a5)
     a1c:	fff8059b          	addiw	a1,a6,-1
     a20:	00e7a023          	sw	a4,0(a5)
     a24:	00c7b423          	sd	a2,8(a5)
     a28:	fff58e9b          	addiw	t4,a1,-1
     a2c:	f80690e3          	bnez	a3,9ac <towers_clear+0x4f8>
     a30:	005fb423          	sd	t0,8(t6)
     a34:	00c7b423          	sd	a2,8(a5)
     a38:	00f53823          	sd	a5,16(a0)
     a3c:	00100f93          	li	t6,1
     a40:	01f7a023          	sw	t6,0(a5)
     a44:	01e52423          	sw	t5,8(a0)
     a48:	00008067          	ret
     a4c:	0086b703          	ld	a4,8(a3)
     a50:	fff5859b          	addiw	a1,a1,-1
     a54:	0067b423          	sd	t1,8(a5)
     a58:	00068613          	mv	a2,a3
     a5c:	00070793          	mv	a5,a4
     a60:	ac1ff06f          	j	520 <towers_clear+0x6c>
     a64:	008e3303          	ld	t1,8(t3)
     a68:	fff5859b          	addiw	a1,a1,-1
     a6c:	01d7b423          	sd	t4,8(a5)
     a70:	000e0613          	mv	a2,t3
     a74:	00030793          	mv	a5,t1
     a78:	bfdff06f          	j	674 <towers_clear+0x1c0>
     a7c:	008fbe83          	ld	t4,8(t6)
     a80:	fff5859b          	addiw	a1,a1,-1
     a84:	0057b423          	sd	t0,8(a5)
     a88:	000f8613          	mv	a2,t6
     a8c:	000e8793          	mv	a5,t4
     a90:	d39ff06f          	j	7c8 <towers_clear+0x314>
     a94:	0088b803          	ld	a6,8(a7)
     a98:	00e8a023          	sw	a4,0(a7)
     a9c:	00c8b423          	sd	a2,8(a7)
     aa0:	fff7071b          	addiw	a4,a4,-1
     aa4:	00088613          	mv	a2,a7
     aa8:	00080793          	mv	a5,a6
     aac:	e85ff06f          	j	930 <towers_clear+0x47c>

0000000000000ab0 <towers_solve_h>:
     ab0:	f5010113          	addi	sp,sp,-176
     ab4:	08913c23          	sd	s1,152(sp)
     ab8:	09313423          	sd	s3,136(sp)
     abc:	09413023          	sd	s4,128(sp)
     ac0:	07713423          	sd	s7,104(sp)
     ac4:	0a113423          	sd	ra,168(sp)
     ac8:	0a813023          	sd	s0,160(sp)
     acc:	09213823          	sd	s2,144(sp)
     ad0:	07513c23          	sd	s5,120(sp)
     ad4:	07613823          	sd	s6,112(sp)
     ad8:	07813023          	sd	s8,96(sp)
     adc:	05913c23          	sd	s9,88(sp)
     ae0:	05a13823          	sd	s10,80(sp)
     ae4:	05b13423          	sd	s11,72(sp)
     ae8:	02b13423          	sd	a1,40(sp)
     aec:	00100793          	li	a5,1
     af0:	02c13823          	sd	a2,48(sp)
     af4:	02e13c23          	sd	a4,56(sp)
     af8:	00050493          	mv	s1,a0
     afc:	00003997          	auipc	s3,0x3
     b00:	e0498993          	addi	s3,s3,-508 # 3900 <g_nodeFreeList>
     b04:	00068b93          	mv	s7,a3
     b08:	00100a13          	li	s4,1
     b0c:	40f58463          	beq	a1,a5,f14 <towers_solve_h+0x464>
     b10:	02813083          	ld	ra,40(sp)
     b14:	fff0829b          	addiw	t0,ra,-1
     b18:	02513423          	sd	t0,40(sp)
     b1c:	35428663          	beq	t0,s4,e68 <towers_solve_h+0x3b8>
     b20:	03013303          	ld	t1,48(sp)
     b24:	02813383          	ld	t2,40(sp)
     b28:	03813d83          	ld	s11,56(sp)
     b2c:	02613023          	sd	t1,32(sp)
     b30:	00713c23          	sd	t2,24(sp)
     b34:	01813403          	ld	s0,24(sp)
     b38:	fff4051b          	addiw	a0,s0,-1
     b3c:	00a13c23          	sd	a0,24(sp)
     b40:	29450063          	beq	a0,s4,dc0 <towers_solve_h+0x310>
     b44:	02013d03          	ld	s10,32(sp)
     b48:	01813c83          	ld	s9,24(sp)
     b4c:	000b8413          	mv	s0,s7
     b50:	fffc8c9b          	addiw	s9,s9,-1
     b54:	1d4c8463          	beq	s9,s4,d1c <towers_solve_h+0x26c>
     b58:	ffec8a9b          	addiw	s5,s9,-2
     b5c:	003afa93          	andi	s5,s5,3
     b60:	000d8c13          	mv	s8,s11
     b64:	000d0913          	mv	s2,s10
     b68:	000c8b13          	mv	s6,s9
     b6c:	0c0a8663          	beqz	s5,c38 <towers_solve_h+0x188>
     b70:	fffc8b1b          	addiw	s6,s9,-1
     b74:	000b0593          	mv	a1,s6
     b78:	00048513          	mv	a0,s1
     b7c:	000d8713          	mv	a4,s11
     b80:	00040693          	mv	a3,s0
     b84:	000d0613          	mv	a2,s10
     b88:	f29ff0ef          	jal	ra,ab0 <towers_solve_h>
     b8c:	00040713          	mv	a4,s0
     b90:	000d8693          	mv	a3,s11
     b94:	000d0613          	mv	a2,s10
     b98:	00100593          	li	a1,1
     b9c:	00048513          	mv	a0,s1
     ba0:	f11ff0ef          	jal	ra,ab0 <towers_solve_h>
     ba4:	00100713          	li	a4,1
     ba8:	000d8913          	mv	s2,s11
     bac:	000d0c13          	mv	s8,s10
     bb0:	08ea8463          	beq	s5,a4,c38 <towers_solve_h+0x188>
     bb4:	00200593          	li	a1,2
     bb8:	04ba8063          	beq	s5,a1,bf8 <towers_solve_h+0x148>
     bbc:	fffb0b1b          	addiw	s6,s6,-1
     bc0:	000b0593          	mv	a1,s6
     bc4:	00048513          	mv	a0,s1
     bc8:	000d0713          	mv	a4,s10
     bcc:	00040693          	mv	a3,s0
     bd0:	000d8613          	mv	a2,s11
     bd4:	eddff0ef          	jal	ra,ab0 <towers_solve_h>
     bd8:	00040713          	mv	a4,s0
     bdc:	000d0693          	mv	a3,s10
     be0:	000d8613          	mv	a2,s11
     be4:	00100593          	li	a1,1
     be8:	00048513          	mv	a0,s1
     bec:	ec5ff0ef          	jal	ra,ab0 <towers_solve_h>
     bf0:	000d0913          	mv	s2,s10
     bf4:	000d8c13          	mv	s8,s11
     bf8:	fffb0b1b          	addiw	s6,s6,-1
     bfc:	000c0713          	mv	a4,s8
     c00:	00090613          	mv	a2,s2
     c04:	000b0593          	mv	a1,s6
     c08:	00048513          	mv	a0,s1
     c0c:	00040693          	mv	a3,s0
     c10:	ea1ff0ef          	jal	ra,ab0 <towers_solve_h>
     c14:	00090613          	mv	a2,s2
     c18:	000c0693          	mv	a3,s8
     c1c:	00040713          	mv	a4,s0
     c20:	00100593          	li	a1,1
     c24:	00048513          	mv	a0,s1
     c28:	e89ff0ef          	jal	ra,ab0 <towers_solve_h>
     c2c:	00090613          	mv	a2,s2
     c30:	000c0913          	mv	s2,s8
     c34:	00060c13          	mv	s8,a2
     c38:	fffb0e9b          	addiw	t4,s6,-1
     c3c:	fffe8f1b          	addiw	t5,t4,-1
     c40:	000e8593          	mv	a1,t4
     c44:	00048513          	mv	a0,s1
     c48:	000c0713          	mv	a4,s8
     c4c:	00040693          	mv	a3,s0
     c50:	00090613          	mv	a2,s2
     c54:	ffff0a9b          	addiw	s5,t5,-1
     c58:	01e13823          	sd	t5,16(sp)
     c5c:	01d13423          	sd	t4,8(sp)
     c60:	e51ff0ef          	jal	ra,ab0 <towers_solve_h>
     c64:	00040713          	mv	a4,s0
     c68:	000c0693          	mv	a3,s8
     c6c:	00090613          	mv	a2,s2
     c70:	00048513          	mv	a0,s1
     c74:	00100593          	li	a1,1
     c78:	e39ff0ef          	jal	ra,ab0 <towers_solve_h>
     c7c:	00813803          	ld	a6,8(sp)
     c80:	01013583          	ld	a1,16(sp)
     c84:	fffa8b1b          	addiw	s6,s5,-1
     c88:	00048513          	mv	a0,s1
     c8c:	00090713          	mv	a4,s2
     c90:	00040693          	mv	a3,s0
     c94:	000c0613          	mv	a2,s8
     c98:	09480463          	beq	a6,s4,d20 <towers_solve_h+0x270>
     c9c:	e15ff0ef          	jal	ra,ab0 <towers_solve_h>
     ca0:	00040713          	mv	a4,s0
     ca4:	00090693          	mv	a3,s2
     ca8:	000c0613          	mv	a2,s8
     cac:	00048513          	mv	a0,s1
     cb0:	00100593          	li	a1,1
     cb4:	dfdff0ef          	jal	ra,ab0 <towers_solve_h>
     cb8:	000a8593          	mv	a1,s5
     cbc:	00048513          	mv	a0,s1
     cc0:	000c0713          	mv	a4,s8
     cc4:	00040693          	mv	a3,s0
     cc8:	00090613          	mv	a2,s2
     ccc:	de5ff0ef          	jal	ra,ab0 <towers_solve_h>
     cd0:	00040713          	mv	a4,s0
     cd4:	000c0693          	mv	a3,s8
     cd8:	00090613          	mv	a2,s2
     cdc:	00048513          	mv	a0,s1
     ce0:	00100593          	li	a1,1
     ce4:	dcdff0ef          	jal	ra,ab0 <towers_solve_h>
     ce8:	000b0593          	mv	a1,s6
     cec:	00048513          	mv	a0,s1
     cf0:	00090713          	mv	a4,s2
     cf4:	00040693          	mv	a3,s0
     cf8:	000c0613          	mv	a2,s8
     cfc:	db5ff0ef          	jal	ra,ab0 <towers_solve_h>
     d00:	00040713          	mv	a4,s0
     d04:	00090693          	mv	a3,s2
     d08:	000c0613          	mv	a2,s8
     d0c:	00100593          	li	a1,1
     d10:	00048513          	mv	a0,s1
     d14:	d9dff0ef          	jal	ra,ab0 <towers_solve_h>
     d18:	f21ff06f          	j	c38 <towers_solve_h+0x188>
     d1c:	000d0c13          	mv	s8,s10
     d20:	008c3883          	ld	a7,8(s8)
     d24:	000c2e03          	lw	t3,0(s8)
     d28:	0044a683          	lw	a3,4(s1)
     d2c:	0088bf83          	ld	t6,8(a7)
     d30:	0008a083          	lw	ra,0(a7)
     d34:	fffe079b          	addiw	a5,t3,-1
     d38:	01fc3423          	sd	t6,8(s8)
     d3c:	0089b283          	ld	t0,8(s3)
     d40:	00fc2023          	sw	a5,0(s8)
     d44:	00042303          	lw	t1,0(s0)
     d48:	0059b423          	sd	t0,8(s3)
     d4c:	00843383          	ld	t2,8(s0)
     d50:	0013051b          	addiw	a0,t1,1
     d54:	00268b1b          	addiw	s6,a3,2
     d58:	0078b423          	sd	t2,8(a7)
     d5c:	01143423          	sd	a7,8(s0)
     d60:	008d3903          	ld	s2,8(s10)
     d64:	0018a023          	sw	ra,0(a7)
     d68:	00a42023          	sw	a0,0(s0)
     d6c:	00893c03          	ld	s8,8(s2)
     d70:	000d2703          	lw	a4,0(s10)
     d74:	00092603          	lw	a2,0(s2)
     d78:	018d3423          	sd	s8,8(s10)
     d7c:	0089be83          	ld	t4,8(s3)
     d80:	fff70f1b          	addiw	t5,a4,-1
     d84:	01ed2023          	sw	t5,0(s10)
     d88:	01d9b423          	sd	t4,8(s3)
     d8c:	008dba83          	ld	s5,8(s11)
     d90:	000da583          	lw	a1,0(s11)
     d94:	01593423          	sd	s5,8(s2)
     d98:	012db423          	sd	s2,8(s11)
     d9c:	00c92023          	sw	a2,0(s2)
     da0:	0015881b          	addiw	a6,a1,1
     da4:	010da023          	sw	a6,0(s11)
     da8:	0164a223          	sw	s6,4(s1)
     dac:	014c8c63          	beq	s9,s4,dc4 <towers_solve_h+0x314>
     db0:	000d0893          	mv	a7,s10
     db4:	00040d13          	mv	s10,s0
     db8:	00088413          	mv	s0,a7
     dbc:	d95ff06f          	j	b50 <towers_solve_h+0xa0>
     dc0:	02013403          	ld	s0,32(sp)
     dc4:	00843c83          	ld	s9,8(s0)
     dc8:	00042e03          	lw	t3,0(s0)
     dcc:	0044a683          	lw	a3,4(s1)
     dd0:	008cbf83          	ld	t6,8(s9)
     dd4:	000ca083          	lw	ra,0(s9)
     dd8:	fffe079b          	addiw	a5,t3,-1
     ddc:	01f43423          	sd	t6,8(s0)
     de0:	0089b283          	ld	t0,8(s3)
     de4:	00f42023          	sw	a5,0(s0)
     de8:	000da303          	lw	t1,0(s11)
     dec:	0059b423          	sd	t0,8(s3)
     df0:	008db383          	ld	t2,8(s11)
     df4:	02013503          	ld	a0,32(sp)
     df8:	00130b1b          	addiw	s6,t1,1
     dfc:	007cb423          	sd	t2,8(s9)
     e00:	019db423          	sd	s9,8(s11)
     e04:	00853c03          	ld	s8,8(a0)
     e08:	001ca023          	sw	ra,0(s9)
     e0c:	016da023          	sw	s6,0(s11)
     e10:	008c3e83          	ld	t4,8(s8)
     e14:	00052703          	lw	a4,0(a0)
     e18:	000c2603          	lw	a2,0(s8)
     e1c:	01d53423          	sd	t4,8(a0)
     e20:	0089bf03          	ld	t5,8(s3)
     e24:	fff70a9b          	addiw	s5,a4,-1
     e28:	01552023          	sw	s5,0(a0)
     e2c:	01e9b423          	sd	t5,8(s3)
     e30:	008bb583          	ld	a1,8(s7)
     e34:	000ba803          	lw	a6,0(s7)
     e38:	01813d03          	ld	s10,24(sp)
     e3c:	00bc3423          	sd	a1,8(s8)
     e40:	018bb423          	sd	s8,8(s7)
     e44:	00cc2023          	sw	a2,0(s8)
     e48:	0018089b          	addiw	a7,a6,1
     e4c:	0026891b          	addiw	s2,a3,2
     e50:	011ba023          	sw	a7,0(s7)
     e54:	0124a223          	sw	s2,4(s1)
     e58:	014d0a63          	beq	s10,s4,e6c <towers_solve_h+0x3bc>
     e5c:	03b13023          	sd	s11,32(sp)
     e60:	00050d93          	mv	s11,a0
     e64:	cd1ff06f          	j	b34 <towers_solve_h+0x84>
     e68:	03013d83          	ld	s11,48(sp)
     e6c:	008dbc83          	ld	s9,8(s11)
     e70:	000dae03          	lw	t3,0(s11)
     e74:	0044a683          	lw	a3,4(s1)
     e78:	008cbf83          	ld	t6,8(s9)
     e7c:	000ca083          	lw	ra,0(s9)
     e80:	fffe079b          	addiw	a5,t3,-1
     e84:	01fdb423          	sd	t6,8(s11)
     e88:	0089b283          	ld	t0,8(s3)
     e8c:	00fda023          	sw	a5,0(s11)
     e90:	000ba303          	lw	t1,0(s7)
     e94:	0059b423          	sd	t0,8(s3)
     e98:	008bb383          	ld	t2,8(s7)
     e9c:	03013503          	ld	a0,48(sp)
     ea0:	00130b1b          	addiw	s6,t1,1
     ea4:	007cb423          	sd	t2,8(s9)
     ea8:	019bb423          	sd	s9,8(s7)
     eac:	00853c03          	ld	s8,8(a0)
     eb0:	001ca023          	sw	ra,0(s9)
     eb4:	016ba023          	sw	s6,0(s7)
     eb8:	008c3e83          	ld	t4,8(s8)
     ebc:	00052703          	lw	a4,0(a0)
     ec0:	000c2603          	lw	a2,0(s8)
     ec4:	01d53423          	sd	t4,8(a0)
     ec8:	0089bf03          	ld	t5,8(s3)
     ecc:	03813803          	ld	a6,56(sp)
     ed0:	fff70a9b          	addiw	s5,a4,-1
     ed4:	01552023          	sw	s5,0(a0)
     ed8:	01e9b423          	sd	t5,8(s3)
     edc:	00883583          	ld	a1,8(a6)
     ee0:	00082883          	lw	a7,0(a6)
     ee4:	0026891b          	addiw	s2,a3,2
     ee8:	00bc3423          	sd	a1,8(s8)
     eec:	01883423          	sd	s8,8(a6)
     ef0:	00cc2023          	sw	a2,0(s8)
     ef4:	00188d1b          	addiw	s10,a7,1
     ef8:	01a82023          	sw	s10,0(a6)
     efc:	0124a223          	sw	s2,4(s1)
     f00:	02813403          	ld	s0,40(sp)
     f04:	01440a63          	beq	s0,s4,f18 <towers_solve_h+0x468>
     f08:	03713823          	sd	s7,48(sp)
     f0c:	00050b93          	mv	s7,a0
     f10:	c01ff06f          	j	b10 <towers_solve_h+0x60>
     f14:	00060b93          	mv	s7,a2
     f18:	008bba03          	ld	s4,8(s7)
     f1c:	000bac83          	lw	s9,0(s7)
     f20:	0044ae03          	lw	t3,4(s1)
     f24:	008a3f83          	ld	t6,8(s4)
     f28:	000a2083          	lw	ra,0(s4)
     f2c:	03813283          	ld	t0,56(sp)
     f30:	01fbb423          	sd	t6,8(s7)
     f34:	0089b783          	ld	a5,8(s3)
     f38:	fffc869b          	addiw	a3,s9,-1
     f3c:	00dba023          	sw	a3,0(s7)
     f40:	0002a303          	lw	t1,0(t0)
     f44:	00f9b423          	sd	a5,8(s3)
     f48:	0082b983          	ld	s3,8(t0)
     f4c:	0a013403          	ld	s0,160(sp)
     f50:	0013039b          	addiw	t2,t1,1
     f54:	013a3423          	sd	s3,8(s4)
     f58:	0142b423          	sd	s4,8(t0)
     f5c:	001a2023          	sw	ra,0(s4)
     f60:	0a813083          	ld	ra,168(sp)
     f64:	001e0b1b          	addiw	s6,t3,1
     f68:	0072a023          	sw	t2,0(t0)
     f6c:	0164a223          	sw	s6,4(s1)
     f70:	09013903          	ld	s2,144(sp)
     f74:	09813483          	ld	s1,152(sp)
     f78:	08813983          	ld	s3,136(sp)
     f7c:	08013a03          	ld	s4,128(sp)
     f80:	07813a83          	ld	s5,120(sp)
     f84:	07013b03          	ld	s6,112(sp)
     f88:	06813b83          	ld	s7,104(sp)
     f8c:	06013c03          	ld	s8,96(sp)
     f90:	05813c83          	ld	s9,88(sp)
     f94:	05013d03          	ld	s10,80(sp)
     f98:	04813d83          	ld	s11,72(sp)
     f9c:	0b010113          	addi	sp,sp,176
     fa0:	00008067          	ret

0000000000000fa4 <towers_solve>:
     fa4:	00052583          	lw	a1,0(a0)
     fa8:	02850713          	addi	a4,a0,40
     fac:	01850693          	addi	a3,a0,24
     fb0:	00850613          	addi	a2,a0,8
     fb4:	afdff06f          	j	ab0 <towers_solve_h>

0000000000000fb8 <towers_verify>:
     fb8:	00852783          	lw	a5,8(a0)
     fbc:	00050693          	mv	a3,a0
     fc0:	04079a63          	bnez	a5,1014 <towers_verify+0x5c>
     fc4:	01852703          	lw	a4,24(a0)
     fc8:	00300513          	li	a0,3
     fcc:	04071263          	bnez	a4,1010 <towers_verify+0x58>
     fd0:	0006a583          	lw	a1,0(a3)
     fd4:	0286a283          	lw	t0,40(a3)
     fd8:	00400513          	li	a0,4
     fdc:	02b29a63          	bne	t0,a1,1010 <towers_verify+0x58>
     fe0:	0306b303          	ld	t1,48(a3)
     fe4:	00031863          	bnez	t1,ff4 <towers_verify+0x3c>
     fe8:	0340006f          	j	101c <towers_verify+0x64>
     fec:	00833303          	ld	t1,8(t1)
     ff0:	02030663          	beqz	t1,101c <towers_verify+0x64>
     ff4:	00032603          	lw	a2,0(t1)
     ff8:	0017071b          	addiw	a4,a4,1
     ffc:	fee608e3          	beq	a2,a4,fec <towers_verify+0x34>
    1000:	00500513          	li	a0,5
    1004:	00008067          	ret
    1008:	00bc6e37          	lui	t3,0xbc6
    100c:	14ee0513          	addi	a0,t3,334 # bc614e <g_nodePool+0xbc283e>
    1010:	00008067          	ret
    1014:	00200513          	li	a0,2
    1018:	00008067          	ret
    101c:	00100513          	li	a0,1
    1020:	0046a383          	lw	t2,4(a3)
    1024:	00b5183b          	sllw	a6,a0,a1
    1028:	fff8089b          	addiw	a7,a6,-1
    102c:	fd138ee3          	beq	t2,a7,1008 <towers_verify+0x50>
    1030:	00600513          	li	a0,6
    1034:	00008067          	ret

0000000000001038 <setStats>:
    1038:	00008067          	ret

000000000000103c <memcpy>:
    103c:	00b567b3          	or	a5,a0,a1
    1040:	00c7e2b3          	or	t0,a5,a2
    1044:	0072f313          	andi	t1,t0,7
    1048:	00c506b3          	add	a3,a0,a2
    104c:	10030863          	beqz	t1,115c <memcpy+0x120>
    1050:	00c58633          	add	a2,a1,a2
    1054:	00050793          	mv	a5,a0
    1058:	10d57063          	bgeu	a0,a3,1158 <memcpy+0x11c>
    105c:	40b60733          	sub	a4,a2,a1
    1060:	00777393          	andi	t2,a4,7
    1064:	0a038463          	beqz	t2,110c <memcpy+0xd0>
    1068:	00100813          	li	a6,1
    106c:	09038663          	beq	t2,a6,10f8 <memcpy+0xbc>
    1070:	00200893          	li	a7,2
    1074:	07138a63          	beq	t2,a7,10e8 <memcpy+0xac>
    1078:	00300e13          	li	t3,3
    107c:	05c38e63          	beq	t2,t3,10d8 <memcpy+0x9c>
    1080:	00400e93          	li	t4,4
    1084:	05d38263          	beq	t2,t4,10c8 <memcpy+0x8c>
    1088:	00500f13          	li	t5,5
    108c:	03e38663          	beq	t2,t5,10b8 <memcpy+0x7c>
    1090:	00600f93          	li	t6,6
    1094:	01f38a63          	beq	t2,t6,10a8 <memcpy+0x6c>
    1098:	0005c283          	lbu	t0,0(a1)
    109c:	00150793          	addi	a5,a0,1
    10a0:	00158593          	addi	a1,a1,1
    10a4:	00550023          	sb	t0,0(a0)
    10a8:	0005c303          	lbu	t1,0(a1)
    10ac:	00178793          	addi	a5,a5,1
    10b0:	00158593          	addi	a1,a1,1
    10b4:	fe678fa3          	sb	t1,-1(a5)
    10b8:	0005c683          	lbu	a3,0(a1)
    10bc:	00178793          	addi	a5,a5,1
    10c0:	00158593          	addi	a1,a1,1
    10c4:	fed78fa3          	sb	a3,-1(a5)
    10c8:	0005c703          	lbu	a4,0(a1)
    10cc:	00178793          	addi	a5,a5,1
    10d0:	00158593          	addi	a1,a1,1
    10d4:	fee78fa3          	sb	a4,-1(a5)
    10d8:	0005c383          	lbu	t2,0(a1)
    10dc:	00178793          	addi	a5,a5,1
    10e0:	00158593          	addi	a1,a1,1
    10e4:	fe778fa3          	sb	t2,-1(a5)
    10e8:	0005c803          	lbu	a6,0(a1)
    10ec:	00178793          	addi	a5,a5,1
    10f0:	00158593          	addi	a1,a1,1
    10f4:	ff078fa3          	sb	a6,-1(a5)
    10f8:	0005c883          	lbu	a7,0(a1)
    10fc:	00158593          	addi	a1,a1,1
    1100:	00178793          	addi	a5,a5,1
    1104:	ff178fa3          	sb	a7,-1(a5)
    1108:	16c58c63          	beq	a1,a2,1280 <memcpy+0x244>
    110c:	0005ce03          	lbu	t3,0(a1)
    1110:	00858593          	addi	a1,a1,8
    1114:	00878793          	addi	a5,a5,8
    1118:	ffc78c23          	sb	t3,-8(a5)
    111c:	ff95ce83          	lbu	t4,-7(a1)
    1120:	ffd78ca3          	sb	t4,-7(a5)
    1124:	ffa5cf03          	lbu	t5,-6(a1)
    1128:	ffe78d23          	sb	t5,-6(a5)
    112c:	ffb5cf83          	lbu	t6,-5(a1)
    1130:	fff78da3          	sb	t6,-5(a5)
    1134:	ffc5c283          	lbu	t0,-4(a1)
    1138:	fe578e23          	sb	t0,-4(a5)
    113c:	ffd5c303          	lbu	t1,-3(a1)
    1140:	fe678ea3          	sb	t1,-3(a5)
    1144:	ffe5c683          	lbu	a3,-2(a1)
    1148:	fed78f23          	sb	a3,-2(a5)
    114c:	fff5c703          	lbu	a4,-1(a1)
    1150:	fee78fa3          	sb	a4,-1(a5)
    1154:	fac59ce3          	bne	a1,a2,110c <memcpy+0xd0>
    1158:	00008067          	ret
    115c:	fed57ee3          	bgeu	a0,a3,1158 <memcpy+0x11c>
    1160:	0005b603          	ld	a2,0(a1)
    1164:	fff54393          	not	t2,a0
    1168:	00768833          	add	a6,a3,t2
    116c:	00385893          	srli	a7,a6,0x3
    1170:	00850793          	addi	a5,a0,8
    1174:	fec7bc23          	sd	a2,-8(a5)
    1178:	00858593          	addi	a1,a1,8
    117c:	0078fe13          	andi	t3,a7,7
    1180:	10d7f463          	bgeu	a5,a3,1288 <memcpy+0x24c>
    1184:	080e0c63          	beqz	t3,121c <memcpy+0x1e0>
    1188:	00100e93          	li	t4,1
    118c:	07de0e63          	beq	t3,t4,1208 <memcpy+0x1cc>
    1190:	00200f13          	li	t5,2
    1194:	07ee0263          	beq	t3,t5,11f8 <memcpy+0x1bc>
    1198:	00300f93          	li	t6,3
    119c:	05fe0663          	beq	t3,t6,11e8 <memcpy+0x1ac>
    11a0:	00400293          	li	t0,4
    11a4:	025e0a63          	beq	t3,t0,11d8 <memcpy+0x19c>
    11a8:	00500313          	li	t1,5
    11ac:	006e0e63          	beq	t3,t1,11c8 <memcpy+0x18c>
    11b0:	00600713          	li	a4,6
    11b4:	0aee1c63          	bne	t3,a4,126c <memcpy+0x230>
    11b8:	0005b383          	ld	t2,0(a1)
    11bc:	00878793          	addi	a5,a5,8
    11c0:	00858593          	addi	a1,a1,8
    11c4:	fe77bc23          	sd	t2,-8(a5)
    11c8:	0005b803          	ld	a6,0(a1)
    11cc:	00878793          	addi	a5,a5,8
    11d0:	00858593          	addi	a1,a1,8
    11d4:	ff07bc23          	sd	a6,-8(a5)
    11d8:	0005b883          	ld	a7,0(a1)
    11dc:	00878793          	addi	a5,a5,8
    11e0:	00858593          	addi	a1,a1,8
    11e4:	ff17bc23          	sd	a7,-8(a5)
    11e8:	0005be03          	ld	t3,0(a1)
    11ec:	00878793          	addi	a5,a5,8
    11f0:	00858593          	addi	a1,a1,8
    11f4:	ffc7bc23          	sd	t3,-8(a5)
    11f8:	0005be83          	ld	t4,0(a1)
    11fc:	00878793          	addi	a5,a5,8
    1200:	00858593          	addi	a1,a1,8
    1204:	ffd7bc23          	sd	t4,-8(a5)
    1208:	0005bf03          	ld	t5,0(a1)
    120c:	00878793          	addi	a5,a5,8
    1210:	00858593          	addi	a1,a1,8
    1214:	ffe7bc23          	sd	t5,-8(a5)
    1218:	06d7f663          	bgeu	a5,a3,1284 <memcpy+0x248>
    121c:	0005bf83          	ld	t6,0(a1)
    1220:	04058593          	addi	a1,a1,64
    1224:	04078793          	addi	a5,a5,64
    1228:	fdf7b023          	sd	t6,-64(a5)
    122c:	fc85b283          	ld	t0,-56(a1)
    1230:	fc57b423          	sd	t0,-56(a5)
    1234:	fd05b303          	ld	t1,-48(a1)
    1238:	fc67b823          	sd	t1,-48(a5)
    123c:	fd85b703          	ld	a4,-40(a1)
    1240:	fce7bc23          	sd	a4,-40(a5)
    1244:	fe05b603          	ld	a2,-32(a1)
    1248:	fec7b023          	sd	a2,-32(a5)
    124c:	fe85b383          	ld	t2,-24(a1)
    1250:	fe77b423          	sd	t2,-24(a5)
    1254:	ff05b803          	ld	a6,-16(a1)
    1258:	ff07b823          	sd	a6,-16(a5)
    125c:	ff85b883          	ld	a7,-8(a1)
    1260:	ff17bc23          	sd	a7,-8(a5)
    1264:	fad7ece3          	bltu	a5,a3,121c <memcpy+0x1e0>
    1268:	00008067          	ret
    126c:	0005b603          	ld	a2,0(a1)
    1270:	00878793          	addi	a5,a5,8
    1274:	00858593          	addi	a1,a1,8
    1278:	fec7bc23          	sd	a2,-8(a5)
    127c:	f3dff06f          	j	11b8 <memcpy+0x17c>
    1280:	00008067          	ret
    1284:	00008067          	ret
    1288:	00008067          	ret

000000000000128c <memset>:
    128c:	ff010113          	addi	sp,sp,-16
    1290:	00c567b3          	or	a5,a0,a2
    1294:	00113423          	sd	ra,8(sp)
    1298:	00813023          	sd	s0,0(sp)
    129c:	0077f093          	andi	ra,a5,7
    12a0:	00050413          	mv	s0,a0
    12a4:	00c50733          	add	a4,a0,a2
    12a8:	02008263          	beqz	ra,12cc <memset+0x40>
    12ac:	00e57663          	bgeu	a0,a4,12b8 <memset+0x2c>
    12b0:	0ff5f593          	zext.b	a1,a1
    12b4:	fd9ff0ef          	jal	ra,128c <memset>
    12b8:	00813083          	ld	ra,8(sp)
    12bc:	00040513          	mv	a0,s0
    12c0:	00013403          	ld	s0,0(sp)
    12c4:	01010113          	addi	sp,sp,16
    12c8:	00008067          	ret
    12cc:	0ff5f593          	zext.b	a1,a1
    12d0:	00859693          	slli	a3,a1,0x8
    12d4:	00b6e2b3          	or	t0,a3,a1
    12d8:	01029313          	slli	t1,t0,0x10
    12dc:	005363b3          	or	t2,t1,t0
    12e0:	02039513          	slli	a0,t2,0x20
    12e4:	00756833          	or	a6,a0,t2
    12e8:	fce478e3          	bgeu	s0,a4,12b8 <memset+0x2c>
    12ec:	fff44613          	not	a2,s0
    12f0:	00c708b3          	add	a7,a4,a2
    12f4:	0038de13          	srli	t3,a7,0x3
    12f8:	00840793          	addi	a5,s0,8
    12fc:	ff07bc23          	sd	a6,-8(a5)
    1300:	007e7e93          	andi	t4,t3,7
    1304:	fae7fae3          	bgeu	a5,a4,12b8 <memset+0x2c>
    1308:	060e8463          	beqz	t4,1370 <memset+0xe4>
    130c:	00100f13          	li	t5,1
    1310:	05ee8a63          	beq	t4,t5,1364 <memset+0xd8>
    1314:	00200f93          	li	t6,2
    1318:	05fe8263          	beq	t4,t6,135c <memset+0xd0>
    131c:	00300093          	li	ra,3
    1320:	021e8a63          	beq	t4,ra,1354 <memset+0xc8>
    1324:	00400593          	li	a1,4
    1328:	02be8263          	beq	t4,a1,134c <memset+0xc0>
    132c:	00500693          	li	a3,5
    1330:	00de8a63          	beq	t4,a3,1344 <memset+0xb8>
    1334:	00600293          	li	t0,6
    1338:	065e9263          	bne	t4,t0,139c <memset+0x110>
    133c:	0107b023          	sd	a6,0(a5)
    1340:	00878793          	addi	a5,a5,8
    1344:	0107b023          	sd	a6,0(a5)
    1348:	00878793          	addi	a5,a5,8
    134c:	0107b023          	sd	a6,0(a5)
    1350:	00878793          	addi	a5,a5,8
    1354:	0107b023          	sd	a6,0(a5)
    1358:	00878793          	addi	a5,a5,8
    135c:	0107b023          	sd	a6,0(a5)
    1360:	00878793          	addi	a5,a5,8
    1364:	00878793          	addi	a5,a5,8
    1368:	ff07bc23          	sd	a6,-8(a5)
    136c:	f4e7f6e3          	bgeu	a5,a4,12b8 <memset+0x2c>
    1370:	0107b023          	sd	a6,0(a5)
    1374:	0107b423          	sd	a6,8(a5)
    1378:	0107b823          	sd	a6,16(a5)
    137c:	0107bc23          	sd	a6,24(a5)
    1380:	0307b023          	sd	a6,32(a5)
    1384:	0307b423          	sd	a6,40(a5)
    1388:	0307b823          	sd	a6,48(a5)
    138c:	0307bc23          	sd	a6,56(a5)
    1390:	04078793          	addi	a5,a5,64
    1394:	fce7eee3          	bltu	a5,a4,1370 <memset+0xe4>
    1398:	f21ff06f          	j	12b8 <memset+0x2c>
    139c:	0107b023          	sd	a6,0(a5)
    13a0:	00878793          	addi	a5,a5,8
    13a4:	f99ff06f          	j	133c <memset+0xb0>

00000000000013a8 <strlen>:
    13a8:	00054783          	lbu	a5,0(a0)
    13ac:	00078e63          	beqz	a5,13c8 <strlen+0x20>
    13b0:	00050293          	mv	t0,a0
    13b4:	0012c703          	lbu	a4,1(t0)
    13b8:	00128293          	addi	t0,t0,1
    13bc:	fe071ce3          	bnez	a4,13b4 <strlen+0xc>
    13c0:	40a28533          	sub	a0,t0,a0
    13c4:	00008067          	ret
    13c8:	00000513          	li	a0,0
    13cc:	00008067          	ret

00000000000013d0 <strnlen>:
    13d0:	00b506b3          	add	a3,a0,a1
    13d4:	00050793          	mv	a5,a0
    13d8:	10058a63          	beqz	a1,14ec <strnlen+0x11c>
    13dc:	40a68733          	sub	a4,a3,a0
    13e0:	00777293          	andi	t0,a4,7
    13e4:	08028063          	beqz	t0,1464 <strnlen+0x94>
    13e8:	00100613          	li	a2,1
    13ec:	06c28463          	beq	t0,a2,1454 <strnlen+0x84>
    13f0:	00200313          	li	t1,2
    13f4:	04628a63          	beq	t0,t1,1448 <strnlen+0x78>
    13f8:	00300393          	li	t2,3
    13fc:	04728063          	beq	t0,t2,143c <strnlen+0x6c>
    1400:	00400593          	li	a1,4
    1404:	02b28663          	beq	t0,a1,1430 <strnlen+0x60>
    1408:	00500813          	li	a6,5
    140c:	01028c63          	beq	t0,a6,1424 <strnlen+0x54>
    1410:	00600893          	li	a7,6
    1414:	0d129463          	bne	t0,a7,14dc <strnlen+0x10c>
    1418:	0007ce83          	lbu	t4,0(a5)
    141c:	0a0e8c63          	beqz	t4,14d4 <strnlen+0x104>
    1420:	00178793          	addi	a5,a5,1
    1424:	0007cf03          	lbu	t5,0(a5)
    1428:	0a0f0663          	beqz	t5,14d4 <strnlen+0x104>
    142c:	00178793          	addi	a5,a5,1
    1430:	0007cf83          	lbu	t6,0(a5)
    1434:	0a0f8063          	beqz	t6,14d4 <strnlen+0x104>
    1438:	00178793          	addi	a5,a5,1
    143c:	0007c703          	lbu	a4,0(a5)
    1440:	08070a63          	beqz	a4,14d4 <strnlen+0x104>
    1444:	00178793          	addi	a5,a5,1
    1448:	0007c283          	lbu	t0,0(a5)
    144c:	08028463          	beqz	t0,14d4 <strnlen+0x104>
    1450:	00178793          	addi	a5,a5,1
    1454:	0007c603          	lbu	a2,0(a5)
    1458:	06060e63          	beqz	a2,14d4 <strnlen+0x104>
    145c:	00178793          	addi	a5,a5,1
    1460:	06f68663          	beq	a3,a5,14cc <strnlen+0xfc>
    1464:	0007c303          	lbu	t1,0(a5)
    1468:	06030663          	beqz	t1,14d4 <strnlen+0x104>
    146c:	0017c383          	lbu	t2,1(a5)
    1470:	00178793          	addi	a5,a5,1
    1474:	00078593          	mv	a1,a5
    1478:	04038e63          	beqz	t2,14d4 <strnlen+0x104>
    147c:	0017c803          	lbu	a6,1(a5)
    1480:	00178793          	addi	a5,a5,1
    1484:	04080863          	beqz	a6,14d4 <strnlen+0x104>
    1488:	0025c883          	lbu	a7,2(a1)
    148c:	00258793          	addi	a5,a1,2
    1490:	04088263          	beqz	a7,14d4 <strnlen+0x104>
    1494:	0035ce03          	lbu	t3,3(a1)
    1498:	00358793          	addi	a5,a1,3
    149c:	020e0c63          	beqz	t3,14d4 <strnlen+0x104>
    14a0:	0045ce83          	lbu	t4,4(a1)
    14a4:	00458793          	addi	a5,a1,4
    14a8:	020e8663          	beqz	t4,14d4 <strnlen+0x104>
    14ac:	0055cf03          	lbu	t5,5(a1)
    14b0:	00558793          	addi	a5,a1,5
    14b4:	020f0063          	beqz	t5,14d4 <strnlen+0x104>
    14b8:	0065cf83          	lbu	t6,6(a1)
    14bc:	00658793          	addi	a5,a1,6
    14c0:	000f8a63          	beqz	t6,14d4 <strnlen+0x104>
    14c4:	00758793          	addi	a5,a1,7
    14c8:	f8f69ee3          	bne	a3,a5,1464 <strnlen+0x94>
    14cc:	40a68533          	sub	a0,a3,a0
    14d0:	00008067          	ret
    14d4:	40a78533          	sub	a0,a5,a0
    14d8:	00008067          	ret
    14dc:	00054e03          	lbu	t3,0(a0)
    14e0:	fe0e0ae3          	beqz	t3,14d4 <strnlen+0x104>
    14e4:	00150793          	addi	a5,a0,1
    14e8:	f31ff06f          	j	1418 <strnlen+0x48>
    14ec:	00000513          	li	a0,0
    14f0:	00008067          	ret

00000000000014f4 <strcmp>:
    14f4:	00054783          	lbu	a5,0(a0)
    14f8:	00158593          	addi	a1,a1,1
    14fc:	00150513          	addi	a0,a0,1
    1500:	fff5c703          	lbu	a4,-1(a1)
    1504:	00078a63          	beqz	a5,1518 <strcmp+0x24>
    1508:	fee786e3          	beq	a5,a4,14f4 <strcmp>
    150c:	0007851b          	sext.w	a0,a5
    1510:	40e5053b          	subw	a0,a0,a4
    1514:	00008067          	ret
    1518:	00000513          	li	a0,0
    151c:	ff5ff06f          	j	1510 <strcmp+0x1c>

0000000000001520 <strcpy>:
    1520:	00050793          	mv	a5,a0
    1524:	0005c703          	lbu	a4,0(a1)
    1528:	00178793          	addi	a5,a5,1
    152c:	00158593          	addi	a1,a1,1
    1530:	fee78fa3          	sb	a4,-1(a5)
    1534:	fe0718e3          	bnez	a4,1524 <strcpy+0x4>
    1538:	00008067          	ret

000000000000153c <atol>:
    153c:	00054703          	lbu	a4,0(a0)
    1540:	02000693          	li	a3,32
    1544:	00050793          	mv	a5,a0
    1548:	00d71863          	bne	a4,a3,1558 <atol+0x1c>
    154c:	0017c703          	lbu	a4,1(a5)
    1550:	00178793          	addi	a5,a5,1
    1554:	fed70ce3          	beq	a4,a3,154c <atol+0x10>
    1558:	02d00293          	li	t0,45
    155c:	06570063          	beq	a4,t0,15bc <atol+0x80>
    1560:	02b00313          	li	t1,43
    1564:	04670063          	beq	a4,t1,15a4 <atol+0x68>
    1568:	0007c383          	lbu	t2,0(a5)
    156c:	00000593          	li	a1,0
    1570:	04038263          	beqz	t2,15b4 <atol+0x78>
    1574:	00000513          	li	a0,0
    1578:	00178793          	addi	a5,a5,1
    157c:	fd03861b          	addiw	a2,t2,-48
    1580:	00251813          	slli	a6,a0,0x2
    1584:	0007c383          	lbu	t2,0(a5)
    1588:	00a80533          	add	a0,a6,a0
    158c:	00151893          	slli	a7,a0,0x1
    1590:	01160533          	add	a0,a2,a7
    1594:	fe0392e3          	bnez	t2,1578 <atol+0x3c>
    1598:	02058063          	beqz	a1,15b8 <atol+0x7c>
    159c:	40a00533          	neg	a0,a0
    15a0:	00008067          	ret
    15a4:	0017c383          	lbu	t2,1(a5)
    15a8:	00000593          	li	a1,0
    15ac:	00178793          	addi	a5,a5,1
    15b0:	fc0392e3          	bnez	t2,1574 <atol+0x38>
    15b4:	00000513          	li	a0,0
    15b8:	00008067          	ret
    15bc:	0017c383          	lbu	t2,1(a5)
    15c0:	00100593          	li	a1,1
    15c4:	00178793          	addi	a5,a5,1
    15c8:	fa0396e3          	bnez	t2,1574 <atol+0x38>
    15cc:	00000513          	li	a0,0
    15d0:	fe9ff06f          	j	15b8 <atol+0x7c>

00000000000015d4 <main>:
    15d4:	fb010113          	addi	sp,sp,-80
    15d8:	04113423          	sd	ra,72(sp)
    15dc:	00002797          	auipc	a5,0x2
    15e0:	32478793          	addi	a5,a5,804 # 3900 <g_nodeFreeList>
    15e4:	00002717          	auipc	a4,0x2
    15e8:	32c70713          	addi	a4,a4,812 # 3910 <g_nodePool>
    15ec:	00a00093          	li	ra,10
    15f0:	06300293          	li	t0,99
    15f4:	00002317          	auipc	t1,0x2
    15f8:	32c30313          	addi	t1,t1,812 # 3920 <g_nodePool+0x10>
    15fc:	00002397          	auipc	t2,0x2
    1600:	33438393          	addi	t2,t2,820 # 3930 <g_nodePool+0x20>
    1604:	00100613          	li	a2,1
    1608:	00002697          	auipc	a3,0x2
    160c:	33868693          	addi	a3,a3,824 # 3940 <g_nodePool+0x30>
    1610:	00e7b423          	sd	a4,8(a5)
    1614:	0017a023          	sw	ra,0(a5)
    1618:	0a57a023          	sw	t0,160(a5)
    161c:	00002097          	auipc	ra,0x2
    1620:	36408093          	addi	ra,ra,868 # 3980 <g_nodePool+0x70>
    1624:	0067bc23          	sd	t1,24(a5)
    1628:	0277b423          	sd	t2,40(a5)
    162c:	02c7a023          	sw	a2,32(a5)
    1630:	02d7bc23          	sd	a3,56(a5)
    1634:	00200813          	li	a6,2
    1638:	00002897          	auipc	a7,0x2
    163c:	31888893          	addi	a7,a7,792 # 3950 <g_nodePool+0x40>
    1640:	00300e13          	li	t3,3
    1644:	00002e97          	auipc	t4,0x2
    1648:	31ce8e93          	addi	t4,t4,796 # 3960 <g_nodePool+0x50>
    164c:	00400f13          	li	t5,4
    1650:	00002f97          	auipc	t6,0x2
    1654:	320f8f93          	addi	t6,t6,800 # 3970 <g_nodePool+0x60>
    1658:	00500713          	li	a4,5
    165c:	00600293          	li	t0,6
    1660:	00002317          	auipc	t1,0x2
    1664:	33030313          	addi	t1,t1,816 # 3990 <g_nodePool+0x80>
    1668:	00700393          	li	t2,7
    166c:	00002617          	auipc	a2,0x2
    1670:	33460613          	addi	a2,a2,820 # 39a0 <g_nodePool+0x90>
    1674:	00800693          	li	a3,8
    1678:	0617bc23          	sd	ra,120(a5)
    167c:	00a00593          	li	a1,10
    1680:	0a07b423          	sd	zero,168(a5)
    1684:	0007a823          	sw	zero,16(a5)
    1688:	0307a823          	sw	a6,48(a5)
    168c:	0517b423          	sd	a7,72(a5)
    1690:	05c7a023          	sw	t3,64(a5)
    1694:	05d7bc23          	sd	t4,88(a5)
    1698:	05e7a823          	sw	t5,80(a5)
    169c:	07f7b423          	sd	t6,104(a5)
    16a0:	06e7a023          	sw	a4,96(a5)
    16a4:	0657a823          	sw	t0,112(a5)
    16a8:	0867b423          	sd	t1,136(a5)
    16ac:	0877a023          	sw	t2,128(a5)
    16b0:	08c7bc23          	sd	a2,152(a5)
    16b4:	08d7a823          	sw	a3,144(a5)
    16b8:	00810513          	addi	a0,sp,8
    16bc:	c35fe0ef          	jal	ra,2f0 <towers_init>
    16c0:	00810513          	addi	a0,sp,8
    16c4:	df1fe0ef          	jal	ra,4b4 <towers_clear>
    16c8:	00810513          	addi	a0,sp,8
    16cc:	8d9ff0ef          	jal	ra,fa4 <towers_solve>
    16d0:	00810513          	addi	a0,sp,8
    16d4:	8e5ff0ef          	jal	ra,fb8 <towers_verify>
    16d8:	04813083          	ld	ra,72(sp)
    16dc:	05010113          	addi	sp,sp,80
    16e0:	00008067          	ret

00000000000016e4 <end>:
    16e4:	00000013          	nop
    16e8:	00000013          	nop
    16ec:	00000013          	nop
    16f0:	00000013          	nop
    16f4:	00000013          	nop
    16f8:	00000013          	nop

00000000000016fc <_last>:
    16fc:	fe9ff06f          	j	16e4 <end>
