
vvadd-loops-unrolled.riscv:     file format elf64-littleriscv


Disassembly of section .text:

0000000000000000 <_start>:
   0:	00000093          	li	ra,0
   4:	00000113          	li	sp,0
   8:	00000193          	li	gp,0
   c:	00000213          	li	tp,0
  10:	00000293          	li	t0,0
  14:	00000313          	li	t1,0
  18:	00000393          	li	t2,0
  1c:	00000413          	li	s0,0
  20:	00000493          	li	s1,0
  24:	00000513          	li	a0,0
  28:	00000593          	li	a1,0
  2c:	00000613          	li	a2,0
  30:	00000693          	li	a3,0
  34:	00000713          	li	a4,0
  38:	00000793          	li	a5,0
  3c:	00000813          	li	a6,0
  40:	00000893          	li	a7,0
  44:	00000913          	li	s2,0
  48:	00000993          	li	s3,0
  4c:	00000a13          	li	s4,0
  50:	00000a93          	li	s5,0
  54:	00000b13          	li	s6,0
  58:	00000b93          	li	s7,0
  5c:	00000c13          	li	s8,0
  60:	00000c93          	li	s9,0
  64:	00000d13          	li	s10,0
  68:	00000d93          	li	s11,0
  6c:	00000e13          	li	t3,0
  70:	00000e93          	li	t4,0
  74:	00000f13          	li	t5,0
  78:	00000f93          	li	t6,0
  7c:	00006117          	auipc	sp,0x6
  80:	a4c10113          	addi	sp,sp,-1460 # 5ac8 <STACK>
  84:	768000ef          	jal	ra,7ec <main>
  88:	1410006f          	j	9c8 <end>

000000000000008c <vvadd>:
  8c:	18a05e63          	blez	a0,228 <vvadd+0x19c>
  90:	fff5051b          	addiw	a0,a0,-1
  94:	02051793          	slli	a5,a0,0x20
  98:	01e7d293          	srli	t0,a5,0x1e
  9c:	00458713          	addi	a4,a1,4
  a0:	00e28333          	add	t1,t0,a4
  a4:	40b303b3          	sub	t2,t1,a1
  a8:	ffc38813          	addi	a6,t2,-4
  ac:	00285893          	srli	a7,a6,0x2
  b0:	00188e13          	addi	t3,a7,1
  b4:	007e7e93          	andi	t4,t3,7
  b8:	0e0e8063          	beqz	t4,198 <vvadd+0x10c>
  bc:	00100f13          	li	t5,1
  c0:	0bee8c63          	beq	t4,t5,178 <vvadd+0xec>
  c4:	00200f93          	li	t6,2
  c8:	09fe8a63          	beq	t4,t6,15c <vvadd+0xd0>
  cc:	00300513          	li	a0,3
  d0:	06ae8863          	beq	t4,a0,140 <vvadd+0xb4>
  d4:	00400793          	li	a5,4
  d8:	04fe8663          	beq	t4,a5,124 <vvadd+0x98>
  dc:	00500293          	li	t0,5
  e0:	025e8463          	beq	t4,t0,108 <vvadd+0x7c>
  e4:	00600393          	li	t2,6
  e8:	147e9263          	bne	t4,t2,22c <vvadd+0x1a0>
  ec:	0005ae03          	lw	t3,0(a1)
  f0:	00062e83          	lw	t4,0(a2)
  f4:	00458593          	addi	a1,a1,4
  f8:	00460613          	addi	a2,a2,4
  fc:	01ce8f3b          	addw	t5,t4,t3
 100:	01e6a023          	sw	t5,0(a3)
 104:	00468693          	addi	a3,a3,4
 108:	0005af83          	lw	t6,0(a1)
 10c:	00062503          	lw	a0,0(a2)
 110:	00458593          	addi	a1,a1,4
 114:	00460613          	addi	a2,a2,4
 118:	01f507bb          	addw	a5,a0,t6
 11c:	00f6a023          	sw	a5,0(a3)
 120:	00468693          	addi	a3,a3,4
 124:	0005a283          	lw	t0,0(a1)
 128:	00062383          	lw	t2,0(a2)
 12c:	00458593          	addi	a1,a1,4
 130:	00460613          	addi	a2,a2,4
 134:	0053883b          	addw	a6,t2,t0
 138:	0106a023          	sw	a6,0(a3)
 13c:	00468693          	addi	a3,a3,4
 140:	0005a883          	lw	a7,0(a1)
 144:	00062703          	lw	a4,0(a2)
 148:	00458593          	addi	a1,a1,4
 14c:	00460613          	addi	a2,a2,4
 150:	01170e3b          	addw	t3,a4,a7
 154:	01c6a023          	sw	t3,0(a3)
 158:	00468693          	addi	a3,a3,4
 15c:	0005ae83          	lw	t4,0(a1)
 160:	00062f03          	lw	t5,0(a2)
 164:	00458593          	addi	a1,a1,4
 168:	00460613          	addi	a2,a2,4
 16c:	01df0fbb          	addw	t6,t5,t4
 170:	01f6a023          	sw	t6,0(a3)
 174:	00468693          	addi	a3,a3,4
 178:	0005a503          	lw	a0,0(a1)
 17c:	00062783          	lw	a5,0(a2)
 180:	00458593          	addi	a1,a1,4
 184:	00460613          	addi	a2,a2,4
 188:	00a782bb          	addw	t0,a5,a0
 18c:	0056a023          	sw	t0,0(a3)
 190:	00468693          	addi	a3,a3,4
 194:	0a658c63          	beq	a1,t1,24c <vvadd+0x1c0>
 198:	0005a383          	lw	t2,0(a1)
 19c:	00062803          	lw	a6,0(a2)
 1a0:	02058593          	addi	a1,a1,32
 1a4:	02060613          	addi	a2,a2,32
 1a8:	007808bb          	addw	a7,a6,t2
 1ac:	0116a023          	sw	a7,0(a3)
 1b0:	fe45a703          	lw	a4,-28(a1)
 1b4:	fe462e03          	lw	t3,-28(a2)
 1b8:	02068693          	addi	a3,a3,32
 1bc:	00ee0ebb          	addw	t4,t3,a4
 1c0:	ffd6a223          	sw	t4,-28(a3)
 1c4:	fe85af03          	lw	t5,-24(a1)
 1c8:	fe862f83          	lw	t6,-24(a2)
 1cc:	01ef853b          	addw	a0,t6,t5
 1d0:	fea6a423          	sw	a0,-24(a3)
 1d4:	fec5a283          	lw	t0,-20(a1)
 1d8:	fec62783          	lw	a5,-20(a2)
 1dc:	005783bb          	addw	t2,a5,t0
 1e0:	fe76a623          	sw	t2,-20(a3)
 1e4:	ff05a803          	lw	a6,-16(a1)
 1e8:	ff062883          	lw	a7,-16(a2)
 1ec:	0108873b          	addw	a4,a7,a6
 1f0:	fee6a823          	sw	a4,-16(a3)
 1f4:	ff45ae03          	lw	t3,-12(a1)
 1f8:	ff462e83          	lw	t4,-12(a2)
 1fc:	01ce8f3b          	addw	t5,t4,t3
 200:	ffe6aa23          	sw	t5,-12(a3)
 204:	ff85af83          	lw	t6,-8(a1)
 208:	ff862503          	lw	a0,-8(a2)
 20c:	01f502bb          	addw	t0,a0,t6
 210:	fe56ac23          	sw	t0,-8(a3)
 214:	ffc5a383          	lw	t2,-4(a1)
 218:	ffc62783          	lw	a5,-4(a2)
 21c:	0077883b          	addw	a6,a5,t2
 220:	ff06ae23          	sw	a6,-4(a3)
 224:	f6659ae3          	bne	a1,t1,198 <vvadd+0x10c>
 228:	00008067          	ret
 22c:	0005a803          	lw	a6,0(a1)
 230:	00062883          	lw	a7,0(a2)
 234:	00070593          	mv	a1,a4
 238:	00460613          	addi	a2,a2,4
 23c:	0108873b          	addw	a4,a7,a6
 240:	00e6a023          	sw	a4,0(a3)
 244:	00468693          	addi	a3,a3,4
 248:	ea5ff06f          	j	ec <vvadd+0x60>
 24c:	00008067          	ret

0000000000000250 <setStats>:
 250:	00008067          	ret

0000000000000254 <memcpy>:
 254:	00b567b3          	or	a5,a0,a1
 258:	00c7e2b3          	or	t0,a5,a2
 25c:	0072f313          	andi	t1,t0,7
 260:	00c506b3          	add	a3,a0,a2
 264:	10030863          	beqz	t1,374 <memcpy+0x120>
 268:	00c58633          	add	a2,a1,a2
 26c:	00050793          	mv	a5,a0
 270:	10d57063          	bgeu	a0,a3,370 <memcpy+0x11c>
 274:	40b60733          	sub	a4,a2,a1
 278:	00777393          	andi	t2,a4,7
 27c:	0a038463          	beqz	t2,324 <memcpy+0xd0>
 280:	00100813          	li	a6,1
 284:	09038663          	beq	t2,a6,310 <memcpy+0xbc>
 288:	00200893          	li	a7,2
 28c:	07138a63          	beq	t2,a7,300 <memcpy+0xac>
 290:	00300e13          	li	t3,3
 294:	05c38e63          	beq	t2,t3,2f0 <memcpy+0x9c>
 298:	00400e93          	li	t4,4
 29c:	05d38263          	beq	t2,t4,2e0 <memcpy+0x8c>
 2a0:	00500f13          	li	t5,5
 2a4:	03e38663          	beq	t2,t5,2d0 <memcpy+0x7c>
 2a8:	00600f93          	li	t6,6
 2ac:	01f38a63          	beq	t2,t6,2c0 <memcpy+0x6c>
 2b0:	0005c283          	lbu	t0,0(a1)
 2b4:	00150793          	addi	a5,a0,1
 2b8:	00158593          	addi	a1,a1,1
 2bc:	00550023          	sb	t0,0(a0)
 2c0:	0005c303          	lbu	t1,0(a1)
 2c4:	00178793          	addi	a5,a5,1
 2c8:	00158593          	addi	a1,a1,1
 2cc:	fe678fa3          	sb	t1,-1(a5)
 2d0:	0005c683          	lbu	a3,0(a1)
 2d4:	00178793          	addi	a5,a5,1
 2d8:	00158593          	addi	a1,a1,1
 2dc:	fed78fa3          	sb	a3,-1(a5)
 2e0:	0005c703          	lbu	a4,0(a1)
 2e4:	00178793          	addi	a5,a5,1
 2e8:	00158593          	addi	a1,a1,1
 2ec:	fee78fa3          	sb	a4,-1(a5)
 2f0:	0005c383          	lbu	t2,0(a1)
 2f4:	00178793          	addi	a5,a5,1
 2f8:	00158593          	addi	a1,a1,1
 2fc:	fe778fa3          	sb	t2,-1(a5)
 300:	0005c803          	lbu	a6,0(a1)
 304:	00178793          	addi	a5,a5,1
 308:	00158593          	addi	a1,a1,1
 30c:	ff078fa3          	sb	a6,-1(a5)
 310:	0005c883          	lbu	a7,0(a1)
 314:	00158593          	addi	a1,a1,1
 318:	00178793          	addi	a5,a5,1
 31c:	ff178fa3          	sb	a7,-1(a5)
 320:	16c58c63          	beq	a1,a2,498 <memcpy+0x244>
 324:	0005ce03          	lbu	t3,0(a1)
 328:	00858593          	addi	a1,a1,8
 32c:	00878793          	addi	a5,a5,8
 330:	ffc78c23          	sb	t3,-8(a5)
 334:	ff95ce83          	lbu	t4,-7(a1)
 338:	ffd78ca3          	sb	t4,-7(a5)
 33c:	ffa5cf03          	lbu	t5,-6(a1)
 340:	ffe78d23          	sb	t5,-6(a5)
 344:	ffb5cf83          	lbu	t6,-5(a1)
 348:	fff78da3          	sb	t6,-5(a5)
 34c:	ffc5c283          	lbu	t0,-4(a1)
 350:	fe578e23          	sb	t0,-4(a5)
 354:	ffd5c303          	lbu	t1,-3(a1)
 358:	fe678ea3          	sb	t1,-3(a5)
 35c:	ffe5c683          	lbu	a3,-2(a1)
 360:	fed78f23          	sb	a3,-2(a5)
 364:	fff5c703          	lbu	a4,-1(a1)
 368:	fee78fa3          	sb	a4,-1(a5)
 36c:	fac59ce3          	bne	a1,a2,324 <memcpy+0xd0>
 370:	00008067          	ret
 374:	fed57ee3          	bgeu	a0,a3,370 <memcpy+0x11c>
 378:	0005b603          	ld	a2,0(a1)
 37c:	fff54393          	not	t2,a0
 380:	00768833          	add	a6,a3,t2
 384:	00385893          	srli	a7,a6,0x3
 388:	00850793          	addi	a5,a0,8
 38c:	fec7bc23          	sd	a2,-8(a5)
 390:	00858593          	addi	a1,a1,8
 394:	0078fe13          	andi	t3,a7,7
 398:	10d7f463          	bgeu	a5,a3,4a0 <memcpy+0x24c>
 39c:	080e0c63          	beqz	t3,434 <memcpy+0x1e0>
 3a0:	00100e93          	li	t4,1
 3a4:	07de0e63          	beq	t3,t4,420 <memcpy+0x1cc>
 3a8:	00200f13          	li	t5,2
 3ac:	07ee0263          	beq	t3,t5,410 <memcpy+0x1bc>
 3b0:	00300f93          	li	t6,3
 3b4:	05fe0663          	beq	t3,t6,400 <memcpy+0x1ac>
 3b8:	00400293          	li	t0,4
 3bc:	025e0a63          	beq	t3,t0,3f0 <memcpy+0x19c>
 3c0:	00500313          	li	t1,5
 3c4:	006e0e63          	beq	t3,t1,3e0 <memcpy+0x18c>
 3c8:	00600713          	li	a4,6
 3cc:	0aee1c63          	bne	t3,a4,484 <memcpy+0x230>
 3d0:	0005b383          	ld	t2,0(a1)
 3d4:	00878793          	addi	a5,a5,8
 3d8:	00858593          	addi	a1,a1,8
 3dc:	fe77bc23          	sd	t2,-8(a5)
 3e0:	0005b803          	ld	a6,0(a1)
 3e4:	00878793          	addi	a5,a5,8
 3e8:	00858593          	addi	a1,a1,8
 3ec:	ff07bc23          	sd	a6,-8(a5)
 3f0:	0005b883          	ld	a7,0(a1)
 3f4:	00878793          	addi	a5,a5,8
 3f8:	00858593          	addi	a1,a1,8
 3fc:	ff17bc23          	sd	a7,-8(a5)
 400:	0005be03          	ld	t3,0(a1)
 404:	00878793          	addi	a5,a5,8
 408:	00858593          	addi	a1,a1,8
 40c:	ffc7bc23          	sd	t3,-8(a5)
 410:	0005be83          	ld	t4,0(a1)
 414:	00878793          	addi	a5,a5,8
 418:	00858593          	addi	a1,a1,8
 41c:	ffd7bc23          	sd	t4,-8(a5)
 420:	0005bf03          	ld	t5,0(a1)
 424:	00878793          	addi	a5,a5,8
 428:	00858593          	addi	a1,a1,8
 42c:	ffe7bc23          	sd	t5,-8(a5)
 430:	06d7f663          	bgeu	a5,a3,49c <memcpy+0x248>
 434:	0005bf83          	ld	t6,0(a1)
 438:	04058593          	addi	a1,a1,64
 43c:	04078793          	addi	a5,a5,64
 440:	fdf7b023          	sd	t6,-64(a5)
 444:	fc85b283          	ld	t0,-56(a1)
 448:	fc57b423          	sd	t0,-56(a5)
 44c:	fd05b303          	ld	t1,-48(a1)
 450:	fc67b823          	sd	t1,-48(a5)
 454:	fd85b703          	ld	a4,-40(a1)
 458:	fce7bc23          	sd	a4,-40(a5)
 45c:	fe05b603          	ld	a2,-32(a1)
 460:	fec7b023          	sd	a2,-32(a5)
 464:	fe85b383          	ld	t2,-24(a1)
 468:	fe77b423          	sd	t2,-24(a5)
 46c:	ff05b803          	ld	a6,-16(a1)
 470:	ff07b823          	sd	a6,-16(a5)
 474:	ff85b883          	ld	a7,-8(a1)
 478:	ff17bc23          	sd	a7,-8(a5)
 47c:	fad7ece3          	bltu	a5,a3,434 <memcpy+0x1e0>
 480:	00008067          	ret
 484:	0005b603          	ld	a2,0(a1)
 488:	00878793          	addi	a5,a5,8
 48c:	00858593          	addi	a1,a1,8
 490:	fec7bc23          	sd	a2,-8(a5)
 494:	f3dff06f          	j	3d0 <memcpy+0x17c>
 498:	00008067          	ret
 49c:	00008067          	ret
 4a0:	00008067          	ret

00000000000004a4 <memset>:
 4a4:	ff010113          	addi	sp,sp,-16
 4a8:	00c567b3          	or	a5,a0,a2
 4ac:	00113423          	sd	ra,8(sp)
 4b0:	00813023          	sd	s0,0(sp)
 4b4:	0077f093          	andi	ra,a5,7
 4b8:	00050413          	mv	s0,a0
 4bc:	00c50733          	add	a4,a0,a2
 4c0:	02008263          	beqz	ra,4e4 <memset+0x40>
 4c4:	00e57663          	bgeu	a0,a4,4d0 <memset+0x2c>
 4c8:	0ff5f593          	zext.b	a1,a1
 4cc:	fd9ff0ef          	jal	ra,4a4 <memset>
 4d0:	00813083          	ld	ra,8(sp)
 4d4:	00040513          	mv	a0,s0
 4d8:	00013403          	ld	s0,0(sp)
 4dc:	01010113          	addi	sp,sp,16
 4e0:	00008067          	ret
 4e4:	0ff5f593          	zext.b	a1,a1
 4e8:	00859693          	slli	a3,a1,0x8
 4ec:	00b6e2b3          	or	t0,a3,a1
 4f0:	01029313          	slli	t1,t0,0x10
 4f4:	005363b3          	or	t2,t1,t0
 4f8:	02039513          	slli	a0,t2,0x20
 4fc:	00756833          	or	a6,a0,t2
 500:	fce478e3          	bgeu	s0,a4,4d0 <memset+0x2c>
 504:	fff44613          	not	a2,s0
 508:	00c708b3          	add	a7,a4,a2
 50c:	0038de13          	srli	t3,a7,0x3
 510:	00840793          	addi	a5,s0,8
 514:	ff07bc23          	sd	a6,-8(a5)
 518:	007e7e93          	andi	t4,t3,7
 51c:	fae7fae3          	bgeu	a5,a4,4d0 <memset+0x2c>
 520:	060e8463          	beqz	t4,588 <memset+0xe4>
 524:	00100f13          	li	t5,1
 528:	05ee8a63          	beq	t4,t5,57c <memset+0xd8>
 52c:	00200f93          	li	t6,2
 530:	05fe8263          	beq	t4,t6,574 <memset+0xd0>
 534:	00300093          	li	ra,3
 538:	021e8a63          	beq	t4,ra,56c <memset+0xc8>
 53c:	00400593          	li	a1,4
 540:	02be8263          	beq	t4,a1,564 <memset+0xc0>
 544:	00500693          	li	a3,5
 548:	00de8a63          	beq	t4,a3,55c <memset+0xb8>
 54c:	00600293          	li	t0,6
 550:	065e9263          	bne	t4,t0,5b4 <memset+0x110>
 554:	0107b023          	sd	a6,0(a5)
 558:	00878793          	addi	a5,a5,8
 55c:	0107b023          	sd	a6,0(a5)
 560:	00878793          	addi	a5,a5,8
 564:	0107b023          	sd	a6,0(a5)
 568:	00878793          	addi	a5,a5,8
 56c:	0107b023          	sd	a6,0(a5)
 570:	00878793          	addi	a5,a5,8
 574:	0107b023          	sd	a6,0(a5)
 578:	00878793          	addi	a5,a5,8
 57c:	00878793          	addi	a5,a5,8
 580:	ff07bc23          	sd	a6,-8(a5)
 584:	f4e7f6e3          	bgeu	a5,a4,4d0 <memset+0x2c>
 588:	0107b023          	sd	a6,0(a5)
 58c:	0107b423          	sd	a6,8(a5)
 590:	0107b823          	sd	a6,16(a5)
 594:	0107bc23          	sd	a6,24(a5)
 598:	0307b023          	sd	a6,32(a5)
 59c:	0307b423          	sd	a6,40(a5)
 5a0:	0307b823          	sd	a6,48(a5)
 5a4:	0307bc23          	sd	a6,56(a5)
 5a8:	04078793          	addi	a5,a5,64
 5ac:	fce7eee3          	bltu	a5,a4,588 <memset+0xe4>
 5b0:	f21ff06f          	j	4d0 <memset+0x2c>
 5b4:	0107b023          	sd	a6,0(a5)
 5b8:	00878793          	addi	a5,a5,8
 5bc:	f99ff06f          	j	554 <memset+0xb0>

00000000000005c0 <strlen>:
 5c0:	00054783          	lbu	a5,0(a0)
 5c4:	00078e63          	beqz	a5,5e0 <strlen+0x20>
 5c8:	00050293          	mv	t0,a0
 5cc:	0012c703          	lbu	a4,1(t0)
 5d0:	00128293          	addi	t0,t0,1
 5d4:	fe071ce3          	bnez	a4,5cc <strlen+0xc>
 5d8:	40a28533          	sub	a0,t0,a0
 5dc:	00008067          	ret
 5e0:	00000513          	li	a0,0
 5e4:	00008067          	ret

00000000000005e8 <strnlen>:
 5e8:	00b506b3          	add	a3,a0,a1
 5ec:	00050793          	mv	a5,a0
 5f0:	10058a63          	beqz	a1,704 <strnlen+0x11c>
 5f4:	40a68733          	sub	a4,a3,a0
 5f8:	00777293          	andi	t0,a4,7
 5fc:	08028063          	beqz	t0,67c <strnlen+0x94>
 600:	00100613          	li	a2,1
 604:	06c28463          	beq	t0,a2,66c <strnlen+0x84>
 608:	00200313          	li	t1,2
 60c:	04628a63          	beq	t0,t1,660 <strnlen+0x78>
 610:	00300393          	li	t2,3
 614:	04728063          	beq	t0,t2,654 <strnlen+0x6c>
 618:	00400593          	li	a1,4
 61c:	02b28663          	beq	t0,a1,648 <strnlen+0x60>
 620:	00500813          	li	a6,5
 624:	01028c63          	beq	t0,a6,63c <strnlen+0x54>
 628:	00600893          	li	a7,6
 62c:	0d129463          	bne	t0,a7,6f4 <strnlen+0x10c>
 630:	0007ce83          	lbu	t4,0(a5)
 634:	0a0e8c63          	beqz	t4,6ec <strnlen+0x104>
 638:	00178793          	addi	a5,a5,1
 63c:	0007cf03          	lbu	t5,0(a5)
 640:	0a0f0663          	beqz	t5,6ec <strnlen+0x104>
 644:	00178793          	addi	a5,a5,1
 648:	0007cf83          	lbu	t6,0(a5)
 64c:	0a0f8063          	beqz	t6,6ec <strnlen+0x104>
 650:	00178793          	addi	a5,a5,1
 654:	0007c703          	lbu	a4,0(a5)
 658:	08070a63          	beqz	a4,6ec <strnlen+0x104>
 65c:	00178793          	addi	a5,a5,1
 660:	0007c283          	lbu	t0,0(a5)
 664:	08028463          	beqz	t0,6ec <strnlen+0x104>
 668:	00178793          	addi	a5,a5,1
 66c:	0007c603          	lbu	a2,0(a5)
 670:	06060e63          	beqz	a2,6ec <strnlen+0x104>
 674:	00178793          	addi	a5,a5,1
 678:	06f68663          	beq	a3,a5,6e4 <strnlen+0xfc>
 67c:	0007c303          	lbu	t1,0(a5)
 680:	06030663          	beqz	t1,6ec <strnlen+0x104>
 684:	0017c383          	lbu	t2,1(a5)
 688:	00178793          	addi	a5,a5,1
 68c:	00078593          	mv	a1,a5
 690:	04038e63          	beqz	t2,6ec <strnlen+0x104>
 694:	0017c803          	lbu	a6,1(a5)
 698:	00178793          	addi	a5,a5,1
 69c:	04080863          	beqz	a6,6ec <strnlen+0x104>
 6a0:	0025c883          	lbu	a7,2(a1)
 6a4:	00258793          	addi	a5,a1,2
 6a8:	04088263          	beqz	a7,6ec <strnlen+0x104>
 6ac:	0035ce03          	lbu	t3,3(a1)
 6b0:	00358793          	addi	a5,a1,3
 6b4:	020e0c63          	beqz	t3,6ec <strnlen+0x104>
 6b8:	0045ce83          	lbu	t4,4(a1)
 6bc:	00458793          	addi	a5,a1,4
 6c0:	020e8663          	beqz	t4,6ec <strnlen+0x104>
 6c4:	0055cf03          	lbu	t5,5(a1)
 6c8:	00558793          	addi	a5,a1,5
 6cc:	020f0063          	beqz	t5,6ec <strnlen+0x104>
 6d0:	0065cf83          	lbu	t6,6(a1)
 6d4:	00658793          	addi	a5,a1,6
 6d8:	000f8a63          	beqz	t6,6ec <strnlen+0x104>
 6dc:	00758793          	addi	a5,a1,7
 6e0:	f8f69ee3          	bne	a3,a5,67c <strnlen+0x94>
 6e4:	40a68533          	sub	a0,a3,a0
 6e8:	00008067          	ret
 6ec:	40a78533          	sub	a0,a5,a0
 6f0:	00008067          	ret
 6f4:	00054e03          	lbu	t3,0(a0)
 6f8:	fe0e0ae3          	beqz	t3,6ec <strnlen+0x104>
 6fc:	00150793          	addi	a5,a0,1
 700:	f31ff06f          	j	630 <strnlen+0x48>
 704:	00000513          	li	a0,0
 708:	00008067          	ret

000000000000070c <strcmp>:
 70c:	00054783          	lbu	a5,0(a0)
 710:	00158593          	addi	a1,a1,1
 714:	00150513          	addi	a0,a0,1
 718:	fff5c703          	lbu	a4,-1(a1)
 71c:	00078a63          	beqz	a5,730 <strcmp+0x24>
 720:	fee786e3          	beq	a5,a4,70c <strcmp>
 724:	0007851b          	sext.w	a0,a5
 728:	40e5053b          	subw	a0,a0,a4
 72c:	00008067          	ret
 730:	00000513          	li	a0,0
 734:	ff5ff06f          	j	728 <strcmp+0x1c>

0000000000000738 <strcpy>:
 738:	00050793          	mv	a5,a0
 73c:	0005c703          	lbu	a4,0(a1)
 740:	00178793          	addi	a5,a5,1
 744:	00158593          	addi	a1,a1,1
 748:	fee78fa3          	sb	a4,-1(a5)
 74c:	fe0718e3          	bnez	a4,73c <strcpy+0x4>
 750:	00008067          	ret

0000000000000754 <atol>:
 754:	00054703          	lbu	a4,0(a0)
 758:	02000693          	li	a3,32
 75c:	00050793          	mv	a5,a0
 760:	00d71863          	bne	a4,a3,770 <atol+0x1c>
 764:	0017c703          	lbu	a4,1(a5)
 768:	00178793          	addi	a5,a5,1
 76c:	fed70ce3          	beq	a4,a3,764 <atol+0x10>
 770:	02d00293          	li	t0,45
 774:	06570063          	beq	a4,t0,7d4 <atol+0x80>
 778:	02b00313          	li	t1,43
 77c:	04670063          	beq	a4,t1,7bc <atol+0x68>
 780:	0007c383          	lbu	t2,0(a5)
 784:	00000593          	li	a1,0
 788:	04038263          	beqz	t2,7cc <atol+0x78>
 78c:	00000513          	li	a0,0
 790:	00178793          	addi	a5,a5,1
 794:	fd03861b          	addiw	a2,t2,-48
 798:	00251813          	slli	a6,a0,0x2
 79c:	0007c383          	lbu	t2,0(a5)
 7a0:	00a80533          	add	a0,a6,a0
 7a4:	00151893          	slli	a7,a0,0x1
 7a8:	01160533          	add	a0,a2,a7
 7ac:	fe0392e3          	bnez	t2,790 <atol+0x3c>
 7b0:	02058063          	beqz	a1,7d0 <atol+0x7c>
 7b4:	40a00533          	neg	a0,a0
 7b8:	00008067          	ret
 7bc:	0017c383          	lbu	t2,1(a5)
 7c0:	00000593          	li	a1,0
 7c4:	00178793          	addi	a5,a5,1
 7c8:	fc0392e3          	bnez	t2,78c <atol+0x38>
 7cc:	00000513          	li	a0,0
 7d0:	00008067          	ret
 7d4:	0017c383          	lbu	t2,1(a5)
 7d8:	00100593          	li	a1,1
 7dc:	00178793          	addi	a5,a5,1
 7e0:	fa0396e3          	bnez	t2,78c <atol+0x38>
 7e4:	00000513          	li	a0,0
 7e8:	fe9ff06f          	j	7d0 <atol+0x7c>

00000000000007ec <main>:
 7ec:	fffff7b7          	lui	a5,0xfffff
 7f0:	00001737          	lui	a4,0x1
 7f4:	81010113          	addi	sp,sp,-2032
 7f8:	06078293          	addi	t0,a5,96 # fffffffffffff060 <STACK+0xffffffffffff9598>
 7fc:	fa070313          	addi	t1,a4,-96 # fa0 <verify_data+0x4b8>
 800:	7d313823          	sd	s3,2000(sp)
 804:	7e813423          	sd	s0,2024(sp)
 808:	7e913023          	sd	s1,2016(sp)
 80c:	7d213c23          	sd	s2,2008(sp)
 810:	7d413423          	sd	s4,1992(sp)
 814:	7d513023          	sd	s5,1984(sp)
 818:	005303b3          	add	t2,t1,t0
 81c:	82010113          	addi	sp,sp,-2016
 820:	002387b3          	add	a5,t2,sp
 824:	00002717          	auipc	a4,0x2
 828:	20470713          	addi	a4,a4,516 # 2a28 <input1_data>
 82c:	00001617          	auipc	a2,0x1
 830:	25c60613          	addi	a2,a2,604 # 1a88 <input2_data>
 834:	00003997          	auipc	s3,0x3
 838:	19498993          	addi	s3,s3,404 # 39c8 <input1_data+0xfa0>
 83c:	00078693          	mv	a3,a5
 840:	00062f03          	lw	t5,0(a2)
 844:	00472a03          	lw	s4,4(a4)
 848:	00462e83          	lw	t4,4(a2)
 84c:	00872903          	lw	s2,8(a4)
 850:	00862e03          	lw	t3,8(a2)
 854:	00c72483          	lw	s1,12(a4)
 858:	00c62303          	lw	t1,12(a2)
 85c:	00072a83          	lw	s5,0(a4)
 860:	01072403          	lw	s0,16(a4)
 864:	01062883          	lw	a7,16(a2)
 868:	01472383          	lw	t2,20(a4)
 86c:	01462803          	lw	a6,20(a2)
 870:	01872283          	lw	t0,24(a4)
 874:	01862503          	lw	a0,24(a2)
 878:	01c72f83          	lw	t6,28(a4)
 87c:	01c62583          	lw	a1,28(a2)
 880:	015f0abb          	addw	s5,t5,s5
 884:	014e8f3b          	addw	t5,t4,s4
 888:	012e0a3b          	addw	s4,t3,s2
 88c:	00930ebb          	addw	t4,t1,s1
 890:	0088893b          	addw	s2,a7,s0
 894:	00780e3b          	addw	t3,a6,t2
 898:	005504bb          	addw	s1,a0,t0
 89c:	01f5833b          	addw	t1,a1,t6
 8a0:	0156a023          	sw	s5,0(a3)
 8a4:	01e6a223          	sw	t5,4(a3)
 8a8:	0146a423          	sw	s4,8(a3)
 8ac:	01d6a623          	sw	t4,12(a3)
 8b0:	0126a823          	sw	s2,16(a3)
 8b4:	01c6aa23          	sw	t3,20(a3)
 8b8:	0096ac23          	sw	s1,24(a3)
 8bc:	0066ae23          	sw	t1,28(a3)
 8c0:	02070713          	addi	a4,a4,32
 8c4:	02060613          	addi	a2,a2,32
 8c8:	02068693          	addi	a3,a3,32
 8cc:	f7371ae3          	bne	a4,s3,840 <main+0x54>
 8d0:	00000717          	auipc	a4,0x0
 8d4:	21870713          	addi	a4,a4,536 # ae8 <verify_data>
 8d8:	00000513          	li	a0,0
 8dc:	3e800993          	li	s3,1000
 8e0:	0007a883          	lw	a7,0(a5)
 8e4:	00072383          	lw	t2,0(a4)
 8e8:	0047a283          	lw	t0,4(a5)
 8ec:	00472803          	lw	a6,4(a4)
 8f0:	00028f9b          	sext.w	t6,t0
 8f4:	0d139663          	bne	t2,a7,9c0 <main+0x1d4>
 8f8:	0025051b          	addiw	a0,a0,2
 8fc:	0b0f9063          	bne	t6,a6,99c <main+0x1b0>
 900:	0087aa83          	lw	s5,8(a5)
 904:	00872583          	lw	a1,8(a4)
 908:	00c7af03          	lw	t5,12(a5)
 90c:	00c72a03          	lw	s4,12(a4)
 910:	00878e93          	addi	t4,a5,8
 914:	00870913          	addi	s2,a4,8
 918:	000f0e1b          	sext.w	t3,t5
 91c:	0b559263          	bne	a1,s5,9c0 <main+0x1d4>
 920:	0025051b          	addiw	a0,a0,2
 924:	074e1c63          	bne	t3,s4,99c <main+0x1b0>
 928:	0107a483          	lw	s1,16(a5)
 92c:	01072303          	lw	t1,16(a4)
 930:	0147a603          	lw	a2,20(a5)
 934:	01472883          	lw	a7,20(a4)
 938:	0006069b          	sext.w	a3,a2
 93c:	08931263          	bne	t1,s1,9c0 <main+0x1d4>
 940:	0025051b          	addiw	a0,a0,2
 944:	05169c63          	bne	a3,a7,99c <main+0x1b0>
 948:	0187a383          	lw	t2,24(a5)
 94c:	01872283          	lw	t0,24(a4)
 950:	01c7af83          	lw	t6,28(a5)
 954:	01c72803          	lw	a6,28(a4)
 958:	000f8a9b          	sext.w	s5,t6
 95c:	06729263          	bne	t0,t2,9c0 <main+0x1d4>
 960:	0025051b          	addiw	a0,a0,2
 964:	030a9c63          	bne	s5,a6,99c <main+0x1b0>
 968:	0207a583          	lw	a1,32(a5)
 96c:	02072f03          	lw	t5,32(a4)
 970:	0247a783          	lw	a5,36(a5)
 974:	02472703          	lw	a4,36(a4)
 978:	00078a1b          	sext.w	s4,a5
 97c:	04bf1263          	bne	t5,a1,9c0 <main+0x1d4>
 980:	0025051b          	addiw	a0,a0,2
 984:	00ea1c63          	bne	s4,a4,99c <main+0x1b0>
 988:	020e8793          	addi	a5,t4,32
 98c:	02090713          	addi	a4,s2,32
 990:	f53518e3          	bne	a0,s3,8e0 <main+0xf4>
 994:	00bc6537          	lui	a0,0xbc6
 998:	14e50513          	addi	a0,a0,334 # bc614e <STACK+0xbc0686>
 99c:	7e010113          	addi	sp,sp,2016
 9a0:	7e813403          	ld	s0,2024(sp)
 9a4:	7e013483          	ld	s1,2016(sp)
 9a8:	7d813903          	ld	s2,2008(sp)
 9ac:	7d013983          	ld	s3,2000(sp)
 9b0:	7c813a03          	ld	s4,1992(sp)
 9b4:	7c013a83          	ld	s5,1984(sp)
 9b8:	7f010113          	addi	sp,sp,2032
 9bc:	00008067          	ret
 9c0:	0015051b          	addiw	a0,a0,1
 9c4:	fd9ff06f          	j	99c <main+0x1b0>

00000000000009c8 <end>:
 9c8:	00000013          	nop
 9cc:	00000013          	nop
 9d0:	00000013          	nop
 9d4:	00000013          	nop
 9d8:	00000013          	nop
 9dc:	00000013          	nop

00000000000009e0 <_last>:
 9e0:	fe9ff06f          	j	9c8 <end>

Disassembly of section .data:

0000000000000ae8 <verify_data>:
     ae8:	000001ef          	jal	gp,ae8 <verify_data>
     aec:	0490                	addi	a2,sp,576
     aee:	0000                	unimp
     af0:	0235                	addi	tp,tp,13
     af2:	0000                	unimp
     af4:	0498                	addi	a4,sp,576
     af6:	0000                	unimp
     af8:	045a                	slli	s0,s0,0x16
     afa:	0000                	unimp
     afc:	039a                	slli	t2,t2,0x6
     afe:	0000                	unimp
     b00:	00c4                	addi	s1,sp,68
     b02:	0000                	unimp
     b04:	044e                	slli	s0,s0,0x13
     b06:	0000                	unimp
     b08:	0320                	addi	s0,sp,392
     b0a:	0000                	unimp
     b0c:	03b1                	addi	t2,t2,12
     b0e:	0000                	unimp
     b10:	0000033f 00000242 	0x2420000033f
     b18:	04f6                	slli	s1,s1,0x1d
     b1a:	0000                	unimp
     b1c:	000005cb          	fnmsub.s	fa1,ft0,ft0,ft0,rne
     b20:	050a                	slli	a0,a0,0x2
     b22:	0000                	unimp
     b24:	039a                	slli	t2,t2,0x6
     b26:	0000                	unimp
     b28:	03cd                	addi	t2,t2,19
     b2a:	0000                	unimp
     b2c:	03e1                	addi	t2,t2,24
     b2e:	0000                	unimp
     b30:	0362                	slli	t1,t1,0x18
     b32:	0000                	unimp
     b34:	03ae                	slli	t2,t2,0xb
     b36:	0000                	unimp
     b38:	039e                	slli	t2,t2,0x7
     b3a:	0000                	unimp
     b3c:	02ee                	slli	t0,t0,0x1b
     b3e:	0000                	unimp
     b40:	0550                	addi	a2,sp,644
     b42:	0000                	unimp
     b44:	0632                	slli	a2,a2,0xc
     b46:	0000                	unimp
     b48:	0514                	addi	a3,sp,640
     b4a:	0000                	unimp
     b4c:	033c                	addi	a5,sp,392
     b4e:	0000                	unimp
     b50:	00000623          	sb	zero,12(zero) # c <_start+0xc>
     b54:	03ac                	addi	a1,sp,456
     b56:	0000                	unimp
     b58:	02ea                	slli	t0,t0,0x1a
     b5a:	0000                	unimp
     b5c:	04ac                	addi	a1,sp,584
     b5e:	0000                	unimp
     b60:	04a2                	slli	s1,s1,0x8
     b62:	0000                	unimp
     b64:	0436                	slli	s0,s0,0xd
     b66:	0000                	unimp
     b68:	00000123          	sb	zero,2(zero) # 2 <_start+0x2>
     b6c:	000003d7          	0x3d7
     b70:	0594                	addi	a3,sp,704
     b72:	0000                	unimp
     b74:	03d5                	addi	t2,t2,21
     b76:	0000                	unimp
     b78:	0426                	slli	s0,s0,0x9
     b7a:	0000                	unimp
     b7c:	0639                	addi	a2,a2,14
     b7e:	0000                	unimp
     b80:	00000313          	li	t1,0
     b84:	028a                	slli	t0,t0,0x2
     b86:	0000                	unimp
     b88:	000004c3          	fmadd.s	fs1,ft0,ft0,ft0,rne
     b8c:	0405                	addi	s0,s0,1
     b8e:	0000                	unimp
     b90:	0399                	addi	t2,t2,6
     b92:	0000                	unimp
     b94:	00000633          	add	a2,zero,zero
     b98:	04f6                	slli	s1,s1,0x1d
     b9a:	0000                	unimp
     b9c:	02da                	slli	t0,t0,0x16
     b9e:	0000                	unimp
     ba0:	04d9                	addi	s1,s1,22
     ba2:	0000                	unimp
     ba4:	00000473          	0x473
     ba8:	05f5                	addi	a1,a1,29
     baa:	0000                	unimp
     bac:	055d                	addi	a0,a0,23
     bae:	0000                	unimp
     bb0:	02e2                	slli	t0,t0,0x18
     bb2:	0000                	unimp
     bb4:	0649                	addi	a2,a2,18
     bb6:	0000                	unimp
     bb8:	0609                	addi	a2,a2,2
     bba:	0000                	unimp
     bbc:	00000543          	fmadd.s	fa0,ft0,ft0,ft0,rne
     bc0:	000005b7          	lui	a1,0x0
     bc4:	02e0                	addi	s0,sp,332
     bc6:	0000                	unimp
     bc8:	0185                	addi	gp,gp,1
     bca:	0000                	unimp
     bcc:	0455                	addi	s0,s0,21
     bce:	0000                	unimp
     bd0:	05d0                	addi	a2,sp,708
     bd2:	0000                	unimp
     bd4:	0390                	addi	a2,sp,448
     bd6:	0000                	unimp
     bd8:	03e0                	addi	s0,sp,460
     bda:	0000                	unimp
     bdc:	0542                	slli	a0,a0,0x10
     bde:	0000                	unimp
     be0:	018a                	slli	gp,gp,0x2
     be2:	0000                	unimp
     be4:	0654                	addi	a3,sp,772
     be6:	0000                	unimp
     be8:	0524                	addi	s1,sp,648
     bea:	0000                	unimp
     bec:	000002a7          	0x2a7
     bf0:	045a                	slli	s0,s0,0x16
     bf2:	0000                	unimp
     bf4:	0000068f          	0x68f
     bf8:	02fd                	addi	t0,t0,31
     bfa:	0000                	unimp
     bfc:	02df 0000 0242      	0x242000002df
     c02:	0000                	unimp
     c04:	00000553          	fadd.s	fa0,ft0,ft0,rne
     c08:	0448                	addi	a0,sp,516
     c0a:	0000                	unimp
     c0c:	027e                	slli	tp,tp,0x1f
     c0e:	0000                	unimp
     c10:	02e4                	addi	s1,sp,332
     c12:	0000                	unimp
     c14:	03ee                	slli	t2,t2,0x1b
     c16:	0000                	unimp
     c18:	0510                	addi	a2,sp,640
     c1a:	0000                	unimp
     c1c:	0000018b          	0x18b
     c20:	0000023f 000005c5 	0x5c50000023f
     c28:	03a6                	slli	t2,t2,0x9
     c2a:	0000                	unimp
     c2c:	0120                	addi	s0,sp,136
     c2e:	0000                	unimp
     c30:	0476                	slli	s0,s0,0x1d
     c32:	0000                	unimp
     c34:	037f                	0x37f
     c36:	0000                	unimp
     c38:	04a1                	addi	s1,s1,8
     c3a:	0000                	unimp
     c3c:	0480                	addi	s0,sp,576
     c3e:	0000                	unimp
     c40:	00000497          	auipc	s1,0x0
     c44:	040c                	addi	a1,sp,512
     c46:	0000                	unimp
     c48:	0458                	addi	a4,sp,516
     c4a:	0000                	unimp
     c4c:	01c2                	slli	gp,gp,0x10
     c4e:	0000                	unimp
     c50:	0625                	addi	a2,a2,9
     c52:	0000                	unimp
     c54:	014d                	addi	sp,sp,19
     c56:	0000                	unimp
     c58:	072e                	slli	a4,a4,0xb
     c5a:	0000                	unimp
     c5c:	000004a7          	0x4a7
     c60:	036d                	addi	t1,t1,27
     c62:	0000                	unimp
     c64:	000002e3          	beqz	zero,1468 <verify_data+0x980>
     c68:	03fc                	addi	a5,sp,460
     c6a:	0000                	unimp
     c6c:	047d                	addi	s0,s0,31
     c6e:	0000                	unimp
     c70:	046d                	addi	s0,s0,27
     c72:	0000                	unimp
     c74:	0000024b          	fnmsub.s	ft4,ft0,ft0,ft0,rne
     c78:	05b6                	slli	a1,a1,0xd
     c7a:	0000                	unimp
     c7c:	053a                	slli	a0,a0,0xe
     c7e:	0000                	unimp
     c80:	024d                	addi	tp,tp,19
     c82:	0000                	unimp
     c84:	0158                	addi	a4,sp,132
     c86:	0000                	unimp
     c88:	0364                	addi	s1,sp,396
     c8a:	0000                	unimp
     c8c:	05da                	slli	a1,a1,0x16
     c8e:	0000                	unimp
     c90:	0584                	addi	s1,sp,704
     c92:	0000                	unimp
     c94:	054c                	addi	a1,sp,644
     c96:	0000                	unimp
     c98:	05c6                	slli	a1,a1,0x11
     c9a:	0000                	unimp
     c9c:	000004cb          	fnmsub.s	fs1,ft0,ft0,ft0,rne
     ca0:	03ed                	addi	t2,t2,27
     ca2:	0000                	unimp
     ca4:	00000733          	add	a4,zero,zero
     ca8:	03b9                	addi	t2,t2,14
     caa:	0000                	unimp
     cac:	0215                	addi	tp,tp,5
     cae:	0000                	unimp
     cb0:	025e                	slli	tp,tp,0x17
     cb2:	0000                	unimp
     cb4:	03bc                	addi	a5,sp,456
     cb6:	0000                	unimp
     cb8:	03b4                	addi	a3,sp,456
     cba:	0000                	unimp
     cbc:	0371                	addi	t1,t1,28
     cbe:	0000                	unimp
     cc0:	0288                	addi	a0,sp,320
     cc2:	0000                	unimp
     cc4:	050c                	addi	a1,sp,640
     cc6:	0000                	unimp
     cc8:	030a                	slli	t1,t1,0x2
     cca:	0000                	unimp
     ccc:	0121                	addi	sp,sp,8
     cce:	0000                	unimp
     cd0:	0339                	addi	t1,t1,14
     cd2:	0000                	unimp
     cd4:	0475                	addi	s0,s0,29
     cd6:	0000                	unimp
     cd8:	0456                	slli	s0,s0,0x15
     cda:	0000                	unimp
     cdc:	02d4                	addi	a3,sp,324
     cde:	0000                	unimp
     ce0:	03da                	slli	t2,t2,0x16
     ce2:	0000                	unimp
     ce4:	02b9                	addi	t0,t0,14
     ce6:	0000                	unimp
     ce8:	075a                	slli	a4,a4,0x16
     cea:	0000                	unimp
     cec:	0376                	slli	t1,t1,0x1d
     cee:	0000                	unimp
     cf0:	06ff                	0x6ff
     cf2:	0000                	unimp
     cf4:	06e9                	addi	a3,a3,26
     cf6:	0000                	unimp
     cf8:	0000024f          	fnmadd.s	ft4,ft0,ft0,ft0,rne
     cfc:	0616                	slli	a2,a2,0x5
     cfe:	0000                	unimp
     d00:	0674                	addi	a3,sp,780
     d02:	0000                	unimp
     d04:	00000343          	fmadd.s	ft6,ft0,ft0,ft0,rne
     d08:	02ce                	slli	t0,t0,0x13
     d0a:	0000                	unimp
     d0c:	0382                	c.slli64	t2
     d0e:	0000                	unimp
     d10:	00000297          	auipc	t0,0x0
     d14:	00000387          	0x387
     d18:	00000573          	0x573
     d1c:	0206                	slli	tp,tp,0x1
     d1e:	0000                	unimp
     d20:	048a                	slli	s1,s1,0x2
     d22:	0000                	unimp
     d24:	01b6                	slli	gp,gp,0xd
     d26:	0000                	unimp
     d28:	018d                	addi	gp,gp,3
     d2a:	0000                	unimp
     d2c:	0304                	addi	s1,sp,384
     d2e:	0000                	unimp
     d30:	0486                	slli	s1,s1,0x1
     d32:	0000                	unimp
     d34:	020d                	addi	tp,tp,3
     d36:	0000                	unimp
     d38:	04e2                	slli	s1,s1,0x18
     d3a:	0000                	unimp
     d3c:	05f1                	addi	a1,a1,28
     d3e:	0000                	unimp
     d40:	046e                	slli	s0,s0,0x1b
     d42:	0000                	unimp
     d44:	0265                	addi	tp,tp,25
     d46:	0000                	unimp
     d48:	028a                	slli	t0,t0,0x2
     d4a:	0000                	unimp
     d4c:	00000247          	fmsub.s	ft4,ft0,ft0,ft0,rne
     d50:	02d8                	addi	a4,sp,324
     d52:	0000                	unimp
     d54:	020c                	addi	a1,sp,256
     d56:	0000                	unimp
     d58:	0000056f          	jal	a0,d58 <verify_data+0x270>
     d5c:	04fe                	slli	s1,s1,0x1f
     d5e:	0000                	unimp
     d60:	01c9                	addi	gp,gp,18
     d62:	0000                	unimp
     d64:	0000038b          	0x38b
     d68:	034d                	addi	t1,t1,19
     d6a:	0000                	unimp
     d6c:	0379                	addi	t1,t1,30
     d6e:	0000                	unimp
     d70:	03c5                	addi	t2,t2,17
     d72:	0000                	unimp
     d74:	0428                	addi	a0,sp,520
     d76:	0000                	unimp
     d78:	056d                	addi	a0,a0,27
     d7a:	0000                	unimp
     d7c:	0000051b          	sext.w	a0,zero
     d80:	0174                	addi	a3,sp,140
     d82:	0000                	unimp
     d84:	0395                	addi	t2,t2,5
     d86:	0000                	unimp
     d88:	00000567          	jalr	a0,zero # 0 <_start>
     d8c:	03c9                	addi	t2,t2,18
     d8e:	0000                	unimp
     d90:	03c1                	addi	t2,t2,16
     d92:	0000                	unimp
     d94:	00000407          	0x407
     d98:	00000433          	add	s0,zero,zero
     d9c:	0430                	addi	a2,sp,520
     d9e:	0000                	unimp
     da0:	0391                	addi	t2,t2,4
     da2:	0000                	unimp
     da4:	0346                	slli	t1,t1,0x11
     da6:	0000                	unimp
     da8:	013a                	slli	sp,sp,0xe
     daa:	0000                	unimp
     dac:	000004a7          	0x4a7
     db0:	00000347          	fmsub.s	ft6,ft0,ft0,ft0,rne
     db4:	067e                	slli	a2,a2,0x1f
     db6:	0000                	unimp
     db8:	04a0                	addi	s0,sp,584
     dba:	0000                	unimp
     dbc:	0696                	slli	a3,a3,0x5
     dbe:	0000                	unimp
     dc0:	02bc                	addi	a5,sp,328
     dc2:	0000                	unimp
     dc4:	0739                	addi	a4,a4,14
     dc6:	0000                	unimp
     dc8:	05e5                	addi	a1,a1,25
     dca:	0000                	unimp
     dcc:	0342                	slli	t1,t1,0x10
     dce:	0000                	unimp
     dd0:	00000097          	auipc	ra,0x0
     dd4:	040e                	slli	s0,s0,0x3
     dd6:	0000                	unimp
     dd8:	0304                	addi	s1,sp,384
     dda:	0000                	unimp
     ddc:	00ff                	0xff
     dde:	0000                	unimp
     de0:	01f6                	slli	gp,gp,0x1d
     de2:	0000                	unimp
     de4:	02ed                	addi	t0,t0,27
     de6:	0000                	unimp
     de8:	04d5                	addi	s1,s1,21
     dea:	0000                	unimp
     dec:	0434                	addi	a3,sp,520
     dee:	0000                	unimp
     df0:	0170                	addi	a2,sp,140
     df2:	0000                	unimp
     df4:	0000023b          	addw	tp,zero,zero
     df8:	000003fb          	0x3fb
     dfc:	0164                	addi	s1,sp,140
     dfe:	0000                	unimp
     e00:	0628                	addi	a0,sp,776
     e02:	0000                	unimp
     e04:	02c0                	addi	s0,sp,324
     e06:	0000                	unimp
     e08:	05ae                	slli	a1,a1,0xb
     e0a:	0000                	unimp
     e0c:	05c0                	addi	s0,sp,708
     e0e:	0000                	unimp
     e10:	0490                	addi	a2,sp,576
     e12:	0000                	unimp
     e14:	0470                	addi	a2,sp,524
     e16:	0000                	unimp
     e18:	05c6                	slli	a1,a1,0x11
     e1a:	0000                	unimp
     e1c:	000002b7          	lui	t0,0x0
     e20:	00d1                	addi	ra,ra,20
     e22:	0000                	unimp
     e24:	022c                	addi	a1,sp,264
     e26:	0000                	unimp
     e28:	02a0                	addi	s0,sp,328
     e2a:	0000                	unimp
     e2c:	029e                	slli	t0,t0,0x7
     e2e:	0000                	unimp
     e30:	000006bf 000003f7 	0x3f7000006bf
     e38:	0569                	addi	a0,a0,26
     e3a:	0000                	unimp
     e3c:	01c6                	slli	gp,gp,0x11
     e3e:	0000                	unimp
     e40:	01b0                	addi	a2,sp,200
     e42:	0000                	unimp
     e44:	0224                	addi	s1,sp,264
     e46:	0000                	unimp
     e48:	000006ab          	0x6ab
     e4c:	0280                	addi	s0,sp,320
     e4e:	0000                	unimp
     e50:	02dd                	addi	t0,t0,23
     e52:	0000                	unimp
     e54:	04e9                	addi	s1,s1,26
     e56:	0000                	unimp
     e58:	043c                	addi	a5,sp,520
     e5a:	0000                	unimp
     e5c:	00000543          	fmadd.s	fa0,ft0,ft0,ft0,rne
     e60:	056d                	addi	a0,a0,27
     e62:	0000                	unimp
     e64:	00000377          	0x377
     e68:	000004b3          	add	s1,zero,zero
     e6c:	04ad                	addi	s1,s1,11
     e6e:	0000                	unimp
     e70:	0146                	slli	sp,sp,0x11
     e72:	0000                	unimp
     e74:	0299                	addi	t0,t0,6
     e76:	0000                	unimp
     e78:	0000049b          	sext.w	s1,zero
     e7c:	03a0                	addi	s0,sp,456
     e7e:	0000                	unimp
     e80:	0506                	slli	a0,a0,0x1
     e82:	0000                	unimp
     e84:	00000407          	0x407
     e88:	0000049b          	sext.w	s1,zero
     e8c:	005d                	c.nop	23
     e8e:	0000                	unimp
     e90:	02ad                	addi	t0,t0,11
     e92:	0000                	unimp
     e94:	000003e3          	beqz	zero,169a <verify_data+0xbb2>
     e98:	01ec                	addi	a1,sp,204
     e9a:	0000                	unimp
     e9c:	047e                	slli	s0,s0,0x1f
     e9e:	0000                	unimp
     ea0:	00000197          	auipc	gp,0x0
     ea4:	045a                	slli	s0,s0,0x16
     ea6:	0000                	unimp
     ea8:	000005f3          	0x5f3
     eac:	01b1                	addi	gp,gp,12
     eae:	0000                	unimp
     eb0:	05b8                	addi	a4,sp,712
     eb2:	0000                	unimp
     eb4:	00000233          	add	tp,zero,zero
     eb8:	00000573          	0x573
     ebc:	02d2                	slli	t0,t0,0x14
     ebe:	0000                	unimp
     ec0:	047a                	slli	s0,s0,0x1e
     ec2:	0000                	unimp
     ec4:	056a                	slli	a0,a0,0x1a
     ec6:	0000                	unimp
     ec8:	02cc                	addi	a1,sp,324
     eca:	0000                	unimp
     ecc:	06b1                	addi	a3,a3,12
     ece:	0000                	unimp
     ed0:	0702                	c.slli64	a4
     ed2:	0000                	unimp
     ed4:	0375                	addi	t1,t1,29
     ed6:	0000                	unimp
     ed8:	0281                	addi	t0,t0,0
     eda:	0000                	unimp
     edc:	010a                	slli	sp,sp,0x2
     ede:	0000                	unimp
     ee0:	05f9                	addi	a1,a1,30
     ee2:	0000                	unimp
     ee4:	00000443          	fmadd.s	fs0,ft0,ft0,ft0,rne
     ee8:	0278                	addi	a4,sp,268
     eea:	0000                	unimp
     eec:	04dc                	addi	a5,sp,580
     eee:	0000                	unimp
     ef0:	0415                	addi	s0,s0,5
     ef2:	0000                	unimp
     ef4:	05df 0000 04c7      	0x4c7000005df
     efa:	0000                	unimp
     efc:	0000032b          	0x32b
     f00:	0000048f          	0x48f
     f04:	0000028f          	0x28f
     f08:	02fc                	addi	a5,sp,332
     f0a:	0000                	unimp
     f0c:	04c1                	addi	s1,s1,16
     f0e:	0000                	unimp
     f10:	005e                	c.slli	zero,0x17
     f12:	0000                	unimp
     f14:	028a                	slli	t0,t0,0x2
     f16:	0000                	unimp
     f18:	01a2                	slli	gp,gp,0x8
     f1a:	0000                	unimp
     f1c:	0289                	addi	t0,t0,2
     f1e:	0000                	unimp
     f20:	045c                	addi	a5,sp,516
     f22:	0000                	unimp
     f24:	00000647          	fmsub.s	fa2,ft0,ft0,ft0,rne
     f28:	000002bb          	addw	t0,zero,zero
     f2c:	000004c3          	fmadd.s	fs1,ft0,ft0,ft0,rne
     f30:	04f5                	addi	s1,s1,29
     f32:	0000                	unimp
     f34:	0379                	addi	t1,t1,30
     f36:	0000                	unimp
     f38:	00000213          	li	tp,0
     f3c:	0426                	slli	s0,s0,0x9
     f3e:	0000                	unimp
     f40:	063e                	slli	a2,a2,0xf
     f42:	0000                	unimp
     f44:	045e                	slli	s0,s0,0x17
     f46:	0000                	unimp
     f48:	049a                	slli	s1,s1,0x6
     f4a:	0000                	unimp
     f4c:	05a0                	addi	s0,sp,712
     f4e:	0000                	unimp
     f50:	02d2                	slli	t0,t0,0x14
     f52:	0000                	unimp
     f54:	0576                	slli	a0,a0,0x1d
     f56:	0000                	unimp
     f58:	01df 0000 03c1      	0x3c1000001df
     f5e:	0000                	unimp
     f60:	00000423          	sb	zero,8(zero) # 8 <_start+0x8>
     f64:	00000227          	0x227
     f68:	0245                	addi	tp,tp,17
     f6a:	0000                	unimp
     f6c:	0172                	slli	sp,sp,0x1c
     f6e:	0000                	unimp
     f70:	0186                	slli	gp,gp,0x1
     f72:	0000                	unimp
     f74:	0405                	addi	s0,s0,1
     f76:	0000                	unimp
     f78:	0300                	addi	s0,sp,384
     f7a:	0000                	unimp
     f7c:	03b1                	addi	t2,t2,12
     f7e:	0000                	unimp
     f80:	05d4                	addi	a3,sp,708
     f82:	0000                	unimp
     f84:	03ad                	addi	t2,t2,11
     f86:	0000                	unimp
     f88:	049a                	slli	s1,s1,0x6
     f8a:	0000                	unimp
     f8c:	04cd                	addi	s1,s1,19
     f8e:	0000                	unimp
     f90:	00000137          	lui	sp,0x0
     f94:	0319                	addi	t1,t1,6
     f96:	0000                	unimp
     f98:	000003c3          	fmadd.s	ft7,ft0,ft0,ft0,rne
     f9c:	032e                	slli	t1,t1,0xb
     f9e:	0000                	unimp
     fa0:	020a                	slli	tp,tp,0x2
     fa2:	0000                	unimp
     fa4:	0000030b          	0x30b
     fa8:	000003cb          	fnmsub.s	ft7,ft0,ft0,ft0,rne
     fac:	03ae                	slli	t2,t2,0xb
     fae:	0000                	unimp
     fb0:	01d0                	addi	a2,sp,196
     fb2:	0000                	unimp
     fb4:	0000039b          	sext.w	t2,zero
     fb8:	000004db          	0x4db
     fbc:	0424                	addi	s1,sp,520
     fbe:	0000                	unimp
     fc0:	00c1                	addi	ra,ra,16
     fc2:	0000                	unimp
     fc4:	0016                	c.slli	zero,0x5
     fc6:	0000                	unimp
     fc8:	000005b7          	lui	a1,0x0
     fcc:	00000383          	lb	t2,0(zero) # 0 <_start>
     fd0:	00000367          	jalr	t1,zero # 0 <_start>
     fd4:	0494                	addi	a3,sp,576
     fd6:	0000                	unimp
     fd8:	044d                	addi	s0,s0,19
     fda:	0000                	unimp
     fdc:	0546                	slli	a0,a0,0x11
     fde:	0000                	unimp
     fe0:	0000039b          	sext.w	t2,zero
     fe4:	02bd                	addi	t0,t0,15
     fe6:	0000                	unimp
     fe8:	04b9                	addi	s1,s1,14
     fea:	0000                	unimp
     fec:	0000050b          	0x50b
     ff0:	047a                	slli	s0,s0,0x1e
     ff2:	0000                	unimp
     ff4:	01dd                	addi	gp,gp,23
     ff6:	0000                	unimp
     ff8:	0330                	addi	a2,sp,392
     ffa:	0000                	unimp
     ffc:	05f5                	addi	a1,a1,29
     ffe:	0000                	unimp
    1000:	0000063b          	addw	a2,zero,zero
    1004:	00000423          	sb	zero,8(zero) # 8 <_start+0x8>
    1008:	000001cb          	fnmsub.s	ft3,ft0,ft0,ft0,rne
    100c:	050a                	slli	a0,a0,0x2
    100e:	0000                	unimp
    1010:	00e5                	addi	ra,ra,25
    1012:	0000                	unimp
    1014:	0282                	c.slli64	t0
    1016:	0000                	unimp
    1018:	02de                	slli	t0,t0,0x17
    101a:	0000                	unimp
    101c:	00a2                	slli	ra,ra,0x8
    101e:	0000                	unimp
    1020:	000004c7          	fmsub.s	fs1,ft0,ft0,ft0,rne
    1024:	062a                	slli	a2,a2,0xa
    1026:	0000                	unimp
    1028:	000002e3          	beqz	zero,182c <verify_data+0xd44>
    102c:	073d                	addi	a4,a4,15
    102e:	0000                	unimp
    1030:	05d5                	addi	a1,a1,21
    1032:	0000                	unimp
    1034:	04b5                	addi	s1,s1,13
    1036:	0000                	unimp
    1038:	03da                	slli	t2,t2,0x16
    103a:	0000                	unimp
    103c:	00b0                	addi	a2,sp,72
    103e:	0000                	unimp
    1040:	04a2                	slli	s1,s1,0x8
    1042:	0000                	unimp
    1044:	0340                	addi	s0,sp,388
    1046:	0000                	unimp
    1048:	02d4                	addi	a3,sp,324
    104a:	0000                	unimp
    104c:	057e                	slli	a0,a0,0x1f
    104e:	0000                	unimp
    1050:	000003bf 0000045b 	0x45b000003bf
    1058:	02c8                	addi	a0,sp,324
    105a:	0000                	unimp
    105c:	021d                	addi	tp,tp,7
    105e:	0000                	unimp
    1060:	05b4                	addi	a3,sp,712
    1062:	0000                	unimp
    1064:	05f8                	addi	a4,sp,716
    1066:	0000                	unimp
    1068:	000004b3          	add	s1,zero,zero
    106c:	04b5                	addi	s1,s1,13
    106e:	0000                	unimp
    1070:	031f 0000 017b      	0x17b0000031f
    1076:	0000                	unimp
    1078:	00000557          	0x557
    107c:	0648                	addi	a0,sp,772
    107e:	0000                	unimp
    1080:	00000347          	fmsub.s	ft6,ft0,ft0,ft0,rne
    1084:	000002a7          	0x2a7
    1088:	05e2                	slli	a1,a1,0x18
    108a:	0000                	unimp
    108c:	0279                	addi	tp,tp,30
    108e:	0000                	unimp
    1090:	0361                	addi	t1,t1,24
    1092:	0000                	unimp
    1094:	0146                	slli	sp,sp,0x11
    1096:	0000                	unimp
    1098:	00da                	slli	ra,ra,0x16
    109a:	0000                	unimp
    109c:	0000042f          	0x42f
    10a0:	023c                	addi	a5,sp,264
    10a2:	0000                	unimp
    10a4:	00f2                	slli	ra,ra,0x1c
    10a6:	0000                	unimp
    10a8:	04b4                	addi	a3,sp,584
    10aa:	0000                	unimp
    10ac:	00c9                	addi	ra,ra,18
    10ae:	0000                	unimp
    10b0:	000005a7          	0x5a7
    10b4:	0666                	slli	a2,a2,0x19
    10b6:	0000                	unimp
    10b8:	0630                	addi	a2,sp,776
    10ba:	0000                	unimp
    10bc:	00000437          	lui	s0,0x0
    10c0:	0196                	slli	gp,gp,0x5
    10c2:	0000                	unimp
    10c4:	00c6                	slli	ra,ra,0x11
    10c6:	0000                	unimp
    10c8:	01b8                	addi	a4,sp,200
    10ca:	0000                	unimp
    10cc:	0000060f          	0x60f
    10d0:	03c5                	addi	t2,t2,17
    10d2:	0000                	unimp
    10d4:	0000031b          	sext.w	t1,zero
    10d8:	03be                	slli	t2,t2,0xf
    10da:	0000                	unimp
    10dc:	022a                	slli	tp,tp,0xa
    10de:	0000                	unimp
    10e0:	000001e7          	jalr	gp,zero # 0 <_start>
    10e4:	0196                	slli	gp,gp,0x5
    10e6:	0000                	unimp
    10e8:	02bd                	addi	t0,t0,15
    10ea:	0000                	unimp
    10ec:	000004b3          	add	s1,zero,zero
    10f0:	00000707          	0x707
    10f4:	0000042f          	0x42f
    10f8:	0219                	addi	tp,tp,6
    10fa:	0000                	unimp
    10fc:	04b2                	slli	s1,s1,0xc
    10fe:	0000                	unimp
    1100:	042a                	slli	s0,s0,0xa
    1102:	0000                	unimp
    1104:	00000487          	0x487
    1108:	0572                	slli	a0,a0,0x1c
    110a:	0000                	unimp
    110c:	053a                	slli	a0,a0,0xe
    110e:	0000                	unimp
    1110:	03f0                	addi	a2,sp,460
    1112:	0000                	unimp
    1114:	02f9                	addi	t0,t0,30
    1116:	0000                	unimp
    1118:	0502                	c.slli64	a0
    111a:	0000                	unimp
    111c:	04f0                	addi	a2,sp,588
    111e:	0000                	unimp
    1120:	000001ef          	jal	gp,1120 <verify_data+0x638>
    1124:	0351                	addi	t1,t1,20
    1126:	0000                	unimp
    1128:	041c                	addi	a5,sp,512
    112a:	0000                	unimp
    112c:	0000018b          	0x18b
    1130:	043e                	slli	s0,s0,0xf
    1132:	0000                	unimp
    1134:	000006cf          	fnmadd.s	fa3,ft0,ft0,ft0,rne
    1138:	0446                	slli	s0,s0,0x11
    113a:	0000                	unimp
    113c:	000005eb          	0x5eb
    1140:	05ad                	addi	a1,a1,11
    1142:	0000                	unimp
    1144:	0000064f          	fnmadd.s	fa2,ft0,ft0,ft0,rne
    1148:	05c5                	addi	a1,a1,17
    114a:	0000                	unimp
    114c:	06c9                	addi	a3,a3,18
    114e:	0000                	unimp
    1150:	020a                	slli	tp,tp,0x2
    1152:	0000                	unimp
    1154:	0000042f          	0x42f
    1158:	0496                	slli	s1,s1,0x5
    115a:	0000                	unimp
    115c:	0610                	addi	a2,sp,768
    115e:	0000                	unimp
    1160:	0371                	addi	t1,t1,28
    1162:	0000                	unimp
    1164:	0000056f          	jal	a0,1164 <verify_data+0x67c>
    1168:	000002d3          	fadd.s	ft5,ft0,ft0,rne
    116c:	0000049b          	sext.w	s1,zero
    1170:	053d                	addi	a0,a0,15
    1172:	0000                	unimp
    1174:	02bd                	addi	t0,t0,15
    1176:	0000                	unimp
    1178:	048c                	addi	a1,sp,576
    117a:	0000                	unimp
    117c:	0366                	slli	t1,t1,0x19
    117e:	0000                	unimp
    1180:	0231                	addi	tp,tp,12
    1182:	0000                	unimp
    1184:	000004db          	0x4db
    1188:	0495                	addi	s1,s1,5
    118a:	0000                	unimp
    118c:	0000027b          	0x27b
    1190:	00000553          	fadd.s	fa0,ft0,ft0,rne
    1194:	040a                	slli	s0,s0,0x2
    1196:	0000                	unimp
    1198:	0489                	addi	s1,s1,2
    119a:	0000                	unimp
    119c:	00000307          	0x307
    11a0:	0348                	addi	a0,sp,388
    11a2:	0000                	unimp
    11a4:	0578                	addi	a4,sp,652
    11a6:	0000                	unimp
    11a8:	0655                	addi	a2,a2,21
    11aa:	0000                	unimp
    11ac:	029c                	addi	a5,sp,320
    11ae:	0000                	unimp
    11b0:	0161                	addi	sp,sp,24
    11b2:	0000                	unimp
    11b4:	058a                	slli	a1,a1,0x2
    11b6:	0000                	unimp
    11b8:	0494                	addi	a3,sp,576
    11ba:	0000                	unimp
    11bc:	00000287          	0x287
    11c0:	019d                	addi	gp,gp,7
    11c2:	0000                	unimp
    11c4:	0000036b          	0x36b
    11c8:	0282                	c.slli64	t0
    11ca:	0000                	unimp
    11cc:	04bc                	addi	a5,sp,584
    11ce:	0000                	unimp
    11d0:	0332                	slli	t1,t1,0xc
    11d2:	0000                	unimp
    11d4:	04ce                	slli	s1,s1,0x13
    11d6:	0000                	unimp
    11d8:	045a                	slli	s0,s0,0x16
    11da:	0000                	unimp
    11dc:	061a                	slli	a2,a2,0x6
    11de:	0000                	unimp
    11e0:	0680                	addi	s0,sp,832
    11e2:	0000                	unimp
    11e4:	0000042b          	0x42b
    11e8:	0065                	c.nop	25
    11ea:	0000                	unimp
    11ec:	04de                	slli	s1,s1,0x17
    11ee:	0000                	unimp
    11f0:	065d                	addi	a2,a2,23
    11f2:	0000                	unimp
    11f4:	000006bf 000003a8 	0x3a8000006bf
    11fc:	033d                	addi	t1,t1,15
    11fe:	0000                	unimp
    1200:	01fe                	slli	gp,gp,0x1f
    1202:	0000                	unimp
    1204:	04e8                	addi	a0,sp,588
    1206:	0000                	unimp
    1208:	0489                	addi	s1,s1,2
    120a:	0000                	unimp
    120c:	0000068f          	0x68f
    1210:	000000c7          	fmsub.s	ft1,ft0,ft0,ft0,rne
    1214:	00000507          	0x507
    1218:	03b0                	addi	a2,sp,456
    121a:	0000                	unimp
    121c:	000001ab          	0x1ab
    1220:	04b2                	slli	s1,s1,0xc
    1222:	0000                	unimp
    1224:	017f                	0x17f
    1226:	0000                	unimp
    1228:	0638                	addi	a4,sp,776
    122a:	0000                	unimp
    122c:	00ee                	slli	ra,ra,0x1b
    122e:	0000                	unimp
    1230:	0194                	addi	a3,sp,192
    1232:	0000                	unimp
    1234:	04a6                	slli	s1,s1,0x9
    1236:	0000                	unimp
    1238:	03a9                	addi	t2,t2,10
    123a:	0000                	unimp
    123c:	0380                	addi	s0,sp,448
    123e:	0000                	unimp
    1240:	00000423          	sb	zero,8(zero) # 8 <_start+0x8>
    1244:	03ed                	addi	t2,t2,27
    1246:	0000                	unimp
    1248:	06ba                	slli	a3,a3,0xe
    124a:	0000                	unimp
    124c:	0262                	slli	tp,tp,0x18
    124e:	0000                	unimp
    1250:	03dd                	addi	t2,t2,23
    1252:	0000                	unimp
    1254:	0264                	addi	s1,sp,268
    1256:	0000                	unimp
    1258:	04b2                	slli	s1,s1,0xc
    125a:	0000                	unimp
    125c:	02ba                	slli	t0,t0,0xe
    125e:	0000                	unimp
    1260:	0636                	slli	a2,a2,0xd
    1262:	0000                	unimp
    1264:	0348                	addi	a0,sp,388
    1266:	0000                	unimp
    1268:	076e                	slli	a4,a4,0x1b
    126a:	0000                	unimp
    126c:	00000283          	lb	t0,0(zero) # 0 <_start>
    1270:	028a                	slli	t0,t0,0x2
    1272:	0000                	unimp
    1274:	03aa                	slli	t2,t2,0xa
    1276:	0000                	unimp
    1278:	03e4                	addi	s1,sp,460
    127a:	0000                	unimp
    127c:	0611                	addi	a2,a2,4
    127e:	0000                	unimp
    1280:	000003bf 000006fc 	0x6fc000003bf
    1288:	000006e3          	beqz	zero,1a94 <input2_data+0xc>
    128c:	0000034b          	fnmsub.s	ft6,ft0,ft0,ft0,rne
    1290:	05d5                	addi	a1,a1,21
    1292:	0000                	unimp
    1294:	0440                	addi	s0,sp,516
    1296:	0000                	unimp
    1298:	0622                	slli	a2,a2,0x8
    129a:	0000                	unimp
    129c:	0326                	slli	t1,t1,0x9
    129e:	0000                	unimp
    12a0:	04ee                	slli	s1,s1,0x1b
    12a2:	0000                	unimp
    12a4:	0341                	addi	t1,t1,16
    12a6:	0000                	unimp
    12a8:	0482                	c.slli64	s1
    12aa:	0000                	unimp
    12ac:	03c9                	addi	t2,t2,18
    12ae:	0000                	unimp
    12b0:	0464                	addi	s1,sp,524
    12b2:	0000                	unimp
    12b4:	03cd                	addi	t2,t2,19
    12b6:	0000                	unimp
    12b8:	053a                	slli	a0,a0,0xe
    12ba:	0000                	unimp
    12bc:	0136                	slli	sp,sp,0xd
    12be:	0000                	unimp
    12c0:	0625                	addi	a2,a2,9
    12c2:	0000                	unimp
    12c4:	000002c7          	fmsub.s	ft5,ft0,ft0,ft0,rne
    12c8:	0424                	addi	s1,sp,520
    12ca:	0000                	unimp
    12cc:	03da                	slli	t2,t2,0x16
    12ce:	0000                	unimp
    12d0:	000003fb          	0x3fb
    12d4:	02e1                	addi	t0,t0,24
    12d6:	0000                	unimp
    12d8:	00000107          	0x107
    12dc:	0379                	addi	t1,t1,30
    12de:	0000                	unimp
    12e0:	04c9                	addi	s1,s1,18
    12e2:	0000                	unimp
    12e4:	0304                	addi	s1,sp,384
    12e6:	0000                	unimp
    12e8:	0554                	addi	a3,sp,644
    12ea:	0000                	unimp
    12ec:	047d                	addi	s0,s0,31
    12ee:	0000                	unimp
    12f0:	01b9                	addi	gp,gp,14
    12f2:	0000                	unimp
    12f4:	03aa                	slli	t2,t2,0xa
    12f6:	0000                	unimp
    12f8:	0428                	addi	a0,sp,520
    12fa:	0000                	unimp
    12fc:	0368                	addi	a0,sp,396
    12fe:	0000                	unimp
    1300:	0111                	addi	sp,sp,4
    1302:	0000                	unimp
    1304:	0385                	addi	t2,t2,1
    1306:	0000                	unimp
    1308:	000006e3          	beqz	zero,1b14 <input2_data+0x8c>
    130c:	05da                	slli	a1,a1,0x16
    130e:	0000                	unimp
    1310:	0246                	slli	tp,tp,0x11
    1312:	0000                	unimp
    1314:	0000052b          	0x52b
    1318:	0520                	addi	s0,sp,648
    131a:	0000                	unimp
    131c:	02e4                	addi	s1,sp,332
    131e:	0000                	unimp
    1320:	0269                	addi	tp,tp,26
    1322:	0000                	unimp
    1324:	0392                	slli	t2,t2,0x4
    1326:	0000                	unimp
    1328:	02b5                	addi	t0,t0,13
    132a:	0000                	unimp
    132c:	0601                	addi	a2,a2,0
    132e:	0000                	unimp
    1330:	0481                	addi	s1,s1,0
    1332:	0000                	unimp
    1334:	0146                	slli	sp,sp,0x11
    1336:	0000                	unimp
    1338:	03f9                	addi	t2,t2,30
    133a:	0000                	unimp
    133c:	0574                	addi	a3,sp,652
    133e:	0000                	unimp
    1340:	02e9                	addi	t0,t0,26
    1342:	0000                	unimp
    1344:	00000147          	fmsub.s	ft2,ft0,ft0,ft0,rne
    1348:	0249                	addi	tp,tp,18
    134a:	0000                	unimp
    134c:	054e                	slli	a0,a0,0x13
    134e:	0000                	unimp
    1350:	046c                	addi	a1,sp,524
    1352:	0000                	unimp
    1354:	000003b3          	add	t2,zero,zero
    1358:	0300                	addi	s0,sp,384
    135a:	0000                	unimp
    135c:	044c                	addi	a1,sp,516
    135e:	0000                	unimp
    1360:	0214                	addi	a3,sp,256
    1362:	0000                	unimp
    1364:	037d                	addi	t1,t1,31
    1366:	0000                	unimp
    1368:	0521                	addi	a0,a0,8
    136a:	0000                	unimp
    136c:	03e9                	addi	t2,t2,26
    136e:	0000                	unimp
    1370:	036a                	slli	t1,t1,0x1a
    1372:	0000                	unimp
    1374:	0495                	addi	s1,s1,5
    1376:	0000                	unimp
    1378:	0418                	addi	a4,sp,512
    137a:	0000                	unimp
    137c:	00000233          	add	tp,zero,zero
    1380:	005c                	addi	a5,sp,4
    1382:	0000                	unimp
    1384:	0329                	addi	t1,t1,10
    1386:	0000                	unimp
    1388:	0468                	addi	a0,sp,524
    138a:	0000                	unimp
    138c:	0522                	slli	a0,a0,0x8
    138e:	0000                	unimp
    1390:	0518                	addi	a4,sp,640
    1392:	0000                	unimp
    1394:	023c                	addi	a5,sp,264
    1396:	0000                	unimp
    1398:	06ee                	slli	a3,a3,0x1b
    139a:	0000                	unimp
    139c:	04f2                	slli	s1,s1,0x1c
    139e:	0000                	unimp
    13a0:	045e                	slli	s0,s0,0x17
    13a2:	0000                	unimp
    13a4:	03d1                	addi	t2,t2,20
    13a6:	0000                	unimp
    13a8:	03be                	slli	t2,t2,0xf
    13aa:	0000                	unimp
    13ac:	0440                	addi	s0,sp,516
    13ae:	0000                	unimp
    13b0:	057d                	addi	a0,a0,31
    13b2:	0000                	unimp
    13b4:	000004b3          	add	s1,zero,zero
    13b8:	02a6                	slli	t0,t0,0x9
    13ba:	0000                	unimp
    13bc:	000005cb          	fnmsub.s	fa1,ft0,ft0,ft0,rne
    13c0:	0692                	slli	a3,a3,0x4
    13c2:	0000                	unimp
    13c4:	04e2                	slli	s1,s1,0x18
    13c6:	0000                	unimp
    13c8:	0178                	addi	a4,sp,140
    13ca:	0000                	unimp
    13cc:	06c6                	slli	a3,a3,0x11
    13ce:	0000                	unimp
    13d0:	02b5                	addi	t0,t0,13
    13d2:	0000                	unimp
    13d4:	0211                	addi	tp,tp,4
    13d6:	0000                	unimp
    13d8:	0000023f 00000424 	0x4240000023f
    13e0:	03ba                	slli	t2,t2,0xe
    13e2:	0000                	unimp
    13e4:	03fd                	addi	t2,t2,31
    13e6:	0000                	unimp
    13e8:	00000447          	fmsub.s	fs0,ft0,ft0,ft0,rne
    13ec:	050d                	addi	a0,a0,3
    13ee:	0000                	unimp
    13f0:	038e                	slli	t2,t2,0x3
    13f2:	0000                	unimp
    13f4:	01aa                	slli	gp,gp,0xa
    13f6:	0000                	unimp
    13f8:	0489                	addi	s1,s1,2
    13fa:	0000                	unimp
    13fc:	000005b3          	add	a1,zero,zero
    1400:	031c                	addi	a5,sp,384
    1402:	0000                	unimp
    1404:	0436                	slli	s0,s0,0xd
    1406:	0000                	unimp
    1408:	013a                	slli	sp,sp,0xe
    140a:	0000                	unimp
    140c:	0406                	slli	s0,s0,0x1
    140e:	0000                	unimp
    1410:	00000287          	0x287
    1414:	000003d7          	0x3d7
    1418:	0562                	slli	a0,a0,0x18
    141a:	0000                	unimp
    141c:	0070                	addi	a2,sp,12
    141e:	0000                	unimp
    1420:	000002bb          	addw	t0,zero,zero
    1424:	0000046f          	jal	s0,1424 <verify_data+0x93c>
    1428:	02f1                	addi	t0,t0,28
    142a:	0000                	unimp
    142c:	00000577          	0x577
    1430:	0000043f 000000d7 	0xd70000043f
    1438:	000003b3          	add	t2,zero,zero
    143c:	0619                	addi	a2,a2,6
    143e:	0000                	unimp
    1440:	0400                	addi	s0,sp,512
    1442:	0000                	unimp
    1444:	037c                	addi	a5,sp,396
    1446:	0000                	unimp
    1448:	02ca                	slli	t0,t0,0x12
    144a:	0000                	unimp
    144c:	00000297          	auipc	t0,0x0
    1450:	0256                	slli	tp,tp,0x15
    1452:	0000                	unimp
    1454:	00000543          	fmadd.s	fa0,ft0,ft0,ft0,rne
    1458:	00a4                	addi	s1,sp,72
    145a:	0000                	unimp
    145c:	05ce                	slli	a1,a1,0x13
    145e:	0000                	unimp
    1460:	000003eb          	0x3eb
    1464:	0434                	addi	a3,sp,520
    1466:	0000                	unimp
    1468:	03ee                	slli	t2,t2,0x1b
    146a:	0000                	unimp
    146c:	038a                	slli	t2,t2,0x2
    146e:	0000                	unimp
    1470:	00000567          	jalr	a0,zero # 0 <_start>
    1474:	00000337          	lui	t1,0x0
    1478:	0219                	addi	tp,tp,6
    147a:	0000                	unimp
    147c:	0000041b          	sext.w	s0,zero
    1480:	000005b3          	add	a1,zero,zero
    1484:	052c                	addi	a1,sp,648
    1486:	0000                	unimp
    1488:	0428                	addi	a0,sp,520
    148a:	0000                	unimp
    148c:	02f2                	slli	t0,t0,0x1c
    148e:	0000                	unimp
    1490:	037f                	0x37f
    1492:	0000                	unimp
    1494:	029d                	addi	t0,t0,7
    1496:	0000                	unimp
    1498:	0545                	addi	a0,a0,17
    149a:	0000                	unimp
    149c:	0295                	addi	t0,t0,5
    149e:	0000                	unimp
    14a0:	000002cb          	fnmsub.s	ft5,ft0,ft0,ft0,rne
    14a4:	052e                	slli	a0,a0,0xb
    14a6:	0000                	unimp
    14a8:	044c                	addi	a1,sp,516
    14aa:	0000                	unimp
    14ac:	0224                	addi	s1,sp,264
    14ae:	0000                	unimp
    14b0:	04c8                	addi	a0,sp,580
    14b2:	0000                	unimp
    14b4:	017e                	slli	sp,sp,0x1f
    14b6:	0000                	unimp
    14b8:	000002e7          	jalr	t0,zero # 0 <_start>
    14bc:	027d                	addi	tp,tp,31
    14be:	0000                	unimp
    14c0:	0286                	slli	t0,t0,0x1
    14c2:	0000                	unimp
    14c4:	0000045b          	0x45b
    14c8:	0000027b          	0x27b
    14cc:	04e9                	addi	s1,s1,26
    14ce:	0000                	unimp
    14d0:	00b5                	addi	ra,ra,13
    14d2:	0000                	unimp
    14d4:	03ce                	slli	t2,t2,0x13
    14d6:	0000                	unimp
    14d8:	00000567          	jalr	a0,zero # 0 <_start>
    14dc:	0328                	addi	a0,sp,392
    14de:	0000                	unimp
    14e0:	0539                	addi	a0,a0,14
    14e2:	0000                	unimp
    14e4:	0000038b          	0x38b
    14e8:	00de                	slli	ra,ra,0x17
    14ea:	0000                	unimp
    14ec:	0384                	addi	s1,sp,448
    14ee:	0000                	unimp
    14f0:	000004f3          	0x4f3
    14f4:	053d                	addi	a0,a0,15
    14f6:	0000                	unimp
    14f8:	053e                	slli	a0,a0,0xf
    14fa:	0000                	unimp
    14fc:	0624                	addi	s1,sp,776
    14fe:	0000                	unimp
    1500:	0520                	addi	s0,sp,648
    1502:	0000                	unimp
    1504:	018c                	addi	a1,sp,192
    1506:	0000                	unimp
    1508:	02cc                	addi	a1,sp,324
    150a:	0000                	unimp
    150c:	000002e7          	jalr	t0,zero # 0 <_start>
    1510:	04fa                	slli	s1,s1,0x1e
    1512:	0000                	unimp
    1514:	0625                	addi	a2,a2,9
    1516:	0000                	unimp
    1518:	04c1                	addi	s1,s1,16
    151a:	0000                	unimp
    151c:	05a1                	addi	a1,a1,8
    151e:	0000                	unimp
    1520:	0309                	addi	t1,t1,2
    1522:	0000                	unimp
    1524:	075e                	slli	a4,a4,0x17
    1526:	0000                	unimp
    1528:	03a0                	addi	s0,sp,456
    152a:	0000                	unimp
    152c:	0428                	addi	a0,sp,520
    152e:	0000                	unimp
    1530:	02aa                	slli	t0,t0,0xa
    1532:	0000                	unimp
    1534:	056d                	addi	a0,a0,27
    1536:	0000                	unimp
    1538:	0089                	addi	ra,ra,2
    153a:	0000                	unimp
    153c:	062d                	addi	a2,a2,11
    153e:	0000                	unimp
    1540:	0366                	slli	t1,t1,0x19
    1542:	0000                	unimp
    1544:	00b6                	slli	ra,ra,0xd
    1546:	0000                	unimp
    1548:	000003d3          	fadd.s	ft7,ft0,ft0,rne
    154c:	06cd                	addi	a3,a3,19
    154e:	0000                	unimp
    1550:	063d                	addi	a2,a2,15
    1552:	0000                	unimp
    1554:	0144                	addi	s1,sp,132
    1556:	0000                	unimp
    1558:	0698                	addi	a4,sp,832
    155a:	0000                	unimp
    155c:	056c                	addi	a1,sp,652
    155e:	0000                	unimp
    1560:	0546                	slli	a0,a0,0x11
    1562:	0000                	unimp
    1564:	0645                	addi	a2,a2,17
    1566:	0000                	unimp
    1568:	000004bf 000005a2 	0x5a2000004bf
    1570:	000001bf 00000330 	0x330000001bf
    1578:	018d                	addi	gp,gp,3
    157a:	0000                	unimp
    157c:	026c                	addi	a1,sp,268
    157e:	0000                	unimp
    1580:	069f 0000 004d      	0x4d0000069f
    1586:	0000                	unimp
    1588:	000003eb          	0x3eb
    158c:	02b8                	addi	a4,sp,328
    158e:	0000                	unimp
    1590:	044e                	slli	s0,s0,0x13
    1592:	0000                	unimp
    1594:	035c                	addi	a5,sp,388
    1596:	0000                	unimp
    1598:	031c                	addi	a5,sp,384
    159a:	0000                	unimp
    159c:	0442                	slli	s0,s0,0x10
    159e:	0000                	unimp
    15a0:	00000437          	lui	s0,0x0
    15a4:	064d                	addi	a2,a2,19
    15a6:	0000                	unimp
    15a8:	000004db          	0x4db
    15ac:	025a                	slli	tp,tp,0x16
    15ae:	0000                	unimp
    15b0:	000002ab          	0x2ab
    15b4:	0544                	addi	s1,sp,644
    15b6:	0000                	unimp
    15b8:	02d2                	slli	t0,t0,0x14
    15ba:	0000                	unimp
    15bc:	05c8                	addi	a0,sp,708
    15be:	0000                	unimp
    15c0:	000000af          	0xaf
    15c4:	000000bf 00000798 	0x798000000bf
    15cc:	01e4                	addi	s1,sp,204
    15ce:	0000                	unimp
    15d0:	02df 0000 030a      	0x30a000002df
    15d6:	0000                	unimp
    15d8:	036d                	addi	t1,t1,27
    15da:	0000                	unimp
    15dc:	04e4                	addi	s1,sp,588
    15de:	0000                	unimp
    15e0:	04e2                	slli	s1,s1,0x18
    15e2:	0000                	unimp
    15e4:	0526                	slli	a0,a0,0x9
    15e6:	0000                	unimp
    15e8:	02ba                	slli	t0,t0,0xe
    15ea:	0000                	unimp
    15ec:	04be                	slli	s1,s1,0xf
    15ee:	0000                	unimp
    15f0:	03df 0000 05a3      	0x5a3000003df
    15f6:	0000                	unimp
    15f8:	0504                	addi	s1,sp,640
    15fa:	0000                	unimp
    15fc:	04ce                	slli	s1,s1,0x13
    15fe:	0000                	unimp
    1600:	05f6                	slli	a1,a1,0x1d
    1602:	0000                	unimp
    1604:	04f6                	slli	s1,s1,0x1d
    1606:	0000                	unimp
    1608:	054c                	addi	a1,sp,644
    160a:	0000                	unimp
    160c:	05fd                	addi	a1,a1,31
    160e:	0000                	unimp
    1610:	000001ab          	0x1ab
    1614:	0314                	addi	a3,sp,384
    1616:	0000                	unimp
    1618:	0691                	addi	a3,a3,4
    161a:	0000                	unimp
    161c:	033a                	slli	t1,t1,0xe
    161e:	0000                	unimp
    1620:	04da                	slli	s1,s1,0x16
    1622:	0000                	unimp
    1624:	053c                	addi	a5,sp,648
    1626:	0000                	unimp
    1628:	032c                	addi	a1,sp,392
    162a:	0000                	unimp
    162c:	0446                	slli	s0,s0,0x11
    162e:	0000                	unimp
    1630:	0341                	addi	t1,t1,16
    1632:	0000                	unimp
    1634:	00000413          	li	s0,0
    1638:	01df 0000 05c9      	0x5c9000001df
    163e:	0000                	unimp
    1640:	0579                	addi	a0,a0,30
    1642:	0000                	unimp
    1644:	00000407          	0x407
    1648:	0000047b          	0x47b
    164c:	000005fb          	0x5fb
    1650:	0255                	addi	tp,tp,21
    1652:	0000                	unimp
    1654:	0334                	addi	a3,sp,392
    1656:	0000                	unimp
    1658:	053a                	slli	a0,a0,0xe
    165a:	0000                	unimp
    165c:	0522                	slli	a0,a0,0x8
    165e:	0000                	unimp
    1660:	0289                	addi	t0,t0,2
    1662:	0000                	unimp
    1664:	062a                	slli	a2,a2,0xa
    1666:	0000                	unimp
    1668:	040a                	slli	s0,s0,0x2
    166a:	0000                	unimp
    166c:	0525                	addi	a0,a0,9
    166e:	0000                	unimp
    1670:	039a                	slli	t2,t2,0x6
    1672:	0000                	unimp
    1674:	000006fb          	0x6fb
    1678:	03ca                	slli	t2,t2,0x12
    167a:	0000                	unimp
    167c:	01f5                	addi	gp,gp,29
    167e:	0000                	unimp
    1680:	00fc                	addi	a5,sp,76
    1682:	0000                	unimp
    1684:	02c1                	addi	t0,t0,16
    1686:	0000                	unimp
    1688:	000002c3          	fmadd.s	ft5,ft0,ft0,ft0,rne
    168c:	000002b7          	lui	t0,0x0
    1690:	04a0                	addi	s0,sp,584
    1692:	0000                	unimp
    1694:	044a                	slli	s0,s0,0x12
    1696:	0000                	unimp
    1698:	000004d3          	fadd.s	fs1,ft0,ft0,rne
    169c:	01b1                	addi	gp,gp,12
    169e:	0000                	unimp
    16a0:	0282                	c.slli64	t0
    16a2:	0000                	unimp
    16a4:	03e6                	slli	t2,t2,0x19
    16a6:	0000                	unimp
    16a8:	0538                	addi	a4,sp,648
    16aa:	0000                	unimp
    16ac:	058d                	addi	a1,a1,3
    16ae:	0000                	unimp
    16b0:	0669                	addi	a2,a2,26
    16b2:	0000                	unimp
    16b4:	000002b7          	lui	t0,0x0
    16b8:	0471                	addi	s0,s0,28
    16ba:	0000                	unimp
    16bc:	047e                	slli	s0,s0,0x1f
    16be:	0000                	unimp
    16c0:	05bc                	addi	a5,sp,712
    16c2:	0000                	unimp
    16c4:	032d                	addi	t1,t1,11
    16c6:	0000                	unimp
    16c8:	0489                	addi	s1,s1,2
    16ca:	0000                	unimp
    16cc:	0676                	slli	a2,a2,0x1d
    16ce:	0000                	unimp
    16d0:	00ce                	slli	ra,ra,0x13
    16d2:	0000                	unimp
    16d4:	048e                	slli	s1,s1,0x3
    16d6:	0000                	unimp
    16d8:	030e                	slli	t1,t1,0x3
    16da:	0000                	unimp
    16dc:	0445                	addi	s0,s0,17
    16de:	0000                	unimp
    16e0:	0669                	addi	a2,a2,26
    16e2:	0000                	unimp
    16e4:	00000457          	0x457
    16e8:	049e                	slli	s1,s1,0x7
    16ea:	0000                	unimp
    16ec:	06a0                	addi	s0,sp,840
    16ee:	0000                	unimp
    16f0:	05d0                	addi	a2,sp,708
    16f2:	0000                	unimp
    16f4:	0509                	addi	a0,a0,2
    16f6:	0000                	unimp
    16f8:	00000393          	li	t2,0
    16fc:	068a                	slli	a3,a3,0x2
    16fe:	0000                	unimp
    1700:	0135                	addi	sp,sp,13
    1702:	0000                	unimp
    1704:	045d                	addi	s0,s0,23
    1706:	0000                	unimp
    1708:	0316                	slli	t1,t1,0x5
    170a:	0000                	unimp
    170c:	0390                	addi	a2,sp,448
    170e:	0000                	unimp
    1710:	0341                	addi	t1,t1,16
    1712:	0000                	unimp
    1714:	037a                	slli	t1,t1,0x1e
    1716:	0000                	unimp
    1718:	0439                	addi	s0,s0,14
    171a:	0000                	unimp
    171c:	000002d7          	0x2d7
    1720:	000000ef          	jal	ra,1720 <verify_data+0xc38>
    1724:	04a4                	addi	s1,sp,584
    1726:	0000                	unimp
    1728:	046c                	addi	a1,sp,524
    172a:	0000                	unimp
    172c:	061e                	slli	a2,a2,0x7
    172e:	0000                	unimp
    1730:	021d                	addi	tp,tp,7
    1732:	0000                	unimp
    1734:	000004bb          	addw	s1,zero,zero
    1738:	0411                	addi	s0,s0,4
    173a:	0000                	unimp
    173c:	0520                	addi	s0,sp,648
    173e:	0000                	unimp
    1740:	0625                	addi	a2,a2,9
    1742:	0000                	unimp
    1744:	0334                	addi	a3,sp,392
    1746:	0000                	unimp
    1748:	0245                	addi	tp,tp,17
    174a:	0000                	unimp
    174c:	0000036f          	jal	t1,174c <verify_data+0xc64>
    1750:	03e6                	slli	t2,t2,0x19
    1752:	0000                	unimp
    1754:	018e                	slli	gp,gp,0x3
    1756:	0000                	unimp
    1758:	000005d3          	fadd.s	fa1,ft0,ft0,rne
    175c:	03b2                	slli	t2,t2,0xc
    175e:	0000                	unimp
    1760:	018c                	addi	a1,sp,192
    1762:	0000                	unimp
    1764:	00a1                	addi	ra,ra,8
    1766:	0000                	unimp
    1768:	0000006f          	j	1768 <verify_data+0xc80>
    176c:	0414                	addi	a3,sp,512
    176e:	0000                	unimp
    1770:	000003ab          	0x3ab
    1774:	04f2                	slli	s1,s1,0x1c
    1776:	0000                	unimp
    1778:	0000069b          	sext.w	a3,zero
    177c:	02ed                	addi	t0,t0,27
    177e:	0000                	unimp
    1780:	043c                	addi	a5,sp,520
    1782:	0000                	unimp
    1784:	079a                	slli	a5,a5,0x6
    1786:	0000                	unimp
    1788:	03b2                	slli	t2,t2,0xc
    178a:	0000                	unimp
    178c:	000005e7          	jalr	a1,zero # 0 <_start>
    1790:	05e8                	addi	a0,sp,716
    1792:	0000                	unimp
    1794:	03ed                	addi	t2,t2,27
    1796:	0000                	unimp
    1798:	0444                	addi	s1,sp,516
    179a:	0000                	unimp
    179c:	0601                	addi	a2,a2,0
    179e:	0000                	unimp
    17a0:	0000039b          	sext.w	t2,zero
    17a4:	000004e3          	beqz	zero,1fac <input2_data+0x524>
    17a8:	0518                	addi	a4,sp,640
    17aa:	0000                	unimp
    17ac:	00000503          	lb	a0,0(zero) # 0 <_start>
    17b0:	0580                	addi	s0,sp,704
    17b2:	0000                	unimp
    17b4:	03b5                	addi	t2,t2,13
    17b6:	0000                	unimp
    17b8:	020a                	slli	tp,tp,0x2
    17ba:	0000                	unimp
    17bc:	057d                	addi	a0,a0,31
    17be:	0000                	unimp
    17c0:	038d                	addi	t2,t2,3
    17c2:	0000                	unimp
    17c4:	03b8                	addi	a4,sp,456
    17c6:	0000                	unimp
    17c8:	023a                	slli	tp,tp,0xe
    17ca:	0000                	unimp
    17cc:	05f1                	addi	a1,a1,28
    17ce:	0000                	unimp
    17d0:	06ba                	slli	a3,a3,0xe
    17d2:	0000                	unimp
    17d4:	043d                	addi	s0,s0,15
    17d6:	0000                	unimp
    17d8:	0000041b          	sext.w	s0,zero
    17dc:	0318                	addi	a4,sp,384
    17de:	0000                	unimp
    17e0:	04cd                	addi	s1,s1,19
    17e2:	0000                	unimp
    17e4:	0519                	addi	a0,a0,6
    17e6:	0000                	unimp
    17e8:	02da                	slli	t0,t0,0x16
    17ea:	0000                	unimp
    17ec:	04bc                	addi	a5,sp,584
    17ee:	0000                	unimp
    17f0:	0315                	addi	t1,t1,5
    17f2:	0000                	unimp
    17f4:	01a8                	addi	a0,sp,200
    17f6:	0000                	unimp
    17f8:	044c                	addi	a1,sp,516
    17fa:	0000                	unimp
    17fc:	0236                	slli	tp,tp,0xd
    17fe:	0000                	unimp
    1800:	0560                	addi	s0,sp,652
    1802:	0000                	unimp
    1804:	00000217          	auipc	tp,0x0
    1808:	01aa                	slli	gp,gp,0xa
    180a:	0000                	unimp
    180c:	000000bb          	addw	ra,zero,zero
    1810:	0000068f          	0x68f
    1814:	0388                	addi	a0,sp,448
    1816:	0000                	unimp
    1818:	0370                	addi	a2,sp,396
    181a:	0000                	unimp
    181c:	0496                	slli	s1,s1,0x5
    181e:	0000                	unimp
    1820:	0155                	addi	sp,sp,21
    1822:	0000                	unimp
    1824:	0341                	addi	t1,t1,16
    1826:	0000                	unimp
    1828:	0595                	addi	a1,a1,5
    182a:	0000                	unimp
    182c:	04e6                	slli	s1,s1,0x19
    182e:	0000                	unimp
    1830:	0252                	slli	tp,tp,0x14
    1832:	0000                	unimp
    1834:	03c4                	addi	s1,sp,452
    1836:	0000                	unimp
    1838:	06d6                	slli	a3,a3,0x15
    183a:	0000                	unimp
    183c:	0534                	addi	a3,sp,648
    183e:	0000                	unimp
    1840:	0360                	addi	s0,sp,396
    1842:	0000                	unimp
    1844:	067e                	slli	a2,a2,0x1f
    1846:	0000                	unimp
    1848:	0394                	addi	a3,sp,448
    184a:	0000                	unimp
    184c:	000002db          	0x2db
    1850:	00000343          	fmadd.s	ft6,ft0,ft0,ft0,rne
    1854:	01a9                	addi	gp,gp,10
    1856:	0000                	unimp
    1858:	0256                	slli	tp,tp,0x15
    185a:	0000                	unimp
    185c:	0148                	addi	a0,sp,132
    185e:	0000                	unimp
    1860:	04ae                	slli	s1,s1,0xb
    1862:	0000                	unimp
    1864:	0305                	addi	t1,t1,1
    1866:	0000                	unimp
    1868:	052e                	slli	a0,a0,0xb
    186a:	0000                	unimp
    186c:	046a                	slli	s0,s0,0x1a
    186e:	0000                	unimp
    1870:	00000253          	fadd.s	ft4,ft0,ft0,rne
    1874:	0359                	addi	t1,t1,22
    1876:	0000                	unimp
    1878:	030d                	addi	t1,t1,3
    187a:	0000                	unimp
    187c:	058e                	slli	a1,a1,0x3
    187e:	0000                	unimp
    1880:	0542                	slli	a0,a0,0x10
    1882:	0000                	unimp
    1884:	032c                	addi	a1,sp,392
    1886:	0000                	unimp
    1888:	04a5                	addi	s1,s1,9
    188a:	0000                	unimp
    188c:	00000513          	li	a0,0
    1890:	0105                	addi	sp,sp,1
    1892:	0000                	unimp
    1894:	041e                	slli	s0,s0,0x7
    1896:	0000                	unimp
    1898:	0312                	slli	t1,t1,0x4
    189a:	0000                	unimp
    189c:	057f                	0x57f
    189e:	0000                	unimp
    18a0:	000004cb          	fnmsub.s	fs1,ft0,ft0,ft0,rne
    18a4:	03b8                	addi	a4,sp,456
    18a6:	0000                	unimp
    18a8:	02da                	slli	t0,t0,0x16
    18aa:	0000                	unimp
    18ac:	000002f3          	0x2f3
    18b0:	01ae                	slli	gp,gp,0xb
    18b2:	0000                	unimp
    18b4:	000006e7          	jalr	a3,zero # 0 <_start>
    18b8:	045d                	addi	s0,s0,23
    18ba:	0000                	unimp
    18bc:	070c                	addi	a1,sp,896
    18be:	0000                	unimp
    18c0:	000002e3          	beqz	zero,20c4 <input2_data+0x63c>
    18c4:	0000019b          	sext.w	gp,zero
    18c8:	062d                	addi	a2,a2,11
    18ca:	0000                	unimp
    18cc:	020a                	slli	tp,tp,0x2
    18ce:	0000                	unimp
    18d0:	0000056f          	jal	a0,18d0 <verify_data+0xde8>
    18d4:	00000173          	0x173
    18d8:	0228                	addi	a0,sp,264
    18da:	0000                	unimp
    18dc:	000002fb          	0x2fb
    18e0:	0000049b          	sext.w	s1,zero
    18e4:	000004f3          	0x4f3
    18e8:	01e0                	addi	s0,sp,204
    18ea:	0000                	unimp
    18ec:	04bc                	addi	a5,sp,584
    18ee:	0000                	unimp
    18f0:	000004cb          	fnmsub.s	fs1,ft0,ft0,ft0,rne
    18f4:	0232                	slli	tp,tp,0xc
    18f6:	0000                	unimp
    18f8:	0534                	addi	a3,sp,648
    18fa:	0000                	unimp
    18fc:	000000a3          	sb	zero,1(zero) # 1 <_start+0x1>
    1900:	000003db          	0x3db
    1904:	01f0                	addi	a2,sp,204
    1906:	0000                	unimp
    1908:	04c0                	addi	s0,sp,580
    190a:	0000                	unimp
    190c:	0676                	slli	a2,a2,0x1d
    190e:	0000                	unimp
    1910:	050d                	addi	a0,a0,3
    1912:	0000                	unimp
    1914:	0708                	addi	a0,sp,896
    1916:	0000                	unimp
    1918:	055d                	addi	a0,a0,23
    191a:	0000                	unimp
    191c:	03ae                	slli	t2,t2,0xb
    191e:	0000                	unimp
    1920:	04df 0000 023c      	0x23c000004df
    1926:	0000                	unimp
    1928:	02ee                	slli	t0,t0,0x1b
    192a:	0000                	unimp
    192c:	0332                	slli	t1,t1,0xc
    192e:	0000                	unimp
    1930:	000004ef          	jal	s1,1930 <verify_data+0xe48>
    1934:	024e                	slli	tp,tp,0x13
    1936:	0000                	unimp
    1938:	0052                	c.slli	zero,0x14
    193a:	0000                	unimp
    193c:	04ae                	slli	s1,s1,0xb
    193e:	0000                	unimp
    1940:	03ba                	slli	t2,t2,0xe
    1942:	0000                	unimp
    1944:	0250                	addi	a2,sp,260
    1946:	0000                	unimp
    1948:	06dc                	addi	a5,sp,836
    194a:	0000                	unimp
    194c:	0522                	slli	a0,a0,0x8
    194e:	0000                	unimp
    1950:	000005ab          	0x5ab
    1954:	0106                	slli	sp,sp,0x1
    1956:	0000                	unimp
    1958:	0360                	addi	s0,sp,396
    195a:	0000                	unimp
    195c:	0000002b          	0x2b
    1960:	000005af          	0x5af
    1964:	04fe                	slli	s1,s1,0x1f
    1966:	0000                	unimp
    1968:	000005d7          	0x5d7
    196c:	04f5                	addi	s1,s1,29
    196e:	0000                	unimp
    1970:	0665                	addi	a2,a2,25
    1972:	0000                	unimp
    1974:	01b4                	addi	a3,sp,200
    1976:	0000                	unimp
    1978:	0000039b          	sext.w	t2,zero
    197c:	06f0                	addi	a2,sp,844
    197e:	0000                	unimp
    1980:	0000042f          	0x42f
    1984:	030c                	addi	a1,sp,384
    1986:	0000                	unimp
    1988:	0512                	slli	a0,a0,0x4
    198a:	0000                	unimp
    198c:	031c                	addi	a5,sp,384
    198e:	0000                	unimp
    1990:	043a                	slli	s0,s0,0xe
    1992:	0000                	unimp
    1994:	000002f7          	0x2f7
    1998:	019f 0000 056e      	0x56e0000019f
    199e:	0000                	unimp
    19a0:	0000052b          	0x52b
    19a4:	0299                	addi	t0,t0,6
    19a6:	0000                	unimp
    19a8:	0605                	addi	a2,a2,1
    19aa:	0000                	unimp
    19ac:	0376                	slli	t1,t1,0x1d
    19ae:	0000                	unimp
    19b0:	000003cb          	fnmsub.s	ft7,ft0,ft0,ft0,rne
    19b4:	0461                	addi	s0,s0,24
    19b6:	0000                	unimp
    19b8:	060e                	slli	a2,a2,0x3
    19ba:	0000                	unimp
    19bc:	0382                	c.slli64	t2
    19be:	0000                	unimp
    19c0:	02f4                	addi	a3,sp,332
    19c2:	0000                	unimp
    19c4:	03e5                	addi	t2,t2,25
    19c6:	0000                	unimp
    19c8:	0586                	slli	a1,a1,0x1
    19ca:	0000                	unimp
    19cc:	03cc                	addi	a1,sp,452
    19ce:	0000                	unimp
    19d0:	000003cb          	fnmsub.s	ft7,ft0,ft0,ft0,rne
    19d4:	03ba                	slli	t2,t2,0xe
    19d6:	0000                	unimp
    19d8:	02f0                	addi	a2,sp,332
    19da:	0000                	unimp
    19dc:	061c                	addi	a5,sp,768
    19de:	0000                	unimp
    19e0:	031e                	slli	t1,t1,0x7
    19e2:	0000                	unimp
    19e4:	00000387          	0x387
    19e8:	00000537          	lui	a0,0x0
    19ec:	039d                	addi	t2,t2,7
    19ee:	0000                	unimp
    19f0:	046c                	addi	a1,sp,524
    19f2:	0000                	unimp
    19f4:	0000030f          	0x30f
    19f8:	0584                	addi	s1,sp,704
    19fa:	0000                	unimp
    19fc:	01fd                	addi	gp,gp,31
    19fe:	0000                	unimp
    1a00:	026c                	addi	a1,sp,268
    1a02:	0000                	unimp
    1a04:	000005fb          	0x5fb
    1a08:	0544                	addi	s1,sp,644
    1a0a:	0000                	unimp
    1a0c:	0314                	addi	a3,sp,384
    1a0e:	0000                	unimp
    1a10:	0342                	slli	t1,t1,0x10
    1a12:	0000                	unimp
    1a14:	02ad                	addi	t0,t0,11
    1a16:	0000                	unimp
    1a18:	0180                	addi	s0,sp,192
    1a1a:	0000                	unimp
    1a1c:	02ea                	slli	t0,t0,0x1a
    1a1e:	0000                	unimp
    1a20:	05bd                	addi	a1,a1,15
    1a22:	0000                	unimp
    1a24:	0311                	addi	t1,t1,4
    1a26:	0000                	unimp
    1a28:	0534                	addi	a3,sp,648
    1a2a:	0000                	unimp
    1a2c:	03de                	slli	t2,t2,0x17
    1a2e:	0000                	unimp
    1a30:	000003d7          	0x3d7
    1a34:	0312                	slli	t1,t1,0x4
    1a36:	0000                	unimp
    1a38:	06ca                	slli	a3,a3,0x12
    1a3a:	0000                	unimp
    1a3c:	0480                	addi	s0,sp,576
    1a3e:	0000                	unimp
    1a40:	0594                	addi	a3,sp,704
    1a42:	0000                	unimp
    1a44:	02e8                	addi	a0,sp,332
    1a46:	0000                	unimp
    1a48:	00000167          	jalr	sp,zero # 0 <_start>
    1a4c:	0535                	addi	a0,a0,13
    1a4e:	0000                	unimp
    1a50:	04ae                	slli	s1,s1,0xb
    1a52:	0000                	unimp
    1a54:	000005ab          	0x5ab
    1a58:	000003af          	0x3af
    1a5c:	0584                	addi	s1,sp,704
    1a5e:	0000                	unimp
    1a60:	0000041b          	sext.w	s0,zero
    1a64:	0490                	addi	a2,sp,576
    1a66:	0000                	unimp
    1a68:	0410                	addi	a2,sp,512
    1a6a:	0000                	unimp
    1a6c:	020c                	addi	a1,sp,256
    1a6e:	0000                	unimp
    1a70:	047d                	addi	s0,s0,31
    1a72:	0000                	unimp
    1a74:	0000052f          	0x52f
    1a78:	03c2                	slli	t2,t2,0x10
    1a7a:	0000                	unimp
    1a7c:	05a8                	addi	a0,sp,712
    1a7e:	0000                	unimp
    1a80:	035a                	slli	t1,t1,0x16
    1a82:	0000                	unimp
    1a84:	000003d7          	0x3d7

0000000000001a88 <input2_data>:
    1a88:	01c6                	slli	gp,gp,0x11
    1a8a:	0000                	unimp
    1a8c:	0000014f          	fnmadd.s	ft2,ft0,ft0,ft0,rne
    1a90:	0001                	nop
    1a92:	0000                	unimp
    1a94:	03dd                	addi	t2,t2,23
    1a96:	0000                	unimp
    1a98:	016d                	addi	sp,sp,27
    1a9a:	0000                	unimp
    1a9c:	023c                	addi	a5,sp,264
    1a9e:	0000                	unimp
    1aa0:	0040                	addi	s0,sp,4
    1aa2:	0000                	unimp
    1aa4:	0099                	addi	ra,ra,6
    1aa6:	0000                	unimp
    1aa8:	00d8                	addi	a4,sp,68
    1aaa:	0000                	unimp
    1aac:	008c                	addi	a1,sp,64
    1aae:	0000                	unimp
    1ab0:	00d2                	slli	ra,ra,0x14
    1ab2:	0000                	unimp
    1ab4:	023c                	addi	a5,sp,264
    1ab6:	0000                	unimp
    1ab8:	00000153          	fadd.s	ft2,ft0,ft0,rne
    1abc:	0251                	addi	tp,tp,20
    1abe:	0000                	unimp
    1ac0:	0382                	c.slli64	t2
    1ac2:	0000                	unimp
    1ac4:	00e4                	addi	s1,sp,76
    1ac6:	0000                	unimp
    1ac8:	000c                	0xc
    1aca:	0000                	unimp
    1acc:	00000373          	0x373
    1ad0:	02ee                	slli	t0,t0,0x1b
    1ad2:	0000                	unimp
    1ad4:	0286                	slli	t0,t0,0x1
    1ad6:	0000                	unimp
    1ad8:	01f4                	addi	a3,sp,204
    1ada:	0000                	unimp
    1adc:	01b4                	addi	a3,sp,200
    1ade:	0000                	unimp
    1ae0:	02bd                	addi	t0,t0,15
    1ae2:	0000                	unimp
    1ae4:	032c                	addi	a1,sp,392
    1ae6:	0000                	unimp
    1ae8:	03d5                	addi	t2,t2,21
    1aea:	0000                	unimp
    1aec:	0096                	slli	ra,ra,0x5
    1aee:	0000                	unimp
    1af0:	02b8                	addi	a4,sp,328
    1af2:	0000                	unimp
    1af4:	0234                	addi	a3,sp,264
    1af6:	0000                	unimp
    1af8:	0110                	addi	a2,sp,128
    1afa:	0000                	unimp
    1afc:	0102                	c.slli64	sp
    1afe:	0000                	unimp
    1b00:	00000287          	0x287
    1b04:	01fd                	addi	gp,gp,31
    1b06:	0000                	unimp
    1b08:	0058                	addi	a4,sp,4
    1b0a:	0000                	unimp
    1b0c:	000002bf 0000029d 	0x29d000002bf
    1b14:	00000177          	0x177
    1b18:	00000227          	0x227
    1b1c:	03a8                	addi	a0,sp,456
    1b1e:	0000                	unimp
    1b20:	0250                	addi	a2,sp,260
    1b22:	0000                	unimp
    1b24:	0239                	addi	tp,tp,14
    1b26:	0000                	unimp
    1b28:	03b8                	addi	a4,sp,456
    1b2a:	0000                	unimp
    1b2c:	0320                	addi	s0,sp,392
    1b2e:	0000                	unimp
    1b30:	0248                	addi	a0,sp,260
    1b32:	0000                	unimp
    1b34:	00000283          	lb	t0,0(zero) # 0 <_start>
    1b38:	0170                	addi	a2,sp,140
    1b3a:	0000                	unimp
    1b3c:	01e9                	addi	gp,gp,26
    1b3e:	0000                	unimp
    1b40:	0148                	addi	a0,sp,132
    1b42:	0000                	unimp
    1b44:	0139                	addi	sp,sp,14
    1b46:	0000                	unimp
    1b48:	0250                	addi	a2,sp,260
    1b4a:	0000                	unimp
    1b4c:	0184                	addi	s1,sp,192
    1b4e:	0000                	unimp
    1b50:	021f 0000 0289      	0x2890000021f
    1b56:	0000                	unimp
    1b58:	000003d3          	fadd.s	ft7,ft0,ft0,rne
    1b5c:	03e5                	addi	t2,t2,25
    1b5e:	0000                	unimp
    1b60:	032e                	slli	t1,t1,0xb
    1b62:	0000                	unimp
    1b64:	0000004f          	fnmadd.s	ft0,ft0,ft0,ft0,rne
    1b68:	00d0                	addi	a2,sp,68
    1b6a:	0000                	unimp
    1b6c:	03e6                	slli	t2,t2,0x19
    1b6e:	0000                	unimp
    1b70:	0275                	addi	tp,tp,29
    1b72:	0000                	unimp
    1b74:	0000034f          	fnmadd.s	ft6,ft0,ft0,ft0,rne
    1b78:	02c0                	addi	s0,sp,324
    1b7a:	0000                	unimp
    1b7c:	03e5                	addi	t2,t2,25
    1b7e:	0000                	unimp
    1b80:	00fd                	addi	ra,ra,31
    1b82:	0000                	unimp
    1b84:	000002cb          	fnmsub.s	ft5,ft0,ft0,ft0,rne
    1b88:	01ae                	slli	gp,gp,0xb
    1b8a:	0000                	unimp
    1b8c:	019f 0000 021a      	0x21a0000019f
    1b92:	0000                	unimp
    1b94:	02bc                	addi	a5,sp,328
    1b96:	0000                	unimp
    1b98:	0004                	0x4
    1b9a:	0000                	unimp
    1b9c:	01ee                	slli	gp,gp,0x1b
    1b9e:	0000                	unimp
    1ba0:	0064                	addi	s1,sp,12
    1ba2:	0000                	unimp
    1ba4:	0360                	addi	s0,sp,396
    1ba6:	0000                	unimp
    1ba8:	02b5                	addi	t0,t0,13
    1baa:	0000                	unimp
    1bac:	01a0                	addi	s0,sp,200
    1bae:	0000                	unimp
    1bb0:	0128                	addi	a0,sp,136
    1bb2:	0000                	unimp
    1bb4:	011d                	addi	sp,sp,7
    1bb6:	0000                	unimp
    1bb8:	026c                	addi	a1,sp,268
    1bba:	0000                	unimp
    1bbc:	004e                	c.slli	zero,0x13
    1bbe:	0000                	unimp
    1bc0:	015f 0000 021c      	0x21c0000015f
    1bc6:	0000                	unimp
    1bc8:	0286                	slli	t0,t0,0x1
    1bca:	0000                	unimp
    1bcc:	00a9                	addi	ra,ra,10
    1bce:	0000                	unimp
    1bd0:	0000020f          	0x20f
    1bd4:	0121                	addi	sp,sp,8
    1bd6:	0000                	unimp
    1bd8:	031c                	addi	a5,sp,384
    1bda:	0000                	unimp
    1bdc:	0321                	addi	t1,t1,8
    1bde:	0000                	unimp
    1be0:	02d0                	addi	a2,sp,324
    1be2:	0000                	unimp
    1be4:	02f6                	slli	t0,t0,0x1d
    1be6:	0000                	unimp
    1be8:	02e9                	addi	t0,t0,26
    1bea:	0000                	unimp
    1bec:	005c                	addi	a5,sp,4
    1bee:	0000                	unimp
    1bf0:	03dd                	addi	t2,t2,23
    1bf2:	0000                	unimp
    1bf4:	0000010f          	0x10f
    1bf8:	0355                	addi	t1,t1,21
    1bfa:	0000                	unimp
    1bfc:	0314                	addi	a3,sp,384
    1bfe:	0000                	unimp
    1c00:	00000213          	li	tp,0
    1c04:	00de                	slli	ra,ra,0x17
    1c06:	0000                	unimp
    1c08:	01cd                	addi	gp,gp,19
    1c0a:	0000                	unimp
    1c0c:	00f1                	addi	ra,ra,28
    1c0e:	0000                	unimp
    1c10:	0166                	slli	sp,sp,0x19
    1c12:	0000                	unimp
    1c14:	014c                	addi	a1,sp,132
    1c16:	0000                	unimp
    1c18:	02ac                	addi	a1,sp,328
    1c1a:	0000                	unimp
    1c1c:	02e4                	addi	s1,sp,332
    1c1e:	0000                	unimp
    1c20:	01be                	slli	gp,gp,0xf
    1c22:	0000                	unimp
    1c24:	00000137          	lui	sp,0x0
    1c28:	000002e7          	jalr	t0,zero # 0 <_start>
    1c2c:	022d                	addi	tp,tp,11
    1c2e:	0000                	unimp
    1c30:	01df 0000 022d      	0x22d000001df
    1c36:	0000                	unimp
    1c38:	039d                	addi	t2,t2,7
    1c3a:	0000                	unimp
    1c3c:	031c                	addi	a5,sp,384
    1c3e:	0000                	unimp
    1c40:	0165                	addi	sp,sp,25
    1c42:	0000                	unimp
    1c44:	0000037b          	0x37b
    1c48:	029a                	slli	t0,t0,0x6
    1c4a:	0000                	unimp
    1c4c:	0202                	c.slli64	tp
    1c4e:	0000                	unimp
    1c50:	022d                	addi	tp,tp,11
    1c52:	0000                	unimp
    1c54:	0366                	slli	t1,t1,0x19
    1c56:	0000                	unimp
    1c58:	0355                	addi	t1,t1,21
    1c5a:	0000                	unimp
    1c5c:	01b8                	addi	a4,sp,200
    1c5e:	0000                	unimp
    1c60:	003d                	c.nop	15
    1c62:	0000                	unimp
    1c64:	02a6                	slli	t0,t0,0x9
    1c66:	0000                	unimp
    1c68:	018c                	addi	a1,sp,192
    1c6a:	0000                	unimp
    1c6c:	0009                	c.nop	2
    1c6e:	0000                	unimp
    1c70:	0011                	c.nop	4
    1c72:	0000                	unimp
    1c74:	00aa                	slli	ra,ra,0xa
    1c76:	0000                	unimp
    1c78:	00000123          	sb	zero,2(zero) # 2 <_start+0x2>
    1c7c:	017c                	addi	a5,sp,140
    1c7e:	0000                	unimp
    1c80:	0218                	addi	a4,sp,256
    1c82:	0000                	unimp
    1c84:	00b9                	addi	ra,ra,14
    1c86:	0000                	unimp
    1c88:	0395                	addi	t2,t2,5
    1c8a:	0000                	unimp
    1c8c:	0000021b          	sext.w	tp,zero
    1c90:	000003d7          	0x3d7
    1c94:	00000377          	0x377
    1c98:	0036                	c.slli	zero,0xd
    1c9a:	0000                	unimp
    1c9c:	0264                	addi	s1,sp,268
    1c9e:	0000                	unimp
    1ca0:	000003b7          	lui	t2,0x0
    1ca4:	01df 0000 0097      	0x97000001df
    1caa:	0000                	unimp
    1cac:	00000007          	0x7
    1cb0:	0281                	addi	t0,t0,0
    1cb2:	0000                	unimp
    1cb4:	0000014f          	fnmadd.s	ft2,ft0,ft0,ft0,rne
    1cb8:	02da                	slli	t0,t0,0x16
    1cba:	0000                	unimp
    1cbc:	005f 0000 02d8      	0x2d80000005f
    1cc2:	0000                	unimp
    1cc4:	0118                	addi	a4,sp,128
    1cc6:	0000                	unimp
    1cc8:	0000018b          	0x18b
    1ccc:	02b0                	addi	a2,sp,328
    1cce:	0000                	unimp
    1cd0:	0000038f          	0x38f
    1cd4:	01dc                	addi	a5,sp,196
    1cd6:	0000                	unimp
    1cd8:	0000032f          	0x32f
    1cdc:	02d9                	addi	t0,t0,22
    1cde:	0000                	unimp
    1ce0:	0109                	addi	sp,sp,2
    1ce2:	0000                	unimp
    1ce4:	007f                	0x7f
    1ce6:	0000                	unimp
    1ce8:	00ec                	addi	a1,sp,76
    1cea:	0000                	unimp
    1cec:	00d6                	slli	ra,ra,0x15
    1cee:	0000                	unimp
    1cf0:	00b4                	addi	a3,sp,72
    1cf2:	0000                	unimp
    1cf4:	0006                	c.slli	zero,0x1
    1cf6:	0000                	unimp
    1cf8:	000001f7          	0x1f7
    1cfc:	0254                	addi	a3,sp,260
    1cfe:	0000                	unimp
    1d00:	00ad                	addi	ra,ra,11
    1d02:	0000                	unimp
    1d04:	00000283          	lb	t0,0(zero) # 0 <_start>
    1d08:	015a                	slli	sp,sp,0x16
    1d0a:	0000                	unimp
    1d0c:	00000257          	0x257
    1d10:	0044                	addi	s1,sp,4
    1d12:	0000                	unimp
    1d14:	0351                	addi	t1,t1,20
    1d16:	0000                	unimp
    1d18:	0292                	slli	t0,t0,0x4
    1d1a:	0000                	unimp
    1d1c:	0000026b          	0x26b
    1d20:	0079                	c.nop	30
    1d22:	0000                	unimp
    1d24:	00000083          	lb	ra,0(zero) # 0 <_start>
    1d28:	033c                	addi	a5,sp,392
    1d2a:	0000                	unimp
    1d2c:	0000029b          	sext.w	t0,zero
    1d30:	01b1                	addi	gp,gp,12
    1d32:	0000                	unimp
    1d34:	000001e7          	jalr	gp,zero # 0 <_start>
    1d38:	02f1                	addi	t0,t0,28
    1d3a:	0000                	unimp
    1d3c:	007d                	c.nop	31
    1d3e:	0000                	unimp
    1d40:	0272                	slli	tp,tp,0x1c
    1d42:	0000                	unimp
    1d44:	000e                	c.slli	zero,0x3
    1d46:	0000                	unimp
    1d48:	000a                	c.slli	zero,0x2
    1d4a:	0000                	unimp
    1d4c:	00000193          	li	gp,0
    1d50:	006a                	c.slli	zero,0x1a
    1d52:	0000                	unimp
    1d54:	000002bf 00000332 	0x332000002bf
    1d5c:	03c4                	addi	s1,sp,452
    1d5e:	0000                	unimp
    1d60:	0196                	slli	gp,gp,0x5
    1d62:	0000                	unimp
    1d64:	036a                	slli	t1,t1,0x1a
    1d66:	0000                	unimp
    1d68:	0358                	addi	a4,sp,388
    1d6a:	0000                	unimp
    1d6c:	0056                	c.slli	zero,0x15
    1d6e:	0000                	unimp
    1d70:	003c                	addi	a5,sp,8
    1d72:	0000                	unimp
    1d74:	0294                	addi	a3,sp,320
    1d76:	0000                	unimp
    1d78:	0000029b          	sext.w	t0,zero
    1d7c:	0099                	addi	ra,ra,6
    1d7e:	0000                	unimp
    1d80:	0079                	c.nop	30
    1d82:	0000                	unimp
    1d84:	0062                	c.slli	zero,0x18
    1d86:	0000                	unimp
    1d88:	019c                	addi	a5,sp,192
    1d8a:	0000                	unimp
    1d8c:	00ec                	addi	a1,sp,76
    1d8e:	0000                	unimp
    1d90:	000c                	0xc
    1d92:	0000                	unimp
    1d94:	000001a7          	0x1a7
    1d98:	03c5                	addi	t2,t2,17
    1d9a:	0000                	unimp
    1d9c:	00d8                	addi	a4,sp,68
    1d9e:	0000                	unimp
    1da0:	026d                	addi	tp,tp,27
    1da2:	0000                	unimp
    1da4:	0169                	addi	sp,sp,26
    1da6:	0000                	unimp
    1da8:	0399                	addi	t2,t2,6
    1daa:	0000                	unimp
    1dac:	000002cb          	fnmsub.s	ft5,ft0,ft0,ft0,rne
    1db0:	00000287          	0x287
    1db4:	0000012b          	0x12b
    1db8:	0376                	slli	t1,t1,0x1d
    1dba:	0000                	unimp
    1dbc:	02aa                	slli	t0,t0,0xa
    1dbe:	0000                	unimp
    1dc0:	0024                	addi	s1,sp,8
    1dc2:	0000                	unimp
    1dc4:	01ed                	addi	gp,gp,27
    1dc6:	0000                	unimp
    1dc8:	00000227          	0x227
    1dcc:	0219                	addi	tp,tp,6
    1dce:	0000                	unimp
    1dd0:	03c9                	addi	t2,t2,18
    1dd2:	0000                	unimp
    1dd4:	00000283          	lb	t0,0(zero) # 0 <_start>
    1dd8:	01b2                	slli	gp,gp,0xc
    1dda:	0000                	unimp
    1ddc:	019f 0000 012f      	0x12f0000019f
    1de2:	0000                	unimp
    1de4:	01b6                	slli	gp,gp,0xd
    1de6:	0000                	unimp
    1de8:	035c                	addi	a5,sp,388
    1dea:	0000                	unimp
    1dec:	000000cb          	fnmsub.s	ft1,ft0,ft0,ft0,rne
    1df0:	01de                	slli	gp,gp,0x17
    1df2:	0000                	unimp
    1df4:	03dc                	addi	a5,sp,452
    1df6:	0000                	unimp
    1df8:	000002a3          	sb	zero,5(zero) # 5 <_start+0x5>
    1dfc:	000002cf          	fnmadd.s	ft5,ft0,ft0,ft0,rne
    1e00:	03de                	slli	t2,t2,0x17
    1e02:	0000                	unimp
    1e04:	0152                	slli	sp,sp,0x14
    1e06:	0000                	unimp
    1e08:	01c2                	slli	gp,gp,0x10
    1e0a:	0000                	unimp
    1e0c:	0279                	addi	tp,tp,30
    1e0e:	0000                	unimp
    1e10:	0000009b          	sext.w	ra,zero
    1e14:	0286                	slli	t0,t0,0x1
    1e16:	0000                	unimp
    1e18:	01c4                	addi	s1,sp,196
    1e1a:	0000                	unimp
    1e1c:	000001ab          	0x1ab
    1e20:	01fd                	addi	gp,gp,31
    1e22:	0000                	unimp
    1e24:	03dc                	addi	a5,sp,452
    1e26:	0000                	unimp
    1e28:	01aa                	slli	gp,gp,0xa
    1e2a:	0000                	unimp
    1e2c:	000c                	0xc
    1e2e:	0000                	unimp
    1e30:	000001e3          	beqz	zero,2632 <input2_data+0xbaa>
    1e34:	008e                	slli	ra,ra,0x3
    1e36:	0000                	unimp
    1e38:	00000153          	fadd.s	ft2,ft0,ft0,rne
    1e3c:	0186                	slli	gp,gp,0x1
    1e3e:	0000                	unimp
    1e40:	0032                	c.slli	zero,0xc
    1e42:	0000                	unimp
    1e44:	000000ab          	0xab
    1e48:	0259                	addi	tp,tp,22
    1e4a:	0000                	unimp
    1e4c:	0069                	c.nop	26
    1e4e:	0000                	unimp
    1e50:	03c8                	addi	a0,sp,452
    1e52:	0000                	unimp
    1e54:	0079                	c.nop	30
    1e56:	0000                	unimp
    1e58:	0000036f          	jal	t1,1e58 <input2_data+0x3d0>
    1e5c:	0051                	c.nop	20
    1e5e:	0000                	unimp
    1e60:	0366                	slli	t1,t1,0x19
    1e62:	0000                	unimp
    1e64:	0258                	addi	a4,sp,260
    1e66:	0000                	unimp
    1e68:	0000025b          	0x25b
    1e6c:	00000367          	jalr	t1,zero # 0 <_start>
    1e70:	00000377          	0x377
    1e74:	0262                	slli	tp,tp,0x18
    1e76:	0000                	unimp
    1e78:	0194                	addi	a3,sp,192
    1e7a:	0000                	unimp
    1e7c:	00ea                	slli	ra,ra,0x1a
    1e7e:	0000                	unimp
    1e80:	02e9                	addi	t0,t0,26
    1e82:	0000                	unimp
    1e84:	020e                	slli	tp,tp,0x3
    1e86:	0000                	unimp
    1e88:	00000113          	li	sp,0
    1e8c:	01b9                	addi	gp,gp,14
    1e8e:	0000                	unimp
    1e90:	00e2                	slli	ra,ra,0x18
    1e92:	0000                	unimp
    1e94:	02f0                	addi	a2,sp,332
    1e96:	0000                	unimp
    1e98:	000003af          	0x3af
    1e9c:	02d6                	slli	t0,t0,0x15
    1e9e:	0000                	unimp
    1ea0:	02c5                	addi	t0,t0,17
    1ea2:	0000                	unimp
    1ea4:	00c9                	addi	ra,ra,18
    1ea6:	0000                	unimp
    1ea8:	0036                	c.slli	zero,0xd
    1eaa:	0000                	unimp
    1eac:	02f6                	slli	t0,t0,0x1d
    1eae:	0000                	unimp
    1eb0:	0035                	c.nop	13
    1eb2:	0000                	unimp
    1eb4:	018d                	addi	gp,gp,3
    1eb6:	0000                	unimp
    1eb8:	0029                	c.nop	10
    1eba:	0000                	unimp
    1ebc:	008d                	addi	ra,ra,3
    1ebe:	0000                	unimp
    1ec0:	01a0                	addi	s0,sp,200
    1ec2:	0000                	unimp
    1ec4:	000002eb          	0x2eb
    1ec8:	000000db          	0xdb
    1ecc:	01de                	slli	gp,gp,0x17
    1ece:	0000                	unimp
    1ed0:	0302                	c.slli64	t1
    1ed2:	0000                	unimp
    1ed4:	00b4                	addi	a3,sp,72
    1ed6:	0000                	unimp
    1ed8:	01e2                	slli	gp,gp,0x18
    1eda:	0000                	unimp
    1edc:	000002b3          	add	t0,zero,zero
    1ee0:	02d5                	addi	t0,t0,21
    1ee2:	0000                	unimp
    1ee4:	00ad                	addi	ra,ra,11
    1ee6:	0000                	unimp
    1ee8:	00ba                	slli	ra,ra,0xe
    1eea:	0000                	unimp
    1eec:	0392                	slli	t2,t2,0x4
    1eee:	0000                	unimp
    1ef0:	0001                	nop
    1ef2:	0000                	unimp
    1ef4:	000003c3          	fmadd.s	ft7,ft0,ft0,ft0,rne
    1ef8:	000000f7          	0xf7
    1efc:	01d0                	addi	a2,sp,196
    1efe:	0000                	unimp
    1f00:	016a                	slli	sp,sp,0x1a
    1f02:	0000                	unimp
    1f04:	0209                	addi	tp,tp,2
    1f06:	0000                	unimp
    1f08:	00e9                	addi	ra,ra,26
    1f0a:	0000                	unimp
    1f0c:	0078                	addi	a4,sp,12
    1f0e:	0000                	unimp
    1f10:	0028                	addi	a0,sp,8
    1f12:	0000                	unimp
    1f14:	0000030b          	0x30b
    1f18:	000000c3          	fmadd.s	ft1,ft0,ft0,ft0,rne
    1f1c:	00a1                	addi	ra,ra,8
    1f1e:	0000                	unimp
    1f20:	000002e7          	jalr	t0,zero # 0 <_start>
    1f24:	000001b7          	lui	gp,0x0
    1f28:	00000163          	beqz	zero,1f2a <input2_data+0x4a2>
    1f2c:	00000193          	li	gp,0
    1f30:	008d                	addi	ra,ra,3
    1f32:	0000                	unimp
    1f34:	0279                	addi	tp,tp,30
    1f36:	0000                	unimp
    1f38:	0121                	addi	sp,sp,8
    1f3a:	0000                	unimp
    1f3c:	030e                	slli	t1,t1,0x3
    1f3e:	0000                	unimp
    1f40:	0140                	addi	s0,sp,132
    1f42:	0000                	unimp
    1f44:	027c                	addi	a5,sp,268
    1f46:	0000                	unimp
    1f48:	0076                	c.slli	zero,0x1d
    1f4a:	0000                	unimp
    1f4c:	0354                	addi	a3,sp,388
    1f4e:	0000                	unimp
    1f50:	0046                	c.slli	zero,0x11
    1f52:	0000                	unimp
    1f54:	0330                	addi	a2,sp,392
    1f56:	0000                	unimp
    1f58:	0184                	addi	s1,sp,192
    1f5a:	0000                	unimp
    1f5c:	03ba                	slli	t2,t2,0xe
    1f5e:	0000                	unimp
    1f60:	0024                	addi	s1,sp,8
    1f62:	0000                	unimp
    1f64:	0010                	0x10
    1f66:	0000                	unimp
    1f68:	02ba                	slli	t0,t0,0xe
    1f6a:	0000                	unimp
    1f6c:	000002b7          	lui	t0,0x0
    1f70:	02a5                	addi	t0,t0,9
    1f72:	0000                	unimp
    1f74:	0256                	slli	tp,tp,0x15
    1f76:	0000                	unimp
    1f78:	00000373          	0x373
    1f7c:	0338                	addi	a4,sp,392
    1f7e:	0000                	unimp
    1f80:	02ea                	slli	t0,t0,0x1a
    1f82:	0000                	unimp
    1f84:	01ce                	slli	gp,gp,0x13
    1f86:	0000                	unimp
    1f88:	01ff                	0x1ff
    1f8a:	0000                	unimp
    1f8c:	0216                	slli	tp,tp,0x5
    1f8e:	0000                	unimp
    1f90:	01b8                	addi	a4,sp,200
    1f92:	0000                	unimp
    1f94:	01ac                	addi	a1,sp,200
    1f96:	0000                	unimp
    1f98:	02dc                	addi	a5,sp,324
    1f9a:	0000                	unimp
    1f9c:	02d6                	slli	t0,t0,0x15
    1f9e:	0000                	unimp
    1fa0:	02be                	slli	t0,t0,0xf
    1fa2:	0000                	unimp
    1fa4:	00000223          	sb	zero,4(zero) # 4 <_start+0x4>
    1fa8:	0056                	c.slli	zero,0x15
    1faa:	0000                	unimp
    1fac:	031e                	slli	t1,t1,0x7
    1fae:	0000                	unimp
    1fb0:	000000d7          	0xd7
    1fb4:	0015                	c.nop	5
    1fb6:	0000                	unimp
    1fb8:	0000028b          	0x28b
    1fbc:	0000003b          	addw	zero,zero,zero
    1fc0:	01ad                	addi	gp,gp,11
    1fc2:	0000                	unimp
    1fc4:	0291                	addi	t0,t0,4
    1fc6:	0000                	unimp
    1fc8:	0060                	addi	s0,sp,12
    1fca:	0000                	unimp
    1fcc:	03cd                	addi	t2,t2,19
    1fce:	0000                	unimp
    1fd0:	00000293          	li	t0,0
    1fd4:	03c6                	slli	t2,t2,0x11
    1fd6:	0000                	unimp
    1fd8:	020c                	addi	a1,sp,256
    1fda:	0000                	unimp
    1fdc:	003e                	c.slli	zero,0xf
    1fde:	0000                	unimp
    1fe0:	0271                	addi	tp,tp,28
    1fe2:	0000                	unimp
    1fe4:	0000012f          	0x12f
    1fe8:	02ca                	slli	t0,t0,0x12
    1fea:	0000                	unimp
    1fec:	0199                	addi	gp,gp,6
    1fee:	0000                	unimp
    1ff0:	00000037          	lui	zero,0x0
    1ff4:	02d8                	addi	a4,sp,324
    1ff6:	0000                	unimp
    1ff8:	0131                	addi	sp,sp,12
    1ffa:	0000                	unimp
    1ffc:	01b4                	addi	a3,sp,200
    1ffe:	0000                	unimp
    2000:	0385                	addi	t2,t2,1
    2002:	0000                	unimp
    2004:	0250                	addi	a2,sp,260
    2006:	0000                	unimp
    2008:	000002b3          	add	t0,zero,zero
    200c:	031c                	addi	a5,sp,384
    200e:	0000                	unimp
    2010:	01f1                	addi	gp,gp,28
    2012:	0000                	unimp
    2014:	00b1                	addi	ra,ra,12
    2016:	0000                	unimp
    2018:	03ac                	addi	a1,sp,456
    201a:	0000                	unimp
    201c:	000003e3          	beqz	zero,2822 <input2_data+0xd9a>
    2020:	01e0                	addi	s0,sp,204
    2022:	0000                	unimp
    2024:	009e                	slli	ra,ra,0x7
    2026:	0000                	unimp
    2028:	0336                	slli	t1,t1,0xd
    202a:	0000                	unimp
    202c:	00000263          	beqz	zero,2030 <input2_data+0x5a8>
    2030:	02a8                	addi	a0,sp,328
    2032:	0000                	unimp
    2034:	000e                	c.slli	zero,0x3
    2036:	0000                	unimp
    2038:	0000006f          	j	2038 <input2_data+0x5b0>
    203c:	031d                	addi	t1,t1,7
    203e:	0000                	unimp
    2040:	00b9                	addi	ra,ra,14
    2042:	0000                	unimp
    2044:	0000                	unimp
    2046:	0000                	unimp
    2048:	02ce                	slli	t0,t0,0x13
    204a:	0000                	unimp
    204c:	0060                	addi	s0,sp,12
    204e:	0000                	unimp
    2050:	02ed                	addi	t0,t0,27
    2052:	0000                	unimp
    2054:	000002e3          	beqz	zero,2858 <input2_data+0xdd0>
    2058:	032e                	slli	t1,t1,0xb
    205a:	0000                	unimp
    205c:	000001b3          	add	gp,zero,zero
    2060:	0146                	slli	sp,sp,0x11
    2062:	0000                	unimp
    2064:	0025                	c.nop	9
    2066:	0000                	unimp
    2068:	0021                	c.nop	8
    206a:	0000                	unimp
    206c:	025d                	addi	tp,tp,23
    206e:	0000                	unimp
    2070:	000003a7          	0x3a7
    2074:	0000001b          	sext.w	zero,zero
    2078:	0058                	addi	a4,sp,4
    207a:	0000                	unimp
    207c:	01b9                	addi	gp,gp,14
    207e:	0000                	unimp
    2080:	00000153          	fadd.s	ft2,ft0,ft0,rne
    2084:	0158                	addi	a4,sp,132
    2086:	0000                	unimp
    2088:	022a                	slli	tp,tp,0xa
    208a:	0000                	unimp
    208c:	016d                	addi	sp,sp,27
    208e:	0000                	unimp
    2090:	03ba                	slli	t2,t2,0xe
    2092:	0000                	unimp
    2094:	027f                	0x27f
    2096:	0000                	unimp
    2098:	018c                	addi	a1,sp,192
    209a:	0000                	unimp
    209c:	03df 0000 00f9      	0xf9000003df
    20a2:	0000                	unimp
    20a4:	0152                	slli	sp,sp,0x14
    20a6:	0000                	unimp
    20a8:	0340                	addi	s0,sp,388
    20aa:	0000                	unimp
    20ac:	03ce                	slli	t2,t2,0x13
    20ae:	0000                	unimp
    20b0:	0189                	addi	gp,gp,2
    20b2:	0000                	unimp
    20b4:	010a                	slli	sp,sp,0x2
    20b6:	0000                	unimp
    20b8:	01d6                	slli	gp,gp,0x15
    20ba:	0000                	unimp
    20bc:	015c                	addi	a5,sp,132
    20be:	0000                	unimp
    20c0:	0150                	addi	a2,sp,132
    20c2:	0000                	unimp
    20c4:	000001a3          	sb	zero,3(zero) # 3 <_start+0x3>
    20c8:	00f9                	addi	ra,ra,30
    20ca:	0000                	unimp
    20cc:	000000d7          	0xd7
    20d0:	021e                	slli	tp,tp,0x7
    20d2:	0000                	unimp
    20d4:	00000387          	0x387
    20d8:	027c                	addi	a5,sp,268
    20da:	0000                	unimp
    20dc:	02d9                	addi	t0,t0,22
    20de:	0000                	unimp
    20e0:	0245                	addi	tp,tp,17
    20e2:	0000                	unimp
    20e4:	0334                	addi	a3,sp,392
    20e6:	0000                	unimp
    20e8:	029f 0000 03d3      	0x3d30000029f
    20ee:	0000                	unimp
    20f0:	01a2                	slli	gp,gp,0x8
    20f2:	0000                	unimp
    20f4:	029e                	slli	t0,t0,0x7
    20f6:	0000                	unimp
    20f8:	0398                	addi	a4,sp,448
    20fa:	0000                	unimp
    20fc:	0238                	addi	a4,sp,264
    20fe:	0000                	unimp
    2100:	02e9                	addi	t0,t0,26
    2102:	0000                	unimp
    2104:	0296                	slli	t0,t0,0x5
    2106:	0000                	unimp
    2108:	0000008b          	0x8b
    210c:	0181                	addi	gp,gp,0
    210e:	0000                	unimp
    2110:	039f 0000 00ad      	0xad0000039f
    2116:	0000                	unimp
    2118:	01c9                	addi	gp,gp,18
    211a:	0000                	unimp
    211c:	013c                	addi	a5,sp,136
    211e:	0000                	unimp
    2120:	000000b7          	lui	ra,0x0
    2124:	01dd                	addi	gp,gp,23
    2126:	0000                	unimp
    2128:	00c4                	addi	s1,sp,68
    212a:	0000                	unimp
    212c:	0000018f          	0x18f
    2130:	01a0                	addi	s0,sp,200
    2132:	0000                	unimp
    2134:	0325                	addi	t1,t1,9
    2136:	0000                	unimp
    2138:	03e4                	addi	s1,sp,460
    213a:	0000                	unimp
    213c:	010e                	slli	sp,sp,0x3
    213e:	0000                	unimp
    2140:	02df 0000 02b8      	0x2b8000002df
    2146:	0000                	unimp
    2148:	0339                	addi	t1,t1,14
    214a:	0000                	unimp
    214c:	0210                	addi	a2,sp,256
    214e:	0000                	unimp
    2150:	0032                	c.slli	zero,0xc
    2152:	0000                	unimp
    2154:	0000026f          	jal	tp,2154 <input2_data+0x6cc>
    2158:	0219                	addi	tp,tp,6
    215a:	0000                	unimp
    215c:	00000057          	0x57
    2160:	0126                	slli	sp,sp,0x9
    2162:	0000                	unimp
    2164:	00000363          	beqz	zero,216a <input2_data+0x6e2>
    2168:	006e                	c.slli	zero,0x1b
    216a:	0000                	unimp
    216c:	018e                	slli	gp,gp,0x3
    216e:	0000                	unimp
    2170:	030d                	addi	t1,t1,3
    2172:	0000                	unimp
    2174:	0286                	slli	t0,t0,0x1
    2176:	0000                	unimp
    2178:	00000177          	0x177
    217c:	000003af          	0x3af
    2180:	0381                	addi	t2,t2,0
    2182:	0000                	unimp
    2184:	024d                	addi	tp,tp,19
    2186:	0000                	unimp
    2188:	002c                	addi	a1,sp,8
    218a:	0000                	unimp
    218c:	0120                	addi	s0,sp,136
    218e:	0000                	unimp
    2190:	034d                	addi	t1,t1,19
    2192:	0000                	unimp
    2194:	02e6                	slli	t0,t0,0x19
    2196:	0000                	unimp
    2198:	00000063          	beqz	zero,2198 <input2_data+0x710>
    219c:	020a                	slli	tp,tp,0x2
    219e:	0000                	unimp
    21a0:	000001bb          	addw	gp,zero,zero
    21a4:	01b0                	addi	a2,sp,200
    21a6:	0000                	unimp
    21a8:	00a5                	addi	ra,ra,9
    21aa:	0000                	unimp
    21ac:	03a2                	slli	t2,t2,0x8
    21ae:	0000                	unimp
    21b0:	001c                	0x1c
    21b2:	0000                	unimp
    21b4:	01cd                	addi	gp,gp,19
    21b6:	0000                	unimp
    21b8:	00000143          	fmadd.s	ft2,ft0,ft0,ft0,rne
    21bc:	0110                	addi	a2,sp,128
    21be:	0000                	unimp
    21c0:	0178                	addi	a4,sp,140
    21c2:	0000                	unimp
    21c4:	0154                	addi	a3,sp,132
    21c6:	0000                	unimp
    21c8:	0382                	c.slli64	t2
    21ca:	0000                	unimp
    21cc:	009e                	slli	ra,ra,0x7
    21ce:	0000                	unimp
    21d0:	00a8                	addi	a0,sp,72
    21d2:	0000                	unimp
    21d4:	000001bb          	addw	gp,zero,zero
    21d8:	00c1                	addi	ra,ra,16
    21da:	0000                	unimp
    21dc:	00000277          	0x277
    21e0:	000003a7          	0x3a7
    21e4:	0112                	slli	sp,sp,0x4
    21e6:	0000                	unimp
    21e8:	030d                	addi	t1,t1,3
    21ea:	0000                	unimp
    21ec:	00b9                	addi	ra,ra,14
    21ee:	0000                	unimp
    21f0:	0000026b          	0x26b
    21f4:	0124                	addi	s1,sp,136
    21f6:	0000                	unimp
    21f8:	03a5                	addi	t2,t2,9
    21fa:	0000                	unimp
    21fc:	009c                	addi	a5,sp,64
    21fe:	0000                	unimp
    2200:	0000033b          	addw	t1,zero,zero
    2204:	0058                	addi	a4,sp,4
    2206:	0000                	unimp
    2208:	000003db          	0x3db
    220c:	0275                	addi	tp,tp,29
    220e:	0000                	unimp
    2210:	0289                	addi	t0,t0,2
    2212:	0000                	unimp
    2214:	0020                	addi	s0,sp,8
    2216:	0000                	unimp
    2218:	0001                	nop
    221a:	0000                	unimp
    221c:	02e8                	addi	a0,sp,332
    221e:	0000                	unimp
    2220:	0000018f          	0x18f
    2224:	00000393          	li	t2,0
    2228:	00000317          	auipc	t1,0x0
    222c:	022a                	slli	tp,tp,0xa
    222e:	0000                	unimp
    2230:	03d8                	addi	a4,sp,452
    2232:	0000                	unimp
    2234:	0212                	slli	tp,tp,0x4
    2236:	0000                	unimp
    2238:	0258                	addi	a4,sp,260
    223a:	0000                	unimp
    223c:	0191                	addi	gp,gp,4
    223e:	0000                	unimp
    2240:	000002ab          	0x2ab
    2244:	021c                	addi	a5,sp,256
    2246:	0000                	unimp
    2248:	00000387          	0x387
    224c:	0078                	addi	a4,sp,12
    224e:	0000                	unimp
    2250:	000003e3          	beqz	zero,2a56 <input1_data+0x2e>
    2254:	0209                	addi	tp,tp,2
    2256:	0000                	unimp
    2258:	026e                	slli	tp,tp,0x1b
    225a:	0000                	unimp
    225c:	00e0                	addi	s0,sp,76
    225e:	0000                	unimp
    2260:	037f                	0x37f
    2262:	0000                	unimp
    2264:	0212                	slli	tp,tp,0x4
    2266:	0000                	unimp
    2268:	0334                	addi	a3,sp,392
    226a:	0000                	unimp
    226c:	0000028b          	0x28b
    2270:	00e2                	slli	ra,ra,0x18
    2272:	0000                	unimp
    2274:	0060                	addi	s0,sp,12
    2276:	0000                	unimp
    2278:	0106                	slli	sp,sp,0x1
    227a:	0000                	unimp
    227c:	0239                	addi	tp,tp,14
    227e:	0000                	unimp
    2280:	00ee                	slli	ra,ra,0x1b
    2282:	0000                	unimp
    2284:	007e                	c.slli	zero,0x1f
    2286:	0000                	unimp
    2288:	0262                	slli	tp,tp,0x18
    228a:	0000                	unimp
    228c:	000000bf 000000ee 	0xee000000bf
    2294:	031c                	addi	a5,sp,384
    2296:	0000                	unimp
    2298:	0374                	addi	a3,sp,396
    229a:	0000                	unimp
    229c:	023d                	addi	tp,tp,15
    229e:	0000                	unimp
    22a0:	006c                	addi	a1,sp,12
    22a2:	0000                	unimp
    22a4:	008c                	addi	a1,sp,64
    22a6:	0000                	unimp
    22a8:	0315                	addi	t1,t1,5
    22aa:	0000                	unimp
    22ac:	0354                	addi	a3,sp,388
    22ae:	0000                	unimp
    22b0:	00000017          	auipc	zero,0x0
    22b4:	02c0                	addi	s0,sp,324
    22b6:	0000                	unimp
    22b8:	037a                	slli	t1,t1,0x1e
    22ba:	0000                	unimp
    22bc:	01e0                	addi	s0,sp,204
    22be:	0000                	unimp
    22c0:	0034                	addi	a3,sp,8
    22c2:	0000                	unimp
    22c4:	0174                	addi	a3,sp,140
    22c6:	0000                	unimp
    22c8:	00c9                	addi	ra,ra,18
    22ca:	0000                	unimp
    22cc:	0222                	slli	tp,tp,0x8
    22ce:	0000                	unimp
    22d0:	0198                	addi	a4,sp,192
    22d2:	0000                	unimp
    22d4:	00000077          	0x77
    22d8:	0285                	addi	t0,t0,1
    22da:	0000                	unimp
    22dc:	01d0                	addi	a2,sp,196
    22de:	0000                	unimp
    22e0:	0051                	c.nop	20
    22e2:	0000                	unimp
    22e4:	0125                	addi	sp,sp,9
    22e6:	0000                	unimp
    22e8:	0034                	addi	a3,sp,8
    22ea:	0000                	unimp
    22ec:	0370                	addi	a2,sp,396
    22ee:	0000                	unimp
    22f0:	00e0                	addi	s0,sp,76
    22f2:	0000                	unimp
    22f4:	02e8                	addi	a0,sp,332
    22f6:	0000                	unimp
    22f8:	02df 0000 0376      	0x376000002df
    22fe:	0000                	unimp
    2300:	000000a7          	0xa7
    2304:	0001                	nop
    2306:	0000                	unimp
    2308:	0214                	addi	a3,sp,256
    230a:	0000                	unimp
    230c:	0141                	addi	sp,sp,16
    230e:	0000                	unimp
    2310:	00a9                	addi	ra,ra,10
    2312:	0000                	unimp
    2314:	01e5                	addi	gp,gp,25
    2316:	0000                	unimp
    2318:	0065                	c.nop	25
    231a:	0000                	unimp
    231c:	00b1                	addi	ra,ra,12
    231e:	0000                	unimp
    2320:	002a                	c.slli	zero,0xa
    2322:	0000                	unimp
    2324:	02c4                	addi	s1,sp,324
    2326:	0000                	unimp
    2328:	028e                	slli	t0,t0,0x3
    232a:	0000                	unimp
    232c:	00000393          	li	t2,0
    2330:	0271                	addi	tp,tp,28
    2332:	0000                	unimp
    2334:	00f2                	slli	ra,ra,0x1c
    2336:	0000                	unimp
    2338:	0336                	slli	t1,t1,0xd
    233a:	0000                	unimp
    233c:	0000031b          	sext.w	t1,zero
    2340:	0281                	addi	t0,t0,0
    2342:	0000                	unimp
    2344:	00fc                	addi	a5,sp,76
    2346:	0000                	unimp
    2348:	00f5                	addi	ra,ra,29
    234a:	0000                	unimp
    234c:	00000097          	auipc	ra,0x0
    2350:	036c                	addi	a1,sp,396
    2352:	0000                	unimp
    2354:	014d                	addi	sp,sp,19
    2356:	0000                	unimp
    2358:	0259                	addi	tp,tp,22
    235a:	0000                	unimp
    235c:	03aa                	slli	t2,t2,0xa
    235e:	0000                	unimp
    2360:	00000307          	0x307
    2364:	018d                	addi	gp,gp,3
    2366:	0000                	unimp
    2368:	00e9                	addi	ra,ra,26
    236a:	0000                	unimp
    236c:	000002f3          	0x2f3
    2370:	01c6                	slli	gp,gp,0x11
    2372:	0000                	unimp
    2374:	01a8                	addi	a0,sp,200
    2376:	0000                	unimp
    2378:	00d2                	slli	ra,ra,0x14
    237a:	0000                	unimp
    237c:	03c2                	slli	t2,t2,0x10
    237e:	0000                	unimp
    2380:	0384                	addi	s1,sp,448
    2382:	0000                	unimp
    2384:	0000039b          	sext.w	t2,zero
    2388:	0000028f          	0x28f
    238c:	0211                	addi	tp,tp,4
    238e:	0000                	unimp
    2390:	00000253          	fadd.s	ft4,ft0,ft0,rne
    2394:	005a                	c.slli	zero,0x16
    2396:	0000                	unimp
    2398:	01d0                	addi	a2,sp,196
    239a:	0000                	unimp
    239c:	02ad                	addi	t0,t0,11
    239e:	0000                	unimp
    23a0:	0046                	c.slli	zero,0x11
    23a2:	0000                	unimp
    23a4:	02f2                	slli	t0,t0,0x1c
    23a6:	0000                	unimp
    23a8:	0020                	addi	s0,sp,8
    23aa:	0000                	unimp
    23ac:	01ee                	slli	gp,gp,0x1b
    23ae:	0000                	unimp
    23b0:	0019                	c.nop	6
    23b2:	0000                	unimp
    23b4:	0185                	addi	gp,gp,1
    23b6:	0000                	unimp
    23b8:	01e8                	addi	a0,sp,204
    23ba:	0000                	unimp
    23bc:	0025                	c.nop	9
    23be:	0000                	unimp
    23c0:	0199                	addi	gp,gp,6
    23c2:	0000                	unimp
    23c4:	027f                	0x27f
    23c6:	0000                	unimp
    23c8:	0000001b          	sext.w	zero,zero
    23cc:	03b6                	slli	t2,t2,0xd
    23ce:	0000                	unimp
    23d0:	0000021b          	sext.w	tp,zero
    23d4:	0050                	addi	a2,sp,4
    23d6:	0000                	unimp
    23d8:	0000012f          	0x12f
    23dc:	000002d3          	fadd.s	ft5,ft0,ft0,rne
    23e0:	02de                	slli	t0,t0,0x17
    23e2:	0000                	unimp
    23e4:	007d                	c.nop	31
    23e6:	0000                	unimp
    23e8:	0228                	addi	a0,sp,264
    23ea:	0000                	unimp
    23ec:	00f8                	addi	a4,sp,76
    23ee:	0000                	unimp
    23f0:	0000006b          	0x6b
    23f4:	016a                	slli	sp,sp,0x1a
    23f6:	0000                	unimp
    23f8:	0030                	addi	a2,sp,8
    23fa:	0000                	unimp
    23fc:	0365                	addi	t1,t1,25
    23fe:	0000                	unimp
    2400:	0090                	addi	a2,sp,64
    2402:	0000                	unimp
    2404:	0349                	addi	t1,t1,18
    2406:	0000                	unimp
    2408:	02d4                	addi	a3,sp,324
    240a:	0000                	unimp
    240c:	0000014f          	fnmadd.s	ft2,ft0,ft0,ft0,rne
    2410:	01d6                	slli	gp,gp,0x15
    2412:	0000                	unimp
    2414:	00000107          	0x107
    2418:	00000157          	0x157
    241c:	0329                	addi	t1,t1,10
    241e:	0000                	unimp
    2420:	02a5                	addi	t0,t0,9
    2422:	0000                	unimp
    2424:	00000153          	fadd.s	ft2,ft0,ft0,rne
    2428:	0150                	addi	a2,sp,132
    242a:	0000                	unimp
    242c:	019a                	slli	gp,gp,0x6
    242e:	0000                	unimp
    2430:	01d1                	addi	gp,gp,20
    2432:	0000                	unimp
    2434:	0038                	addi	a4,sp,8
    2436:	0000                	unimp
    2438:	024e                	slli	tp,tp,0x13
    243a:	0000                	unimp
    243c:	01e5                	addi	gp,gp,25
    243e:	0000                	unimp
    2440:	0196                	slli	gp,gp,0x5
    2442:	0000                	unimp
    2444:	03e1                	addi	t2,t2,24
    2446:	0000                	unimp
    2448:	02ea                	slli	t0,t0,0x1a
    244a:	0000                	unimp
    244c:	00ee                	slli	ra,ra,0x1b
    244e:	0000                	unimp
    2450:	020d                	addi	tp,tp,3
    2452:	0000                	unimp
    2454:	0150                	addi	a2,sp,132
    2456:	0000                	unimp
    2458:	0100                	addi	s0,sp,128
    245a:	0000                	unimp
    245c:	0086                	slli	ra,ra,0x1
    245e:	0000                	unimp
    2460:	0222                	slli	tp,tp,0x8
    2462:	0000                	unimp
    2464:	02d2                	slli	t0,t0,0x14
    2466:	0000                	unimp
    2468:	0000016f          	jal	sp,2468 <input2_data+0x9e0>
    246c:	000003af          	0x3af
    2470:	006a                	c.slli	zero,0x1a
    2472:	0000                	unimp
    2474:	0275                	addi	tp,tp,29
    2476:	0000                	unimp
    2478:	018c                	addi	a1,sp,192
    247a:	0000                	unimp
    247c:	00d0                	addi	a2,sp,68
    247e:	0000                	unimp
    2480:	01ad                	addi	gp,gp,11
    2482:	0000                	unimp
    2484:	0000020b          	0x20b
    2488:	0082                	c.slli64	ra
    248a:	0000                	unimp
    248c:	00000163          	beqz	zero,248e <input2_data+0xa06>
    2490:	03de                	slli	t2,t2,0x17
    2492:	0000                	unimp
    2494:	02a1                	addi	t0,t0,8
    2496:	0000                	unimp
    2498:	03df 0000 02cf      	0x2cf000003df
    249e:	0000                	unimp
    24a0:	01c1                	addi	gp,gp,16
    24a2:	0000                	unimp
    24a4:	0054                	addi	a3,sp,4
    24a6:	0000                	unimp
    24a8:	0268                	addi	a0,sp,268
    24aa:	0000                	unimp
    24ac:	000000d3          	fadd.s	ft1,ft0,ft0,rne
    24b0:	000002c3          	fmadd.s	ft5,ft0,ft0,ft0,rne
    24b4:	02e1                	addi	t0,t0,24
    24b6:	0000                	unimp
    24b8:	0000034f          	fnmadd.s	ft6,ft0,ft0,ft0,rne
    24bc:	01c4                	addi	s1,sp,196
    24be:	0000                	unimp
    24c0:	013c                	addi	a5,sp,136
    24c2:	0000                	unimp
    24c4:	03ce                	slli	t2,t2,0x13
    24c6:	0000                	unimp
    24c8:	02ea                	slli	t0,t0,0x1a
    24ca:	0000                	unimp
    24cc:	031c                	addi	a5,sp,384
    24ce:	0000                	unimp
    24d0:	020a                	slli	tp,tp,0x2
    24d2:	0000                	unimp
    24d4:	026a                	slli	tp,tp,0x1a
    24d6:	0000                	unimp
    24d8:	00000073          	ecall
    24dc:	000002d7          	0x2d7
    24e0:	00e2                	slli	ra,ra,0x18
    24e2:	0000                	unimp
    24e4:	00a5                	addi	ra,ra,9
    24e6:	0000                	unimp
    24e8:	00c8                	addi	a0,sp,68
    24ea:	0000                	unimp
    24ec:	033e                	slli	t1,t1,0xf
    24ee:	0000                	unimp
    24f0:	02e6                	slli	t0,t0,0x19
    24f2:	0000                	unimp
    24f4:	000000bb          	addw	ra,zero,zero
    24f8:	02c1                	addi	t0,t0,16
    24fa:	0000                	unimp
    24fc:	029f 0000 0311      	0x3110000029f
    2502:	0000                	unimp
    2504:	0376                	slli	t1,t1,0x1d
    2506:	0000                	unimp
    2508:	03c2                	slli	t2,t2,0x10
    250a:	0000                	unimp
    250c:	0291                	addi	t0,t0,4
    250e:	0000                	unimp
    2510:	0125                	addi	sp,sp,9
    2512:	0000                	unimp
    2514:	026c                	addi	a1,sp,268
    2516:	0000                	unimp
    2518:	0090                	addi	a2,sp,64
    251a:	0000                	unimp
    251c:	00ad                	addi	ra,ra,11
    251e:	0000                	unimp
    2520:	031c                	addi	a5,sp,384
    2522:	0000                	unimp
    2524:	0048                	addi	a0,sp,4
    2526:	0000                	unimp
    2528:	02a6                	slli	t0,t0,0x9
    252a:	0000                	unimp
    252c:	0050                	addi	a2,sp,4
    252e:	0000                	unimp
    2530:	0319                	addi	t1,t1,6
    2532:	0000                	unimp
    2534:	02ad                	addi	t0,t0,11
    2536:	0000                	unimp
    2538:	027d                	addi	tp,tp,31
    253a:	0000                	unimp
    253c:	000003c7          	fmsub.s	ft7,ft0,ft0,ft0,rne
    2540:	00f1                	addi	ra,ra,28
    2542:	0000                	unimp
    2544:	0382                	c.slli64	t2
    2546:	0000                	unimp
    2548:	02b5                	addi	t0,t0,13
    254a:	0000                	unimp
    254c:	0174                	addi	a3,sp,140
    254e:	0000                	unimp
    2550:	0259                	addi	tp,tp,22
    2552:	0000                	unimp
    2554:	02d1                	addi	t0,t0,20
    2556:	0000                	unimp
    2558:	018e                	slli	gp,gp,0x3
    255a:	0000                	unimp
    255c:	0229                	addi	tp,tp,10
    255e:	0000                	unimp
    2560:	0048                	addi	a0,sp,4
    2562:	0000                	unimp
    2564:	00ae                	slli	ra,ra,0xb
    2566:	0000                	unimp
    2568:	03d2                	slli	t2,t2,0x14
    256a:	0000                	unimp
    256c:	0145                	addi	sp,sp,17
    256e:	0000                	unimp
    2570:	022e                	slli	tp,tp,0xb
    2572:	0000                	unimp
    2574:	00b9                	addi	ra,ra,14
    2576:	0000                	unimp
    2578:	01f9                	addi	gp,gp,30
    257a:	0000                	unimp
    257c:	0000035b          	0x35b
    2580:	0000028b          	0x28b
    2584:	023d                	addi	tp,tp,15
    2586:	0000                	unimp
    2588:	0141                	addi	sp,sp,16
    258a:	0000                	unimp
    258c:	015d                	addi	sp,sp,23
    258e:	0000                	unimp
    2590:	0190                	addi	a2,sp,192
    2592:	0000                	unimp
    2594:	037a                	slli	t1,t1,0x1e
    2596:	0000                	unimp
    2598:	034c                	addi	a1,sp,388
    259a:	0000                	unimp
    259c:	0375                	addi	t1,t1,29
    259e:	0000                	unimp
    25a0:	03a5                	addi	t2,t2,9
    25a2:	0000                	unimp
    25a4:	03d4                	addi	a3,sp,452
    25a6:	0000                	unimp
    25a8:	01c0                	addi	s0,sp,196
    25aa:	0000                	unimp
    25ac:	03dd                	addi	t2,t2,23
    25ae:	0000                	unimp
    25b0:	0032                	c.slli	zero,0xc
    25b2:	0000                	unimp
    25b4:	014c                	addi	a1,sp,132
    25b6:	0000                	unimp
    25b8:	0384                	addi	s1,sp,448
    25ba:	0000                	unimp
    25bc:	02cc                	addi	a1,sp,324
    25be:	0000                	unimp
    25c0:	000002eb          	0x2eb
    25c4:	01bc                	addi	a5,sp,200
    25c6:	0000                	unimp
    25c8:	0006                	c.slli	zero,0x1
    25ca:	0000                	unimp
    25cc:	018a                	slli	gp,gp,0x2
    25ce:	0000                	unimp
    25d0:	011d                	addi	sp,sp,7
    25d2:	0000                	unimp
    25d4:	000002bf 000001c2 	0x1c2000002bf
    25dc:	028c                	addi	a1,sp,320
    25de:	0000                	unimp
    25e0:	00000303          	lb	t1,0(zero) # 0 <_start>
    25e4:	01e5                	addi	gp,gp,25
    25e6:	0000                	unimp
    25e8:	0216                	slli	tp,tp,0x5
    25ea:	0000                	unimp
    25ec:	0000022f          	0x22f
    25f0:	01e1                	addi	gp,gp,24
    25f2:	0000                	unimp
    25f4:	000001fb          	0x1fb
    25f8:	01b2                	slli	gp,gp,0xc
    25fa:	0000                	unimp
    25fc:	00000157          	0x157
    2600:	002a                	c.slli	zero,0xa
    2602:	0000                	unimp
    2604:	0310                	addi	a2,sp,384
    2606:	0000                	unimp
    2608:	0361                	addi	t1,t1,24
    260a:	0000                	unimp
    260c:	01a5                	addi	gp,gp,9
    260e:	0000                	unimp
    2610:	019f 0000 0367      	0x3670000019f
    2616:	0000                	unimp
    2618:	0000021b          	sext.w	tp,zero
    261c:	00a2                	slli	ra,ra,0x8
    261e:	0000                	unimp
    2620:	0069                	c.nop	26
    2622:	0000                	unimp
    2624:	01e1                	addi	gp,gp,24
    2626:	0000                	unimp
    2628:	00000253          	fadd.s	ft4,ft0,ft0,rne
    262c:	00000073          	ecall
    2630:	015e                	slli	sp,sp,0x17
    2632:	0000                	unimp
    2634:	03c4                	addi	s1,sp,452
    2636:	0000                	unimp
    2638:	011f 0000 00e8      	0xe80000011f
    263e:	0000                	unimp
    2640:	009a                	slli	ra,ra,0x6
    2642:	0000                	unimp
    2644:	025a                	slli	tp,tp,0x16
    2646:	0000                	unimp
    2648:	0000021b          	sext.w	tp,zero
    264c:	000003af          	0x3af
    2650:	0368                	addi	a0,sp,396
    2652:	0000                	unimp
    2654:	0079                	c.nop	30
    2656:	0000                	unimp
    2658:	028c                	addi	a1,sp,320
    265a:	0000                	unimp
    265c:	0000032b          	0x32b
    2660:	000002eb          	0x2eb
    2664:	016a                	slli	sp,sp,0x1a
    2666:	0000                	unimp
    2668:	0154                	addi	a3,sp,132
    266a:	0000                	unimp
    266c:	038e                	slli	t2,t2,0x3
    266e:	0000                	unimp
    2670:	00ce                	slli	ra,ra,0x13
    2672:	0000                	unimp
    2674:	023c                	addi	a5,sp,264
    2676:	0000                	unimp
    2678:	01f9                	addi	gp,gp,30
    267a:	0000                	unimp
    267c:	03cd                	addi	t2,t2,19
    267e:	0000                	unimp
    2680:	03c1                	addi	t2,t2,16
    2682:	0000                	unimp
    2684:	0162                	slli	sp,sp,0x18
    2686:	0000                	unimp
    2688:	00000273          	0x273
    268c:	0351                	addi	t1,t1,20
    268e:	0000                	unimp
    2690:	000003cb          	fnmsub.s	ft7,ft0,ft0,ft0,rne
    2694:	038e                	slli	t2,t2,0x3
    2696:	0000                	unimp
    2698:	019a                	slli	gp,gp,0x6
    269a:	0000                	unimp
    269c:	0302                	c.slli64	t1
    269e:	0000                	unimp
    26a0:	0000003f 0000036a 	0x36a0000003f
    26a8:	018c                	addi	a1,sp,192
    26aa:	0000                	unimp
    26ac:	01e2                	slli	gp,gp,0x18
    26ae:	0000                	unimp
    26b0:	0000026b          	0x26b
    26b4:	0286                	slli	t0,t0,0x1
    26b6:	0000                	unimp
    26b8:	022d                	addi	tp,tp,11
    26ba:	0000                	unimp
    26bc:	0148                	addi	a0,sp,132
    26be:	0000                	unimp
    26c0:	00000043          	fmadd.s	ft0,ft0,ft0,ft0,rne
    26c4:	0374                	addi	a3,sp,396
    26c6:	0000                	unimp
    26c8:	0200                	addi	s0,sp,256
    26ca:	0000                	unimp
    26cc:	03cc                	addi	a1,sp,452
    26ce:	0000                	unimp
    26d0:	0006                	c.slli	zero,0x1
    26d2:	0000                	unimp
    26d4:	0201                	addi	tp,tp,0
    26d6:	0000                	unimp
    26d8:	0372                	slli	t1,t1,0x1c
    26da:	0000                	unimp
    26dc:	0232                	slli	tp,tp,0xc
    26de:	0000                	unimp
    26e0:	02fc                	addi	a5,sp,332
    26e2:	0000                	unimp
    26e4:	016e                	slli	sp,sp,0x1b
    26e6:	0000                	unimp
    26e8:	01fa                	slli	gp,gp,0x1e
    26ea:	0000                	unimp
    26ec:	0312                	slli	t1,t1,0x4
    26ee:	0000                	unimp
    26f0:	0000033f 0000017e 	0x17e0000033f
    26f8:	027e                	slli	tp,tp,0x1f
    26fa:	0000                	unimp
    26fc:	01c4                	addi	s1,sp,196
    26fe:	0000                	unimp
    2700:	0048                	addi	a0,sp,4
    2702:	0000                	unimp
    2704:	00000053          	fadd.s	ft0,ft0,ft0,rne
    2708:	0000003b          	addw	zero,zero,zero
    270c:	03a4                	addi	s1,sp,456
    270e:	0000                	unimp
    2710:	03a1                	addi	t2,t2,8
    2712:	0000                	unimp
    2714:	039c                	addi	a5,sp,448
    2716:	0000                	unimp
    2718:	03c1                	addi	t2,t2,16
    271a:	0000                	unimp
    271c:	0045                	c.nop	17
    271e:	0000                	unimp
    2720:	031d                	addi	t1,t1,7
    2722:	0000                	unimp
    2724:	03d9                	addi	t2,t2,22
    2726:	0000                	unimp
    2728:	0356                	slli	t1,t1,0x15
    272a:	0000                	unimp
    272c:	0375                	addi	t1,t1,29
    272e:	0000                	unimp
    2730:	0258                	addi	a4,sp,260
    2732:	0000                	unimp
    2734:	0185                	addi	gp,gp,1
    2736:	0000                	unimp
    2738:	00e8                	addi	a0,sp,76
    273a:	0000                	unimp
    273c:	0319                	addi	t1,t1,6
    273e:	0000                	unimp
    2740:	000000b3          	add	ra,zero,zero
    2744:	0305                	addi	t1,t1,1
    2746:	0000                	unimp
    2748:	02b1                	addi	t0,t0,12
    274a:	0000                	unimp
    274c:	00000307          	0x307
    2750:	01ee                	slli	gp,gp,0x1b
    2752:	0000                	unimp
    2754:	0000008b          	0x8b
    2758:	00ea                	slli	ra,ra,0x1a
    275a:	0000                	unimp
    275c:	000001af          	0x1af
    2760:	030c                	addi	a1,sp,384
    2762:	0000                	unimp
    2764:	00000173          	0x173
    2768:	0016                	c.slli	zero,0x5
    276a:	0000                	unimp
    276c:	028d                	addi	t0,t0,3
    276e:	0000                	unimp
    2770:	02e5                	addi	t0,t0,25
    2772:	0000                	unimp
    2774:	0000032f          	0x32f
    2778:	01ac                	addi	a1,sp,200
    277a:	0000                	unimp
    277c:	0000008b          	0x8b
    2780:	0000025b          	0x25b
    2784:	0000013b          	addw	sp,zero,zero
    2788:	0158                	addi	a4,sp,132
    278a:	0000                	unimp
    278c:	0379                	addi	t1,t1,30
    278e:	0000                	unimp
    2790:	013d                	addi	sp,sp,15
    2792:	0000                	unimp
    2794:	0104                	addi	s1,sp,128
    2796:	0000                	unimp
    2798:	035d                	addi	t1,t1,23
    279a:	0000                	unimp
    279c:	0179                	addi	sp,sp,30
    279e:	0000                	unimp
    27a0:	01ff                	0x1ff
    27a2:	0000                	unimp
    27a4:	0130                	addi	a2,sp,136
    27a6:	0000                	unimp
    27a8:	0046                	c.slli	zero,0x11
    27aa:	0000                	unimp
    27ac:	00000023          	sb	zero,0(zero) # 0 <_start>
    27b0:	0356                	slli	t1,t1,0x15
    27b2:	0000                	unimp
    27b4:	0240                	addi	s0,sp,260
    27b6:	0000                	unimp
    27b8:	01ea                	slli	gp,gp,0x1a
    27ba:	0000                	unimp
    27bc:	0146                	slli	sp,sp,0x11
    27be:	0000                	unimp
    27c0:	0000012f          	0x12f
    27c4:	000001af          	0x1af
    27c8:	032d                	addi	t1,t1,11
    27ca:	0000                	unimp
    27cc:	02c4                	addi	s1,sp,324
    27ce:	0000                	unimp
    27d0:	0184                	addi	s1,sp,192
    27d2:	0000                	unimp
    27d4:	03c2                	slli	t2,t2,0x10
    27d6:	0000                	unimp
    27d8:	000003c7          	fmsub.s	ft7,ft0,ft0,ft0,rne
    27dc:	01ba                	slli	gp,gp,0xe
    27de:	0000                	unimp
    27e0:	0031                	c.nop	12
    27e2:	0000                	unimp
    27e4:	0000033f 000000fb 	0xfb0000033f
    27ec:	0141                	addi	sp,sp,16
    27ee:	0000                	unimp
    27f0:	02e5                	addi	t0,t0,25
    27f2:	0000                	unimp
    27f4:	000000b3          	add	ra,zero,zero
    27f8:	00b0                	addi	a2,sp,72
    27fa:	0000                	unimp
    27fc:	0075                	c.nop	29
    27fe:	0000                	unimp
    2800:	0000020b          	0x20b
    2804:	02fc                	addi	a5,sp,332
    2806:	0000                	unimp
    2808:	03b8                	addi	a4,sp,456
    280a:	0000                	unimp
    280c:	02c0                	addi	s0,sp,324
    280e:	0000                	unimp
    2810:	00000213          	li	tp,0
    2814:	0324                	addi	s1,sp,392
    2816:	0000                	unimp
    2818:	00000017          	auipc	zero,0x0
    281c:	00000263          	beqz	zero,2820 <input2_data+0xd98>
    2820:	034e                	slli	t1,t1,0x13
    2822:	0000                	unimp
    2824:	00000177          	0x177
    2828:	0356                	slli	t1,t1,0x15
    282a:	0000                	unimp
    282c:	000003cb          	fnmsub.s	ft7,ft0,ft0,ft0,rne
    2830:	0018                	0x18
    2832:	0000                	unimp
    2834:	027f                	0x27f
    2836:	0000                	unimp
    2838:	013e                	slli	sp,sp,0xf
    283a:	0000                	unimp
    283c:	000002d3          	fadd.s	ft5,ft0,ft0,rne
    2840:	0296                	slli	t0,t0,0x5
    2842:	0000                	unimp
    2844:	00000287          	0x287
    2848:	0119                	addi	sp,sp,6
    284a:	0000                	unimp
    284c:	009e                	slli	ra,ra,0x7
    284e:	0000                	unimp
    2850:	0126                	slli	sp,sp,0x9
    2852:	0000                	unimp
    2854:	0375                	addi	t1,t1,29
    2856:	0000                	unimp
    2858:	02de                	slli	t0,t0,0x17
    285a:	0000                	unimp
    285c:	0362                	slli	t1,t1,0x18
    285e:	0000                	unimp
    2860:	000001d7          	0x1d7
    2864:	0128                	addi	a0,sp,136
    2866:	0000                	unimp
    2868:	02a1                	addi	t0,t0,8
    286a:	0000                	unimp
    286c:	01d8                	addi	a4,sp,196
    286e:	0000                	unimp
    2870:	000001b7          	lui	gp,0x0
    2874:	0005                	c.nop	1
    2876:	0000                	unimp
    2878:	0000009b          	sext.w	ra,zero
    287c:	01fa                	slli	gp,gp,0x1e
    287e:	0000                	unimp
    2880:	03b4                	addi	a3,sp,456
    2882:	0000                	unimp
    2884:	0258                	addi	a4,sp,260
    2886:	0000                	unimp
    2888:	01bd                	addi	gp,gp,15
    288a:	0000                	unimp
    288c:	00de                	slli	ra,ra,0x17
    288e:	0000                	unimp
    2890:	0310                	addi	a2,sp,384
    2892:	0000                	unimp
    2894:	015d                	addi	sp,sp,23
    2896:	0000                	unimp
    2898:	000003af          	0x3af
    289c:	0096                	slli	ra,ra,0x5
    289e:	0000                	unimp
    28a0:	016e                	slli	sp,sp,0x1b
    28a2:	0000                	unimp
    28a4:	01bc                	addi	a5,sp,200
    28a6:	0000                	unimp
    28a8:	025c                	addi	a5,sp,260
    28aa:	0000                	unimp
    28ac:	02d0                	addi	a2,sp,324
    28ae:	0000                	unimp
    28b0:	0154                	addi	a3,sp,132
    28b2:	0000                	unimp
    28b4:	03cc                	addi	a1,sp,452
    28b6:	0000                	unimp
    28b8:	0000038f          	0x38f
    28bc:	0141                	addi	sp,sp,16
    28be:	0000                	unimp
    28c0:	000001b3          	add	gp,zero,zero
    28c4:	0032                	c.slli	zero,0xc
    28c6:	0000                	unimp
    28c8:	004e                	c.slli	zero,0x13
    28ca:	0000                	unimp
    28cc:	02f9                	addi	t0,t0,30
    28ce:	0000                	unimp
    28d0:	03b6                	slli	t2,t2,0xd
    28d2:	0000                	unimp
    28d4:	00ee                	slli	ra,ra,0x1b
    28d6:	0000                	unimp
    28d8:	0000001b          	sext.w	zero,zero
    28dc:	00e2                	slli	ra,ra,0x18
    28de:	0000                	unimp
    28e0:	00c9                	addi	ra,ra,18
    28e2:	0000                	unimp
    28e4:	00b0                	addi	a2,sp,72
    28e6:	0000                	unimp
    28e8:	036d                	addi	t1,t1,27
    28ea:	0000                	unimp
    28ec:	01c2                	slli	gp,gp,0x10
    28ee:	0000                	unimp
    28f0:	0000036f          	jal	t1,28f0 <input2_data+0xe68>
    28f4:	00000063          	beqz	zero,28f4 <input2_data+0xe6c>
    28f8:	0000008f          	0x8f
    28fc:	001f 0000 032c      	0x32c0000001f
    2902:	0000                	unimp
    2904:	00000303          	lb	t1,0(zero) # 0 <_start>
    2908:	0000020f          	0x20f
    290c:	01e8                	addi	a0,sp,204
    290e:	0000                	unimp
    2910:	031d                	addi	t1,t1,7
    2912:	0000                	unimp
    2914:	00c2                	slli	ra,ra,0x10
    2916:	0000                	unimp
    2918:	0125                	addi	sp,sp,9
    291a:	0000                	unimp
    291c:	03c6                	slli	t2,t2,0x11
    291e:	0000                	unimp
    2920:	0114                	addi	a3,sp,128
    2922:	0000                	unimp
    2924:	0159                	addi	sp,sp,22
    2926:	0000                	unimp
    2928:	019d                	addi	gp,gp,7
    292a:	0000                	unimp
    292c:	00c5                	addi	ra,ra,17
    292e:	0000                	unimp
    2930:	0182                	c.slli64	gp
    2932:	0000                	unimp
    2934:	0074                	addi	a3,sp,12
    2936:	0000                	unimp
    2938:	0142                	slli	sp,sp,0x10
    293a:	0000                	unimp
    293c:	02a8                	addi	a0,sp,328
    293e:	0000                	unimp
    2940:	021a                	slli	tp,tp,0x6
    2942:	0000                	unimp
    2944:	0229                	addi	tp,tp,10
    2946:	0000                	unimp
    2948:	03c0                	addi	s0,sp,452
    294a:	0000                	unimp
    294c:	036a                	slli	t1,t1,0x1a
    294e:	0000                	unimp
    2950:	0030                	addi	a2,sp,8
    2952:	0000                	unimp
    2954:	01fa                	slli	gp,gp,0x1e
    2956:	0000                	unimp
    2958:	0382                	c.slli64	t2
    295a:	0000                	unimp
    295c:	0000021b          	sext.w	tp,zero
    2960:	000001ef          	jal	gp,2960 <input2_data+0xed8>
    2964:	02fc                	addi	a5,sp,332
    2966:	0000                	unimp
    2968:	0325                	addi	t1,t1,9
    296a:	0000                	unimp
    296c:	011e                	slli	sp,sp,0x7
    296e:	0000                	unimp
    2970:	01b0                	addi	a2,sp,200
    2972:	0000                	unimp
    2974:	0344                	addi	s1,sp,388
    2976:	0000                	unimp
    2978:	00c0                	addi	s0,sp,68
    297a:	0000                	unimp
    297c:	0339                	addi	t1,t1,14
    297e:	0000                	unimp
    2980:	030a                	slli	t1,t1,0x2
    2982:	0000                	unimp
    2984:	024a                	slli	tp,tp,0x12
    2986:	0000                	unimp
    2988:	00000167          	jalr	sp,zero # 0 <_start>
    298c:	0160                	addi	s0,sp,140
    298e:	0000                	unimp
    2990:	02ea                	slli	t0,t0,0x1a
    2992:	0000                	unimp
    2994:	0000000b          	0xb
    2998:	02ed                	addi	t0,t0,27
    299a:	0000                	unimp
    299c:	0005                	c.nop	1
    299e:	0000                	unimp
    29a0:	0198                	addi	a4,sp,192
    29a2:	0000                	unimp
    29a4:	00000283          	lb	t0,0(zero) # 0 <_start>
    29a8:	01b9                	addi	gp,gp,14
    29aa:	0000                	unimp
    29ac:	0170                	addi	a2,sp,140
    29ae:	0000                	unimp
    29b0:	0061                	c.nop	24
    29b2:	0000                	unimp
    29b4:	00a9                	addi	ra,ra,10
    29b6:	0000                	unimp
    29b8:	00000167          	jalr	sp,zero # 0 <_start>
    29bc:	0000020f          	0x20f
    29c0:	02a0                	addi	s0,sp,328
    29c2:	0000                	unimp
    29c4:	0045                	c.nop	17
    29c6:	0000                	unimp
    29c8:	0370                	addi	a2,sp,396
    29ca:	0000                	unimp
    29cc:	012a                	slli	sp,sp,0xa
    29ce:	0000                	unimp
    29d0:	012c                	addi	a1,sp,136
    29d2:	0000                	unimp
    29d4:	00000147          	fmsub.s	ft2,ft0,ft0,ft0,rne
    29d8:	0000039b          	sext.w	t2,zero
    29dc:	033d                	addi	t1,t1,15
    29de:	0000                	unimp
    29e0:	0330                	addi	a2,sp,392
    29e2:	0000                	unimp
    29e4:	01f1                	addi	gp,gp,28
    29e6:	0000                	unimp
    29e8:	000000f3          	0xf3
    29ec:	03d5                	addi	t2,t2,21
    29ee:	0000                	unimp
    29f0:	0395                	addi	t2,t2,5
    29f2:	0000                	unimp
    29f4:	02c9                	addi	t0,t0,18
    29f6:	0000                	unimp
    29f8:	028d                	addi	t0,t0,3
    29fa:	0000                	unimp
    29fc:	000001f7          	0x1f7
    2a00:	0196                	slli	gp,gp,0x5
    2a02:	0000                	unimp
    2a04:	021f 0000 006c      	0x6c0000021f
    2a0a:	0000                	unimp
    2a0c:	0130                	addi	a2,sp,136
    2a0e:	0000                	unimp
    2a10:	01d0                	addi	a2,sp,196
    2a12:	0000                	unimp
    2a14:	03ba                	slli	t2,t2,0xe
    2a16:	0000                	unimp
    2a18:	0056                	c.slli	zero,0x15
    2a1a:	0000                	unimp
    2a1c:	0322                	slli	t1,t1,0x8
    2a1e:	0000                	unimp
    2a20:	01be                	slli	gp,gp,0xf
    2a22:	0000                	unimp
    2a24:	001c                	0x1c
    2a26:	0000                	unimp

0000000000002a28 <input1_data>:
    2a28:	0029                	c.nop	10
    2a2a:	0000                	unimp
    2a2c:	0341                	addi	t1,t1,16
    2a2e:	0000                	unimp
    2a30:	0234                	addi	a3,sp,264
    2a32:	0000                	unimp
    2a34:	000000bb          	addw	ra,zero,zero
    2a38:	02ed                	addi	t0,t0,27
    2a3a:	0000                	unimp
    2a3c:	015e                	slli	sp,sp,0x17
    2a3e:	0000                	unimp
    2a40:	0084                	addi	s1,sp,64
    2a42:	0000                	unimp
    2a44:	03b5                	addi	t2,t2,13
    2a46:	0000                	unimp
    2a48:	0248                	addi	a0,sp,260
    2a4a:	0000                	unimp
    2a4c:	0325                	addi	t1,t1,9
    2a4e:	0000                	unimp
    2a50:	026d                	addi	tp,tp,27
    2a52:	0000                	unimp
    2a54:	0006                	c.slli	zero,0x1
    2a56:	0000                	unimp
    2a58:	000003a3          	sb	zero,7(zero) # 7 <_start+0x7>
    2a5c:	037a                	slli	t1,t1,0x1e
    2a5e:	0000                	unimp
    2a60:	0188                	addi	a0,sp,192
    2a62:	0000                	unimp
    2a64:	02b6                	slli	t0,t0,0xd
    2a66:	0000                	unimp
    2a68:	03c1                	addi	t2,t2,16
    2a6a:	0000                	unimp
    2a6c:	006e                	c.slli	zero,0x1b
    2a6e:	0000                	unimp
    2a70:	0074                	addi	a3,sp,12
    2a72:	0000                	unimp
    2a74:	0128                	addi	a0,sp,136
    2a76:	0000                	unimp
    2a78:	01aa                	slli	gp,gp,0xa
    2a7a:	0000                	unimp
    2a7c:	013a                	slli	sp,sp,0xe
    2a7e:	0000                	unimp
    2a80:	00000293          	li	t0,0
    2a84:	0306                	slli	t1,t1,0x1
    2a86:	0000                	unimp
    2a88:	0000013f 000002a6 	0x2a60000013f
    2a90:	0000036b          	0x36b
    2a94:	0178                	addi	a4,sp,140
    2a96:	0000                	unimp
    2a98:	01da                	slli	gp,gp,0x16
    2a9a:	0000                	unimp
    2a9c:	03aa                	slli	t2,t2,0xa
    2a9e:	0000                	unimp
    2aa0:	0000021b          	sext.w	tp,zero
    2aa4:	0239                	addi	tp,tp,14
    2aa6:	0000                	unimp
    2aa8:	000000cb          	fnmsub.s	ft1,ft0,ft0,ft0,rne
    2aac:	0118                	addi	a4,sp,128
    2aae:	0000                	unimp
    2ab0:	000002f7          	0x2f7
    2ab4:	025e                	slli	tp,tp,0x17
    2ab6:	0000                	unimp
    2ab8:	01ff                	0x1ff
    2aba:	0000                	unimp
    2abc:	0291                	addi	t0,t0,4
    2abe:	0000                	unimp
    2ac0:	000000c3          	fmadd.s	ft1,ft0,ft0,ft0,rne
    2ac4:	0051                	c.nop	20
    2ac6:	0000                	unimp
    2ac8:	0000010b          	0x10b
    2acc:	00e5                	addi	ra,ra,25
    2ace:	0000                	unimp
    2ad0:	0151                	addi	sp,sp,20
    2ad2:	0000                	unimp
    2ad4:	03b0                	addi	a2,sp,456
    2ad6:	0000                	unimp
    2ad8:	0386                	slli	t2,t2,0x1
    2ada:	0000                	unimp
    2adc:	00f1                	addi	ra,ra,28
    2ade:	0000                	unimp
    2ae0:	0391                	addi	t2,t2,4
    2ae2:	0000                	unimp
    2ae4:	033a                	slli	t1,t1,0xe
    2ae6:	0000                	unimp
    2ae8:	03a5                	addi	t2,t2,9
    2aea:	0000                	unimp
    2aec:	03d9                	addi	t2,t2,22
    2aee:	0000                	unimp
    2af0:	000000c3          	fmadd.s	ft1,ft0,ft0,ft0,rne
    2af4:	03c0                	addi	s0,sp,452
    2af6:	0000                	unimp
    2af8:	0236                	slli	tp,tp,0xd
    2afa:	0000                	unimp
    2afc:	015e                	slli	sp,sp,0x17
    2afe:	0000                	unimp
    2b00:	0289                	addi	t0,t0,2
    2b02:	0000                	unimp
    2b04:	0291                	addi	t0,t0,4
    2b06:	0000                	unimp
    2b08:	00b5                	addi	ra,ra,13
    2b0a:	0000                	unimp
    2b0c:	0000006f          	j	2b0c <input1_data+0xe4>
    2b10:	0000035b          	0x35b
    2b14:	0041                	c.nop	16
    2b16:	0000                	unimp
    2b18:	0120                	addi	s0,sp,136
    2b1a:	0000                	unimp
    2b1c:	015d                	addi	sp,sp,23
    2b1e:	0000                	unimp
    2b20:	008d                	addi	ra,ra,3
    2b22:	0000                	unimp
    2b24:	0389                	addi	t2,t2,2
    2b26:	0000                	unimp
    2b28:	0376                	slli	t1,t1,0x1d
    2b2a:	0000                	unimp
    2b2c:	0108                	addi	a0,sp,128
    2b2e:	0000                	unimp
    2b30:	0240                	addi	s0,sp,260
    2b32:	0000                	unimp
    2b34:	000003d3          	fadd.s	ft7,ft0,ft0,rne
    2b38:	02f9                	addi	t0,t0,30
    2b3a:	0000                	unimp
    2b3c:	00f1                	addi	ra,ra,28
    2b3e:	0000                	unimp
    2b40:	01de                	slli	gp,gp,0x17
    2b42:	0000                	unimp
    2b44:	000001f3          	0x1f3
    2b48:	00000193          	li	gp,0
    2b4c:	00de                	slli	ra,ra,0x17
    2b4e:	0000                	unimp
    2b50:	01bc                	addi	a5,sp,200
    2b52:	0000                	unimp
    2b54:	02d1                	addi	t0,t0,20
    2b56:	0000                	unimp
    2b58:	02a4                	addi	s1,sp,328
    2b5a:	0000                	unimp
    2b5c:	013d                	addi	sp,sp,15
    2b5e:	0000                	unimp
    2b60:	00e0                	addi	s0,sp,76
    2b62:	0000                	unimp
    2b64:	03a9                	addi	t2,t2,10
    2b66:	0000                	unimp
    2b68:	0120                	addi	s0,sp,136
    2b6a:	0000                	unimp
    2b6c:	00000077          	0x77
    2b70:	00000267          	jalr	tp,zero # 0 <_start>
    2b74:	025e                	slli	tp,tp,0x17
    2b76:	0000                	unimp
    2b78:	0185                	addi	gp,gp,1
    2b7a:	0000                	unimp
    2b7c:	015f 0000 01c7      	0x1c70000015f
    2b82:	0000                	unimp
    2b84:	0116                	slli	sp,sp,0x5
    2b86:	0000                	unimp
    2b88:	0000016f          	jal	sp,2b88 <input1_data+0x160>
    2b8c:	0166                	slli	sp,sp,0x19
    2b8e:	0000                	unimp
    2b90:	0248                	addi	a0,sp,260
    2b92:	0000                	unimp
    2b94:	003e                	c.slli	zero,0xf
    2b96:	0000                	unimp
    2b98:	03d9                	addi	t2,t2,22
    2b9a:	0000                	unimp
    2b9c:	00000193          	li	gp,0
    2ba0:	015a                	slli	sp,sp,0x16
    2ba2:	0000                	unimp
    2ba4:	0205                	addi	tp,tp,1
    2ba6:	0000                	unimp
    2ba8:	0000022f          	0x22f
    2bac:	038c                	addi	a1,sp,448
    2bae:	0000                	unimp
    2bb0:	00000307          	0x307
    2bb4:	00ff                	0xff
    2bb6:	0000                	unimp
    2bb8:	030a                	slli	t1,t1,0x2
    2bba:	0000                	unimp
    2bbc:	0256                	slli	tp,tp,0x15
    2bbe:	0000                	unimp
    2bc0:	0000008f          	0x8f
    2bc4:	0021                	c.nop	8
    2bc6:	0000                	unimp
    2bc8:	007d                	c.nop	31
    2bca:	0000                	unimp
    2bcc:	03ad                	addi	t2,t2,11
    2bce:	0000                	unimp
    2bd0:	03a5                	addi	t2,t2,9
    2bd2:	0000                	unimp
    2bd4:	031f 0000 0229      	0x2290000031f
    2bda:	0000                	unimp
    2bdc:	000001af          	0x1af
    2be0:	0288                	addi	a0,sp,320
    2be2:	0000                	unimp
    2be4:	03b8                	addi	a4,sp,456
    2be6:	0000                	unimp
    2be8:	011f 0000 0013      	0x130000011f
    2bee:	0000                	unimp
    2bf0:	0031                	c.nop	12
    2bf2:	0000                	unimp
    2bf4:	0056                	c.slli	zero,0x15
    2bf6:	0000                	unimp
    2bf8:	005f 0000 01b9      	0x1b90000005f
    2bfe:	0000                	unimp
    2c00:	0000024b          	fnmsub.s	ft4,ft0,ft0,ft0,rne
    2c04:	0266                	slli	tp,tp,0x19
    2c06:	0000                	unimp
    2c08:	017e                	slli	sp,sp,0x1f
    2c0a:	0000                	unimp
    2c0c:	0118                	addi	a4,sp,128
    2c0e:	0000                	unimp
    2c10:	0328                	addi	a0,sp,392
    2c12:	0000                	unimp
    2c14:	000003cb          	fnmsub.s	ft7,ft0,ft0,ft0,rne
    2c18:	00000333          	add	t1,zero,zero
    2c1c:	0158                	addi	a4,sp,132
    2c1e:	0000                	unimp
    2c20:	01c2                	slli	gp,gp,0x10
    2c22:	0000                	unimp
    2c24:	0200                	addi	s0,sp,256
    2c26:	0000                	unimp
    2c28:	03c5                	addi	t2,t2,17
    2c2a:	0000                	unimp
    2c2c:	0000015b          	0x15b
    2c30:	0328                	addi	a0,sp,392
    2c32:	0000                	unimp
    2c34:	0372                	slli	t1,t1,0x1c
    2c36:	0000                	unimp
    2c38:	0219                	addi	tp,tp,6
    2c3a:	0000                	unimp
    2c3c:	03b2                	slli	t2,t2,0xc
    2c3e:	0000                	unimp
    2c40:	02bd                	addi	t0,t0,15
    2c42:	0000                	unimp
    2c44:	0164                	addi	s1,sp,140
    2c46:	0000                	unimp
    2c48:	00000237          	lui	tp,0x0
    2c4c:	0000037b          	0x37b
    2c50:	0016                	c.slli	zero,0x5
    2c52:	0000                	unimp
    2c54:	0238                	addi	a4,sp,264
    2c56:	0000                	unimp
    2c58:	0299                	addi	t0,t0,6
    2c5a:	0000                	unimp
    2c5c:	000001a7          	0x1a7
    2c60:	01b2                	slli	gp,gp,0xc
    2c62:	0000                	unimp
    2c64:	009e                	slli	ra,ra,0x7
    2c66:	0000                	unimp
    2c68:	0002                	c.slli64	zero
    2c6a:	0000                	unimp
    2c6c:	0054                	addi	a3,sp,4
    2c6e:	0000                	unimp
    2c70:	000000f7          	0xf7
    2c74:	0031                	c.nop	12
    2c76:	0000                	unimp
    2c78:	000001b3          	add	gp,zero,zero
    2c7c:	0318                	addi	a4,sp,384
    2c7e:	0000                	unimp
    2c80:	0365                	addi	t1,t1,25
    2c82:	0000                	unimp
    2c84:	01e6                	slli	gp,gp,0x19
    2c86:	0000                	unimp
    2c88:	019e                	slli	gp,gp,0x7
    2c8a:	0000                	unimp
    2c8c:	0171                	addi	sp,sp,28
    2c8e:	0000                	unimp
    2c90:	0224                	addi	s1,sp,264
    2c92:	0000                	unimp
    2c94:	0206                	slli	tp,tp,0x1
    2c96:	0000                	unimp
    2c98:	0378                	addi	a4,sp,396
    2c9a:	0000                	unimp
    2c9c:	02aa                	slli	t0,t0,0xa
    2c9e:	0000                	unimp
    2ca0:	011c                	addi	a5,sp,128
    2ca2:	0000                	unimp
    2ca4:	0108                	addi	a0,sp,128
    2ca6:	0000                	unimp
    2ca8:	000001f3          	0x1f3
    2cac:	0122                	slli	sp,sp,0x8
    2cae:	0000                	unimp
    2cb0:	0381                	addi	t2,t2,0
    2cb2:	0000                	unimp
    2cb4:	000000d7          	0xd7
    2cb8:	000002db          	0x2db
    2cbc:	02b0                	addi	a2,sp,328
    2cbe:	0000                	unimp
    2cc0:	000000fb          	0xfb
    2cc4:	0312                	slli	t1,t1,0x4
    2cc6:	0000                	unimp
    2cc8:	0000022b          	0x22b
    2ccc:	012e                	slli	sp,sp,0xb
    2cce:	0000                	unimp
    2cd0:	0210                	addi	a2,sp,256
    2cd2:	0000                	unimp
    2cd4:	0220                	addi	s0,sp,264
    2cd6:	0000                	unimp
    2cd8:	0142                	slli	sp,sp,0x10
    2cda:	0000                	unimp
    2cdc:	000003b3          	add	t2,zero,zero
    2ce0:	011f 0000 0338      	0x3380000011f
    2ce6:	0000                	unimp
    2ce8:	0130                	addi	a2,sp,136
    2cea:	0000                	unimp
    2cec:	0314                	addi	a3,sp,384
    2cee:	0000                	unimp
    2cf0:	02dd                	addi	t0,t0,23
    2cf2:	0000                	unimp
    2cf4:	000003bf 0000016e 	0x16e000003bf
    2cfc:	02d2                	slli	t0,t0,0x14
    2cfe:	0000                	unimp
    2d00:	0126                	slli	sp,sp,0x9
    2d02:	0000                	unimp
    2d04:	000003cf          	fnmadd.s	ft7,ft0,ft0,ft0,rne
    2d08:	028d                	addi	t0,t0,3
    2d0a:	0000                	unimp
    2d0c:	02ec                	addi	a1,sp,332
    2d0e:	0000                	unimp
    2d10:	0000005b          	0x5b
    2d14:	017a                	slli	sp,sp,0x1e
    2d16:	0000                	unimp
    2d18:	0069                	c.nop	26
    2d1a:	0000                	unimp
    2d1c:	0066                	c.slli	zero,0x19
    2d1e:	0000                	unimp
    2d20:	017d                	addi	sp,sp,31
    2d22:	0000                	unimp
    2d24:	0000028b          	0x28b
    2d28:	0339                	addi	t1,t1,14
    2d2a:	0000                	unimp
    2d2c:	0348                	addi	a0,sp,388
    2d2e:	0000                	unimp
    2d30:	0164                	addi	s1,sp,140
    2d32:	0000                	unimp
    2d34:	0094                	addi	a3,sp,64
    2d36:	0000                	unimp
    2d38:	0036                	c.slli	zero,0xd
    2d3a:	0000                	unimp
    2d3c:	008c                	addi	a1,sp,64
    2d3e:	0000                	unimp
    2d40:	000003bb          	addw	t2,zero,zero
    2d44:	00000157          	0x157
    2d48:	0215                	addi	tp,tp,5
    2d4a:	0000                	unimp
    2d4c:	02f5                	addi	t0,t0,29
    2d4e:	0000                	unimp
    2d50:	0209                	addi	tp,tp,2
    2d52:	0000                	unimp
    2d54:	0345                	addi	t1,t1,17
    2d56:	0000                	unimp
    2d58:	0250                	addi	a2,sp,260
    2d5a:	0000                	unimp
    2d5c:	000d                	c.nop	3
    2d5e:	0000                	unimp
    2d60:	00ad                	addi	ra,ra,11
    2d62:	0000                	unimp
    2d64:	0000003f 00000079 	0x790000003f
    2d6c:	0085                	addi	ra,ra,1
    2d6e:	0000                	unimp
    2d70:	02f6                	slli	t0,t0,0x1d
    2d72:	0000                	unimp
    2d74:	0174                	addi	a3,sp,140
    2d76:	0000                	unimp
    2d78:	000003b7          	lui	t2,0x0
    2d7c:	00000027          	0x27
    2d80:	0081                	addi	ra,ra,0
    2d82:	0000                	unimp
    2d84:	006e                	c.slli	zero,0x1b
    2d86:	0000                	unimp
    2d88:	0000034f          	fnmadd.s	ft6,ft0,ft0,ft0,rne
    2d8c:	01b5                	addi	gp,gp,13
    2d8e:	0000                	unimp
    2d90:	00ff                	0xff
    2d92:	0000                	unimp
    2d94:	010d                	addi	sp,sp,3
    2d96:	0000                	unimp
    2d98:	0199                	addi	gp,gp,6
    2d9a:	0000                	unimp
    2d9c:	0274                	addi	a3,sp,268
    2d9e:	0000                	unimp
    2da0:	0000018f          	0x18f
    2da4:	0225                	addi	tp,tp,9
    2da6:	0000                	unimp
    2da8:	02f1                	addi	t0,t0,28
    2daa:	0000                	unimp
    2dac:	0234                	addi	a3,sp,264
    2dae:	0000                	unimp
    2db0:	000000ab          	0xab
    2db4:	00000013          	nop
    2db8:	000002d7          	0x2d7
    2dbc:	01f5                	addi	gp,gp,29
    2dbe:	0000                	unimp
    2dc0:	0309                	addi	t1,t1,2
    2dc2:	0000                	unimp
    2dc4:	0000002b          	0x2b
    2dc8:	02f1                	addi	t0,t0,28
    2dca:	0000                	unimp
    2dcc:	0051                	c.nop	20
    2dce:	0000                	unimp
    2dd0:	00ca                	slli	ra,ra,0x12
    2dd2:	0000                	unimp
    2dd4:	0355                	addi	t1,t1,21
    2dd6:	0000                	unimp
    2dd8:	0099                	addi	ra,ra,6
    2dda:	0000                	unimp
    2ddc:	02f8                	addi	a4,sp,332
    2dde:	0000                	unimp
    2de0:	0165                	addi	sp,sp,25
    2de2:	0000                	unimp
    2de4:	000003af          	0x3af
    2de8:	039a                	slli	t2,t2,0x6
    2dea:	0000                	unimp
    2dec:	0148                	addi	a0,sp,132
    2dee:	0000                	unimp
    2df0:	01f0                	addi	a2,sp,204
    2df2:	0000                	unimp
    2df4:	01ba                	slli	gp,gp,0xe
    2df6:	0000                	unimp
    2df8:	0204                	addi	s1,sp,256
    2dfa:	0000                	unimp
    2dfc:	0281                	addi	t0,t0,0
    2dfe:	0000                	unimp
    2e00:	0114                	addi	a3,sp,128
    2e02:	0000                	unimp
    2e04:	0312                	slli	t1,t1,0x4
    2e06:	0000                	unimp
    2e08:	0071                	c.nop	28
    2e0a:	0000                	unimp
    2e0c:	034a                	slli	t1,t1,0x12
    2e0e:	0000                	unimp
    2e10:	0000038b          	0x38b
    2e14:	00000113          	li	sp,0
    2e18:	00ed                	addi	ra,ra,27
    2e1a:	0000                	unimp
    2e1c:	0020                	addi	s0,sp,8
    2e1e:	0000                	unimp
    2e20:	0310                	addi	a2,sp,384
    2e22:	0000                	unimp
    2e24:	0235                	addi	tp,tp,13
    2e26:	0000                	unimp
    2e28:	0165                	addi	sp,sp,25
    2e2a:	0000                	unimp
    2e2c:	00000323          	sb	zero,6(zero) # 6 <_start+0x6>
    2e30:	00000333          	add	t1,zero,zero
    2e34:	000002ef          	jal	t0,2e34 <input1_data+0x40c>
    2e38:	0118                	addi	a4,sp,128
    2e3a:	0000                	unimp
    2e3c:	0055                	c.nop	21
    2e3e:	0000                	unimp
    2e40:	01ca                	slli	gp,gp,0x12
    2e42:	0000                	unimp
    2e44:	01c6                	slli	gp,gp,0x11
    2e46:	0000                	unimp
    2e48:	02c6                	slli	t0,t0,0x11
    2e4a:	0000                	unimp
    2e4c:	000001cb          	fnmsub.s	ft3,ft0,ft0,ft0,rne
    2e50:	0029                	c.nop	10
    2e52:	0000                	unimp
    2e54:	00fd                	addi	ra,ra,31
    2e56:	0000                	unimp
    2e58:	0179                	addi	sp,sp,30
    2e5a:	0000                	unimp
    2e5c:	01fc                	addi	a5,sp,204
    2e5e:	0000                	unimp
    2e60:	02bc                	addi	a5,sp,328
    2e62:	0000                	unimp
    2e64:	035c                	addi	a5,sp,388
    2e66:	0000                	unimp
    2e68:	01e0                	addi	s0,sp,204
    2e6a:	0000                	unimp
    2e6c:	02e5                	addi	t0,t0,25
    2e6e:	0000                	unimp
    2e70:	000001f3          	0x1f3
    2e74:	02c5                	addi	t0,t0,17
    2e76:	0000                	unimp
    2e78:	0031                	c.nop	12
    2e7a:	0000                	unimp
    2e7c:	00000173          	0x173
    2e80:	0369                	addi	t1,t1,26
    2e82:	0000                	unimp
    2e84:	03b1                	addi	t2,t2,12
    2e86:	0000                	unimp
    2e88:	03e0                	addi	s0,sp,460
    2e8a:	0000                	unimp
    2e8c:	020e                	slli	tp,tp,0x3
    2e8e:	0000                	unimp
    2e90:	02d1                	addi	t0,t0,20
    2e92:	0000                	unimp
    2e94:	000001b3          	add	gp,zero,zero
    2e98:	00e8                	addi	a0,sp,76
    2e9a:	0000                	unimp
    2e9c:	01f1                	addi	gp,gp,28
    2e9e:	0000                	unimp
    2ea0:	02b9                	addi	t0,t0,14
    2ea2:	0000                	unimp
    2ea4:	001e                	c.slli	zero,0x7
    2ea6:	0000                	unimp
    2ea8:	015c                	addi	a5,sp,132
    2eaa:	0000                	unimp
    2eac:	00fa                	slli	ra,ra,0x1e
    2eae:	0000                	unimp
    2eb0:	015e                	slli	sp,sp,0x17
    2eb2:	0000                	unimp
    2eb4:	00fa                	slli	ra,ra,0x1e
    2eb6:	0000                	unimp
    2eb8:	023d                	addi	tp,tp,15
    2eba:	0000                	unimp
    2ebc:	0310                	addi	a2,sp,384
    2ebe:	0000                	unimp
    2ec0:	02ed                	addi	t0,t0,27
    2ec2:	0000                	unimp
    2ec4:	01f6                	slli	gp,gp,0x1d
    2ec6:	0000                	unimp
    2ec8:	00000337          	lui	t1,0x0
    2ecc:	033a                	slli	t1,t1,0xe
    2ece:	0000                	unimp
    2ed0:	00aa                	slli	ra,ra,0xa
    2ed2:	0000                	unimp
    2ed4:	00a0                	addi	s0,sp,72
    2ed6:	0000                	unimp
    2ed8:	02a2                	slli	t0,t0,0x8
    2eda:	0000                	unimp
    2edc:	0020                	addi	s0,sp,8
    2ede:	0000                	unimp
    2ee0:	00ca                	slli	ra,ra,0x12
    2ee2:	0000                	unimp
    2ee4:	0000008f          	0x8f
    2ee8:	0355                	addi	t1,t1,21
    2eea:	0000                	unimp
    2eec:	005a                	c.slli	zero,0x16
    2eee:	0000                	unimp
    2ef0:	018a                	slli	gp,gp,0x2
    2ef2:	0000                	unimp
    2ef4:	0000006b          	0x6b
    2ef8:	00000357          	0x357
    2efc:	006a                	c.slli	zero,0x1a
    2efe:	0000                	unimp
    2f00:	009d                	addi	ra,ra,7
    2f02:	0000                	unimp
    2f04:	0006                	c.slli	zero,0x1
    2f06:	0000                	unimp
    2f08:	02fd                	addi	t0,t0,31
    2f0a:	0000                	unimp
    2f0c:	00cc                	addi	a1,sp,68
    2f0e:	0000                	unimp
    2f10:	00c2                	slli	ra,ra,0x10
    2f12:	0000                	unimp
    2f14:	023e                	slli	tp,tp,0xf
    2f16:	0000                	unimp
    2f18:	00da                	slli	ra,ra,0x16
    2f1a:	0000                	unimp
    2f1c:	020e                	slli	tp,tp,0x3
    2f1e:	0000                	unimp
    2f20:	00b1                	addi	ra,ra,12
    2f22:	0000                	unimp
    2f24:	000000ef          	jal	ra,2f24 <input1_data+0x4fc>
    2f28:	02ba                	slli	t0,t0,0xe
    2f2a:	0000                	unimp
    2f2c:	02f5                	addi	t0,t0,29
    2f2e:	0000                	unimp
    2f30:	02c2                	slli	t0,t0,0x10
    2f32:	0000                	unimp
    2f34:	0031                	c.nop	12
    2f36:	0000                	unimp
    2f38:	0054                	addi	a3,sp,4
    2f3a:	0000                	unimp
    2f3c:	031f 0000 037d      	0x37d0000031f
    2f42:	0000                	unimp
    2f44:	0200                	addi	s0,sp,256
    2f46:	0000                	unimp
    2f48:	0175                	addi	sp,sp,29
    2f4a:	0000                	unimp
    2f4c:	01ec                	addi	a1,sp,204
    2f4e:	0000                	unimp
    2f50:	000e                	c.slli	zero,0x3
    2f52:	0000                	unimp
    2f54:	026d                	addi	tp,tp,27
    2f56:	0000                	unimp
    2f58:	00000053          	fadd.s	ft0,ft0,ft0,rne
    2f5c:	00000067          	jr	zero # 0 <_start>
    2f60:	031a                	slli	t1,t1,0x6
    2f62:	0000                	unimp
    2f64:	0399                	addi	t2,t2,6
    2f66:	0000                	unimp
    2f68:	00000283          	lb	t0,0(zero) # 0 <_start>
    2f6c:	0370                	addi	a2,sp,396
    2f6e:	0000                	unimp
    2f70:	0342                	slli	t1,t1,0x10
    2f72:	0000                	unimp
    2f74:	000000ef          	jal	ra,2f74 <input1_data+0x54c>
    2f78:	01ce                	slli	gp,gp,0x13
    2f7a:	0000                	unimp
    2f7c:	0072                	c.slli	zero,0x1c
    2f7e:	0000                	unimp
    2f80:	0231                	addi	tp,tp,12
    2f82:	0000                	unimp
    2f84:	0211                	addi	tp,tp,4
    2f86:	0000                	unimp
    2f88:	000a                	c.slli	zero,0x2
    2f8a:	0000                	unimp
    2f8c:	03e5                	addi	t2,t2,25
    2f8e:	0000                	unimp
    2f90:	0388                	addi	a0,sp,448
    2f92:	0000                	unimp
    2f94:	00000183          	lb	gp,0(zero) # 0 <_start>
    2f98:	00000197          	auipc	gp,0x0
    2f9c:	0069                	c.nop	26
    2f9e:	0000                	unimp
    2fa0:	0000022f          	0x22f
    2fa4:	03a8                	addi	a0,sp,456
    2fa6:	0000                	unimp
    2fa8:	0200                	addi	s0,sp,256
    2faa:	0000                	unimp
    2fac:	0199                	addi	gp,gp,6
    2fae:	0000                	unimp
    2fb0:	012e                	slli	sp,sp,0xb
    2fb2:	0000                	unimp
    2fb4:	00ca                	slli	ra,ra,0x12
    2fb6:	0000                	unimp
    2fb8:	000001ab          	0x1ab
    2fbc:	0265                	addi	tp,tp,25
    2fbe:	0000                	unimp
    2fc0:	00000167          	jalr	sp,zero # 0 <_start>
    2fc4:	0209                	addi	tp,tp,2
    2fc6:	0000                	unimp
    2fc8:	02ac                	addi	a1,sp,328
    2fca:	0000                	unimp
    2fcc:	0016                	c.slli	zero,0x5
    2fce:	0000                	unimp
    2fd0:	00b9                	addi	ra,ra,14
    2fd2:	0000                	unimp
    2fd4:	0138                	addi	a4,sp,136
    2fd6:	0000                	unimp
    2fd8:	0000006b          	0x6b
    2fdc:	0112                	slli	sp,sp,0x4
    2fde:	0000                	unimp
    2fe0:	00000183          	lb	gp,0(zero) # 0 <_start>
    2fe4:	00f2                	slli	ra,ra,0x1c
    2fe6:	0000                	unimp
    2fe8:	01e6                	slli	gp,gp,0x19
    2fea:	0000                	unimp
    2fec:	0069                	c.nop	26
    2fee:	0000                	unimp
    2ff0:	02ba                	slli	t0,t0,0xe
    2ff2:	0000                	unimp
    2ff4:	00000383          	lb	t2,0(zero) # 0 <_start>
    2ff8:	0302                	c.slli64	t1
    2ffa:	0000                	unimp
    2ffc:	0284                	addi	s1,sp,320
    2ffe:	0000                	unimp
    3000:	0050                	addi	a2,sp,4
    3002:	0000                	unimp
    3004:	00a1                	addi	ra,ra,8
    3006:	0000                	unimp
    3008:	00000197          	auipc	gp,0x0
    300c:	03b2                	slli	t2,t2,0xc
    300e:	0000                	unimp
    3010:	001e                	c.slli	zero,0x7
    3012:	0000                	unimp
    3014:	0300                	addi	s0,sp,384
    3016:	0000                	unimp
    3018:	0366                	slli	t1,t1,0x19
    301a:	0000                	unimp
    301c:	0071                	c.nop	28
    301e:	0000                	unimp
    3020:	0094                	addi	a3,sp,64
    3022:	0000                	unimp
    3024:	003e                	c.slli	zero,0xf
    3026:	0000                	unimp
    3028:	00000093          	li	ra,0
    302c:	0346                	slli	t1,t1,0x11
    302e:	0000                	unimp
    3030:	034d                	addi	t1,t1,19
    3032:	0000                	unimp
    3034:	01b0                	addi	a2,sp,200
    3036:	0000                	unimp
    3038:	008d                	addi	ra,ra,3
    303a:	0000                	unimp
    303c:	000000d3          	fadd.s	ft1,ft0,ft0,rne
    3040:	0331                	addi	t1,t1,12
    3042:	0000                	unimp
    3044:	0335                	addi	t1,t1,13
    3046:	0000                	unimp
    3048:	0232                	slli	tp,tp,0xc
    304a:	0000                	unimp
    304c:	016c                	addi	a1,sp,140
    304e:	0000                	unimp
    3050:	00000267          	jalr	tp,zero # 0 <_start>
    3054:	000001ef          	jal	gp,3054 <input1_data+0x62c>
    3058:	032c                	addi	a1,sp,392
    305a:	0000                	unimp
    305c:	0394                	addi	a3,sp,448
    305e:	0000                	unimp
    3060:	009f 0000 01ae      	0x1ae0000009f
    3066:	0000                	unimp
    3068:	00000323          	sb	zero,6(zero) # 6 <_start+0x6>
    306c:	00b4                	addi	a3,sp,72
    306e:	0000                	unimp
    3070:	0220                	addi	s0,sp,264
    3072:	0000                	unimp
    3074:	0348                	addi	a0,sp,388
    3076:	0000                	unimp
    3078:	01ca                	slli	gp,gp,0x12
    307a:	0000                	unimp
    307c:	0312                	slli	t1,t1,0x4
    307e:	0000                	unimp
    3080:	0368                	addi	a0,sp,396
    3082:	0000                	unimp
    3084:	0000031b          	sext.w	t1,zero
    3088:	0326                	slli	t1,t1,0x9
    308a:	0000                	unimp
    308c:	02f6                	slli	t0,t0,0x1d
    308e:	0000                	unimp
    3090:	0068                	addi	a0,sp,12
    3092:	0000                	unimp
    3094:	0191                	addi	gp,gp,4
    3096:	0000                	unimp
    3098:	00fe                	slli	ra,ra,0x1f
    309a:	0000                	unimp
    309c:	03d8                	addi	a4,sp,452
    309e:	0000                	unimp
    30a0:	0088                	addi	a0,sp,64
    30a2:	0000                	unimp
    30a4:	02d9                	addi	t0,t0,22
    30a6:	0000                	unimp
    30a8:	0248                	addi	a0,sp,260
    30aa:	0000                	unimp
    30ac:	031a                	slli	t1,t1,0x6
    30ae:	0000                	unimp
    30b0:	019e                	slli	gp,gp,0x7
    30b2:	0000                	unimp
    30b4:	0210                	addi	a2,sp,256
    30b6:	0000                	unimp
    30b8:	000002c3          	fmadd.s	ft5,ft0,ft0,ft0,rne
    30bc:	022a                	slli	tp,tp,0xa
    30be:	0000                	unimp
    30c0:	017a                	slli	sp,sp,0x1e
    30c2:	0000                	unimp
    30c4:	02fe                	slli	t0,t0,0x1f
    30c6:	0000                	unimp
    30c8:	03d1                	addi	t2,t2,20
    30ca:	0000                	unimp
    30cc:	00ec                	addi	a1,sp,76
    30ce:	0000                	unimp
    30d0:	000003b3          	add	t2,zero,zero
    30d4:	00e5                	addi	ra,ra,25
    30d6:	0000                	unimp
    30d8:	00a5                	addi	ra,ra,9
    30da:	0000                	unimp
    30dc:	01f9                	addi	gp,gp,30
    30de:	0000                	unimp
    30e0:	0069                	c.nop	26
    30e2:	0000                	unimp
    30e4:	02c0                	addi	s0,sp,324
    30e6:	0000                	unimp
    30e8:	031c                	addi	a5,sp,384
    30ea:	0000                	unimp
    30ec:	008c                	addi	a1,sp,64
    30ee:	0000                	unimp
    30f0:	0000012f          	0x12f
    30f4:	0000031b          	sext.w	t1,zero
    30f8:	0000027b          	0x27b
    30fc:	0230                	addi	a2,sp,264
    30fe:	0000                	unimp
    3100:	00000077          	0x77
    3104:	0008                	0x8
    3106:	0000                	unimp
    3108:	0214                	addi	a3,sp,256
    310a:	0000                	unimp
    310c:	032e                	slli	t1,t1,0xb
    310e:	0000                	unimp
    3110:	0025                	c.nop	9
    3112:	0000                	unimp
    3114:	0248                	addi	a0,sp,260
    3116:	0000                	unimp
    3118:	000002e3          	beqz	zero,391c <input1_data+0xef4>
    311c:	0000026b          	0x26b
    3120:	02ff                	0x2ff
    3122:	0000                	unimp
    3124:	01de                	slli	gp,gp,0x17
    3126:	0000                	unimp
    3128:	0039                	c.nop	14
    312a:	0000                	unimp
    312c:	03be                	slli	t2,t2,0xf
    312e:	0000                	unimp
    3130:	0310                	addi	a2,sp,384
    3132:	0000                	unimp
    3134:	03d9                	addi	t2,t2,22
    3136:	0000                	unimp
    3138:	0345                	addi	t1,t1,17
    313a:	0000                	unimp
    313c:	00000133          	add	sp,zero,zero
    3140:	00000043          	fmadd.s	ft0,ft0,ft0,ft0,rne
    3144:	0338                	addi	a4,sp,392
    3146:	0000                	unimp
    3148:	03e4                	addi	s1,sp,460
    314a:	0000                	unimp
    314c:	02ed                	addi	t0,t0,27
    314e:	0000                	unimp
    3150:	000000ab          	0xab
    3154:	033a                	slli	t1,t1,0xe
    3156:	0000                	unimp
    3158:	026d                	addi	tp,tp,27
    315a:	0000                	unimp
    315c:	0000009b          	sext.w	ra,zero
    3160:	033a                	slli	t1,t1,0xe
    3162:	0000                	unimp
    3164:	0000002b          	0x2b
    3168:	02b6                	slli	t0,t0,0xd
    316a:	0000                	unimp
    316c:	0050                	addi	a2,sp,4
    316e:	0000                	unimp
    3170:	00ec                	addi	a1,sp,76
    3172:	0000                	unimp
    3174:	000002eb          	0x2eb
    3178:	02e8                	addi	a0,sp,332
    317a:	0000                	unimp
    317c:	0109                	addi	sp,sp,2
    317e:	0000                	unimp
    3180:	007c                	addi	a5,sp,12
    3182:	0000                	unimp
    3184:	000002db          	0x2db
    3188:	03ad                	addi	t2,t2,11
    318a:	0000                	unimp
    318c:	01a9                	addi	gp,gp,10
    318e:	0000                	unimp
    3190:	0172                	slli	sp,sp,0x1c
    3192:	0000                	unimp
    3194:	0140                	addi	s0,sp,132
    3196:	0000                	unimp
    3198:	010d                	addi	sp,sp,3
    319a:	0000                	unimp
    319c:	021e                	slli	tp,tp,0x7
    319e:	0000                	unimp
    31a0:	000002fb          	0x2fb
    31a4:	02f0                	addi	a2,sp,332
    31a6:	0000                	unimp
    31a8:	00000393          	li	t2,0
    31ac:	000e                	c.slli	zero,0x3
    31ae:	0000                	unimp
    31b0:	0001                	nop
    31b2:	0000                	unimp
    31b4:	038a                	slli	t2,t2,0x2
    31b6:	0000                	unimp
    31b8:	000003e3          	beqz	zero,39be <input1_data+0xf96>
    31bc:	0329                	addi	t1,t1,10
    31be:	0000                	unimp
    31c0:	0230                	addi	a2,sp,264
    31c2:	0000                	unimp
    31c4:	0369                	addi	t1,t1,26
    31c6:	0000                	unimp
    31c8:	03cc                	addi	a1,sp,452
    31ca:	0000                	unimp
    31cc:	0121                	addi	sp,sp,8
    31ce:	0000                	unimp
    31d0:	01fd                	addi	gp,gp,31
    31d2:	0000                	unimp
    31d4:	022e                	slli	tp,tp,0xb
    31d6:	0000                	unimp
    31d8:	03ca                	slli	t2,t2,0x12
    31da:	0000                	unimp
    31dc:	0195                	addi	gp,gp,5
    31de:	0000                	unimp
    31e0:	00000243          	fmadd.s	ft4,ft0,ft0,ft0,rne
    31e4:	0125                	addi	sp,sp,9
    31e6:	0000                	unimp
    31e8:	000000fb          	0xfb
    31ec:	0351                	addi	t1,t1,20
    31ee:	0000                	unimp
    31f0:	0081                	addi	ra,ra,0
    31f2:	0000                	unimp
    31f4:	01c4                	addi	s1,sp,196
    31f6:	0000                	unimp
    31f8:	02cc                	addi	a1,sp,324
    31fa:	0000                	unimp
    31fc:	0056                	c.slli	zero,0x15
    31fe:	0000                	unimp
    3200:	02a6                	slli	t0,t0,0x9
    3202:	0000                	unimp
    3204:	00b5                	addi	ra,ra,13
    3206:	0000                	unimp
    3208:	00f0                	addi	a2,sp,76
    320a:	0000                	unimp
    320c:	0000014f          	fnmadd.s	ft2,ft0,ft0,ft0,rne
    3210:	0319                	addi	t1,t1,6
    3212:	0000                	unimp
    3214:	0281                	addi	t0,t0,0
    3216:	0000                	unimp
    3218:	0001                	nop
    321a:	0000                	unimp
    321c:	0140                	addi	s0,sp,132
    321e:	0000                	unimp
    3220:	000003db          	0x3db
    3224:	0286                	slli	t0,t0,0x1
    3226:	0000                	unimp
    3228:	02f2                	slli	t0,t0,0x1c
    322a:	0000                	unimp
    322c:	03be                	slli	t2,t2,0xf
    322e:	0000                	unimp
    3230:	000000cb          	fnmsub.s	ft1,ft0,ft0,ft0,rne
    3234:	008e                	slli	ra,ra,0x3
    3236:	0000                	unimp
    3238:	00b4                	addi	a3,sp,72
    323a:	0000                	unimp
    323c:	0000012b          	0x12b
    3240:	00a5                	addi	ra,ra,9
    3242:	0000                	unimp
    3244:	02f9                	addi	t0,t0,30
    3246:	0000                	unimp
    3248:	03ce                	slli	t2,t2,0x13
    324a:	0000                	unimp
    324c:	0286                	slli	t0,t0,0x1
    324e:	0000                	unimp
    3250:	0000022f          	0x22f
    3254:	0000026b          	0x26b
    3258:	01a6                	slli	gp,gp,0x9
    325a:	0000                	unimp
    325c:	0104                	addi	s1,sp,128
    325e:	0000                	unimp
    3260:	0235                	addi	tp,tp,13
    3262:	0000                	unimp
    3264:	021e                	slli	tp,tp,0x7
    3266:	0000                	unimp
    3268:	01ec                	addi	a1,sp,204
    326a:	0000                	unimp
    326c:	03df 0000 02e9      	0x2e9000003df
    3272:	0000                	unimp
    3274:	000000cf          	fnmadd.s	ft1,ft0,ft0,ft0,rne
    3278:	0174                	addi	a3,sp,140
    327a:	0000                	unimp
    327c:	03a4                	addi	s1,sp,456
    327e:	0000                	unimp
    3280:	0298                	addi	a4,sp,320
    3282:	0000                	unimp
    3284:	0022                	c.slli	zero,0x8
    3286:	0000                	unimp
    3288:	0215                	addi	tp,tp,5
    328a:	0000                	unimp
    328c:	01de                	slli	gp,gp,0x17
    328e:	0000                	unimp
    3290:	038c                	addi	a1,sp,448
    3292:	0000                	unimp
    3294:	000000cb          	fnmsub.s	ft1,ft0,ft0,ft0,rne
    3298:	0021                	c.nop	8
    329a:	0000                	unimp
    329c:	00d6                	slli	ra,ra,0x15
    329e:	0000                	unimp
    32a0:	016d                	addi	sp,sp,27
    32a2:	0000                	unimp
    32a4:	037c                	addi	a5,sp,396
    32a6:	0000                	unimp
    32a8:	030d                	addi	t1,t1,3
    32aa:	0000                	unimp
    32ac:	02a8                	addi	a0,sp,328
    32ae:	0000                	unimp
    32b0:	02c1                	addi	t0,t0,16
    32b2:	0000                	unimp
    32b4:	02b0                	addi	a2,sp,328
    32b6:	0000                	unimp
    32b8:	000003b3          	add	t2,zero,zero
    32bc:	0182                	c.slli64	gp
    32be:	0000                	unimp
    32c0:	0032                	c.slli	zero,0xc
    32c2:	0000                	unimp
    32c4:	0065                	c.nop	25
    32c6:	0000                	unimp
    32c8:	01da                	slli	gp,gp,0x16
    32ca:	0000                	unimp
    32cc:	0000018f          	0x18f
    32d0:	000002a7          	0x2a7
    32d4:	014a                	slli	sp,sp,0x12
    32d6:	0000                	unimp
    32d8:	03b8                	addi	a4,sp,456
    32da:	0000                	unimp
    32dc:	000001d7          	0x1d7
    32e0:	01dd                	addi	gp,gp,23
    32e2:	0000                	unimp
    32e4:	02d5                	addi	t0,t0,21
    32e6:	0000                	unimp
    32e8:	02c9                	addi	t0,t0,18
    32ea:	0000                	unimp
    32ec:	03a9                	addi	t2,t2,10
    32ee:	0000                	unimp
    32f0:	0211                	addi	tp,tp,4
    32f2:	0000                	unimp
    32f4:	0366                	slli	t1,t1,0x19
    32f6:	0000                	unimp
    32f8:	004d                	c.nop	19
    32fa:	0000                	unimp
    32fc:	0221                	addi	tp,tp,8
    32fe:	0000                	unimp
    3300:	0000038b          	0x38b
    3304:	0355                	addi	t1,t1,21
    3306:	0000                	unimp
    3308:	0000008f          	0x8f
    330c:	000003d3          	fadd.s	ft7,ft0,ft0,rne
    3310:	000000ef          	jal	ra,3310 <input1_data+0x8e8>
    3314:	0069                	c.nop	26
    3316:	0000                	unimp
    3318:	016d                	addi	sp,sp,27
    331a:	0000                	unimp
    331c:	0062                	c.slli	zero,0x18
    331e:	0000                	unimp
    3320:	0036                	c.slli	zero,0xd
    3322:	0000                	unimp
    3324:	0062                	c.slli	zero,0x18
    3326:	0000                	unimp
    3328:	01b8                	addi	a4,sp,200
    332a:	0000                	unimp
    332c:	02fc                	addi	a5,sp,332
    332e:	0000                	unimp
    3330:	0000013b          	addw	sp,zero,zero
    3334:	0150                	addi	a2,sp,132
    3336:	0000                	unimp
    3338:	02b9                	addi	t0,t0,14
    333a:	0000                	unimp
    333c:	0306                	slli	t1,t1,0x1
    333e:	0000                	unimp
    3340:	02d6                	slli	t0,t0,0x15
    3342:	0000                	unimp
    3344:	0144                	addi	s1,sp,132
    3346:	0000                	unimp
    3348:	011a                	slli	sp,sp,0x6
    334a:	0000                	unimp
    334c:	0218                	addi	a4,sp,256
    334e:	0000                	unimp
    3350:	026e                	slli	tp,tp,0x1b
    3352:	0000                	unimp
    3354:	0252                	slli	tp,tp,0x14
    3356:	0000                	unimp
    3358:	037a                	slli	t1,t1,0x1e
    335a:	0000                	unimp
    335c:	0000004b          	fnmsub.s	ft0,ft0,ft0,ft0,rne
    3360:	0122                	slli	sp,sp,0x8
    3362:	0000                	unimp
    3364:	01f0                	addi	a2,sp,204
    3366:	0000                	unimp
    3368:	02d6                	slli	t0,t0,0x15
    336a:	0000                	unimp
    336c:	01c1                	addi	gp,gp,16
    336e:	0000                	unimp
    3370:	0224                	addi	s1,sp,264
    3372:	0000                	unimp
    3374:	00000087          	0x87
    3378:	0284                	addi	s1,sp,320
    337a:	0000                	unimp
    337c:	0346                	slli	t1,t1,0x11
    337e:	0000                	unimp
    3380:	0122                	slli	sp,sp,0x8
    3382:	0000                	unimp
    3384:	02ff                	0x2ff
    3386:	0000                	unimp
    3388:	00a2                	slli	ra,ra,0x8
    338a:	0000                	unimp
    338c:	019f 0000 01eb      	0x1eb0000019f
    3392:	0000                	unimp
    3394:	03d9                	addi	t2,t2,22
    3396:	0000                	unimp
    3398:	0074                	addi	a3,sp,12
    339a:	0000                	unimp
    339c:	0269                	addi	tp,tp,26
    339e:	0000                	unimp
    33a0:	0000035b          	0x35b
    33a4:	000000eb          	0xeb
    33a8:	011a                	slli	sp,sp,0x6
    33aa:	0000                	unimp
    33ac:	0000023b          	addw	tp,zero,zero
    33b0:	0391                	addi	t2,t2,4
    33b2:	0000                	unimp
    33b4:	0230                	addi	a2,sp,264
    33b6:	0000                	unimp
    33b8:	00c2                	slli	ra,ra,0x10
    33ba:	0000                	unimp
    33bc:	00f2                	slli	ra,ra,0x1c
    33be:	0000                	unimp
    33c0:	030e                	slli	t1,t1,0x3
    33c2:	0000                	unimp
    33c4:	03d9                	addi	t2,t2,22
    33c6:	0000                	unimp
    33c8:	02d8                	addi	a4,sp,324
    33ca:	0000                	unimp
    33cc:	0158                	addi	a4,sp,132
    33ce:	0000                	unimp
    33d0:	01ae                	slli	gp,gp,0xb
    33d2:	0000                	unimp
    33d4:	0265                	addi	tp,tp,25
    33d6:	0000                	unimp
    33d8:	000002f7          	0x2f7
    33dc:	00b0                	addi	a2,sp,72
    33de:	0000                	unimp
    33e0:	0135                	addi	sp,sp,13
    33e2:	0000                	unimp
    33e4:	014d                	addi	sp,sp,19
    33e6:	0000                	unimp
    33e8:	0162                	slli	sp,sp,0x18
    33ea:	0000                	unimp
    33ec:	0136                	slli	sp,sp,0xd
    33ee:	0000                	unimp
    33f0:	000002bb          	addw	t0,zero,zero
    33f4:	002e                	c.slli	zero,0xb
    33f6:	0000                	unimp
    33f8:	000001e7          	jalr	gp,zero # 0 <_start>
    33fc:	000001f7          	0x1f7
    3400:	0064                	addi	s1,sp,12
    3402:	0000                	unimp
    3404:	0189                	addi	gp,gp,2
    3406:	0000                	unimp
    3408:	010c                	addi	a1,sp,128
    340a:	0000                	unimp
    340c:	013a                	slli	sp,sp,0xe
    340e:	0000                	unimp
    3410:	0000004b          	fnmsub.s	ft0,ft0,ft0,ft0,rne
    3414:	0159                	addi	sp,sp,22
    3416:	0000                	unimp
    3418:	000003db          	0x3db
    341c:	0258                	addi	a4,sp,260
    341e:	0000                	unimp
    3420:	038c                	addi	a1,sp,448
    3422:	0000                	unimp
    3424:	0180                	addi	s0,sp,192
    3426:	0000                	unimp
    3428:	005c                	addi	a5,sp,4
    342a:	0000                	unimp
    342c:	0221                	addi	tp,tp,8
    342e:	0000                	unimp
    3430:	0115                	addi	sp,sp,5
    3432:	0000                	unimp
    3434:	029c                	addi	a5,sp,320
    3436:	0000                	unimp
    3438:	015f 0000 0355      	0x3550000015f
    343e:	0000                	unimp
    3440:	035f 0000 0138      	0x1380000035f
    3446:	0000                	unimp
    3448:	0064                	addi	s1,sp,12
    344a:	0000                	unimp
    344c:	0214                	addi	a3,sp,256
    344e:	0000                	unimp
    3450:	00000237          	lui	tp,0x0
    3454:	0344                	addi	s1,sp,388
    3456:	0000                	unimp
    3458:	0172                	slli	sp,sp,0x1c
    345a:	0000                	unimp
    345c:	03dd                	addi	t2,t2,23
    345e:	0000                	unimp
    3460:	01cd                	addi	gp,gp,19
    3462:	0000                	unimp
    3464:	0390                	addi	a2,sp,448
    3466:	0000                	unimp
    3468:	00b6                	slli	ra,ra,0xd
    346a:	0000                	unimp
    346c:	010c                	addi	a1,sp,128
    346e:	0000                	unimp
    3470:	00a0                	addi	s0,sp,72
    3472:	0000                	unimp
    3474:	00000303          	lb	t1,0(zero) # 0 <_start>
    3478:	0016                	c.slli	zero,0x5
    347a:	0000                	unimp
    347c:	0356                	slli	t1,t1,0x15
    347e:	0000                	unimp
    3480:	0284                	addi	s1,sp,320
    3482:	0000                	unimp
    3484:	0011                	c.nop	4
    3486:	0000                	unimp
    3488:	0000030b          	0x30b
    348c:	0000038f          	0x38f
    3490:	00000357          	0x357
    3494:	0089                	addi	ra,ra,2
    3496:	0000                	unimp
    3498:	000003d7          	0x3d7
    349c:	02cd                	addi	t0,t0,19
    349e:	0000                	unimp
    34a0:	0235                	addi	tp,tp,13
    34a2:	0000                	unimp
    34a4:	000002cf          	fnmadd.s	ft5,ft0,ft0,ft0,rne
    34a8:	00fd                	addi	ra,ra,31
    34aa:	0000                	unimp
    34ac:	0311                	addi	t1,t1,4
    34ae:	0000                	unimp
    34b0:	009a                	slli	ra,ra,0x6
    34b2:	0000                	unimp
    34b4:	00c4                	addi	s1,sp,68
    34b6:	0000                	unimp
    34b8:	00fd                	addi	ra,ra,31
    34ba:	0000                	unimp
    34bc:	000001bf 00000383 	0x383000001bf
    34c4:	0005                	c.nop	1
    34c6:	0000                	unimp
    34c8:	0145                	addi	sp,sp,17
    34ca:	0000                	unimp
    34cc:	0268                	addi	a0,sp,268
    34ce:	0000                	unimp
    34d0:	0135                	addi	sp,sp,13
    34d2:	0000                	unimp
    34d4:	000000af          	0xaf
    34d8:	009f 0000 007b      	0x7b0000009f
    34de:	0000                	unimp
    34e0:	0346                	slli	t1,t1,0x11
    34e2:	0000                	unimp
    34e4:	000002cb          	fnmsub.s	ft5,ft0,ft0,ft0,rne
    34e8:	0226                	slli	tp,tp,0x9
    34ea:	0000                	unimp
    34ec:	00e6                	slli	ra,ra,0x19
    34ee:	0000                	unimp
    34f0:	0052                	c.slli	zero,0x14
    34f2:	0000                	unimp
    34f4:	00000273          	0x273
    34f8:	0144                	addi	s1,sp,132
    34fa:	0000                	unimp
    34fc:	039f 0000 0067      	0x670000039f
    3502:	0000                	unimp
    3504:	0011                	c.nop	4
    3506:	0000                	unimp
    3508:	03c6                	slli	t2,t2,0x11
    350a:	0000                	unimp
    350c:	009f 0000 00b1      	0xb10000009f
    3512:	0000                	unimp
    3514:	0251                	addi	tp,tp,20
    3516:	0000                	unimp
    3518:	0174                	addi	a3,sp,140
    351a:	0000                	unimp
    351c:	0189                	addi	gp,gp,2
    351e:	0000                	unimp
    3520:	00000257          	0x257
    3524:	02e9                	addi	t0,t0,26
    3526:	0000                	unimp
    3528:	0179                	addi	sp,sp,30
    352a:	0000                	unimp
    352c:	0361                	addi	t1,t1,24
    352e:	0000                	unimp
    3530:	0000024f          	fnmadd.s	ft4,ft0,ft0,ft0,rne
    3534:	0229                	addi	tp,tp,10
    3536:	0000                	unimp
    3538:	01b8                	addi	a4,sp,200
    353a:	0000                	unimp
    353c:	0159                	addi	sp,sp,22
    353e:	0000                	unimp
    3540:	0251                	addi	tp,tp,20
    3542:	0000                	unimp
    3544:	0122                	slli	sp,sp,0x8
    3546:	0000                	unimp
    3548:	038c                	addi	a1,sp,448
    354a:	0000                	unimp
    354c:	0220                	addi	s0,sp,264
    354e:	0000                	unimp
    3550:	0179                	addi	sp,sp,30
    3552:	0000                	unimp
    3554:	01c8                	addi	a0,sp,196
    3556:	0000                	unimp
    3558:	030d                	addi	t1,t1,3
    355a:	0000                	unimp
    355c:	006e                	c.slli	zero,0x1b
    355e:	0000                	unimp
    3560:	000001ef          	jal	gp,3560 <input1_data+0xb38>
    3564:	0380                	addi	s0,sp,448
    3566:	0000                	unimp
    3568:	0326                	slli	t1,t1,0x9
    356a:	0000                	unimp
    356c:	02bc                	addi	a5,sp,328
    356e:	0000                	unimp
    3570:	0224                	addi	s1,sp,264
    3572:	0000                	unimp
    3574:	0154                	addi	a3,sp,132
    3576:	0000                	unimp
    3578:	001d                	c.nop	7
    357a:	0000                	unimp
    357c:	033d                	addi	t1,t1,15
    357e:	0000                	unimp
    3580:	0276                	slli	tp,tp,0x1d
    3582:	0000                	unimp
    3584:	0222                	slli	tp,tp,0x8
    3586:	0000                	unimp
    3588:	0265                	addi	tp,tp,25
    358a:	0000                	unimp
    358c:	03cc                	addi	a1,sp,452
    358e:	0000                	unimp
    3590:	0074                	addi	a3,sp,12
    3592:	0000                	unimp
    3594:	0139                	addi	sp,sp,14
    3596:	0000                	unimp
    3598:	0388                	addi	a0,sp,448
    359a:	0000                	unimp
    359c:	000003cb          	fnmsub.s	ft7,ft0,ft0,ft0,rne
    35a0:	025f 0000 031a      	0x31a0000025f
    35a6:	0000                	unimp
    35a8:	00a9                	addi	ra,ra,10
    35aa:	0000                	unimp
    35ac:	0380                	addi	s0,sp,448
    35ae:	0000                	unimp
    35b0:	000001fb          	0x1fb
    35b4:	0394                	addi	a3,sp,448
    35b6:	0000                	unimp
    35b8:	000001af          	0x1af
    35bc:	00000153          	fadd.s	ft2,ft0,ft0,rne
    35c0:	00000093          	li	ra,0
    35c4:	00e0                	addi	s0,sp,76
    35c6:	0000                	unimp
    35c8:	0070                	addi	a2,sp,12
    35ca:	0000                	unimp
    35cc:	0244                	addi	s1,sp,260
    35ce:	0000                	unimp
    35d0:	0342                	slli	t1,t1,0x10
    35d2:	0000                	unimp
    35d4:	0086                	slli	ra,ra,0x1
    35d6:	0000                	unimp
    35d8:	03b4                	addi	a3,sp,456
    35da:	0000                	unimp
    35dc:	00c9                	addi	ra,ra,18
    35de:	0000                	unimp
    35e0:	01e8                	addi	a0,sp,204
    35e2:	0000                	unimp
    35e4:	018c                	addi	a1,sp,192
    35e6:	0000                	unimp
    35e8:	031d                	addi	t1,t1,7
    35ea:	0000                	unimp
    35ec:	01de                	slli	gp,gp,0x17
    35ee:	0000                	unimp
    35f0:	0301                	addi	t1,t1,0
    35f2:	0000                	unimp
    35f4:	023e                	slli	tp,tp,0xf
    35f6:	0000                	unimp
    35f8:	01e5                	addi	gp,gp,25
    35fa:	0000                	unimp
    35fc:	00000153          	fadd.s	ft2,ft0,ft0,rne
    3600:	02d1                	addi	t0,t0,20
    3602:	0000                	unimp
    3604:	000001c3          	fmadd.s	ft3,ft0,ft0,ft0,rne
    3608:	0335                	addi	t1,t1,13
    360a:	0000                	unimp
    360c:	02e8                	addi	a0,sp,332
    360e:	0000                	unimp
    3610:	0000                	unimp
    3612:	0000                	unimp
    3614:	0252                	slli	tp,tp,0x14
    3616:	0000                	unimp
    3618:	0115                	addi	sp,sp,5
    361a:	0000                	unimp
    361c:	0078                	addi	a4,sp,12
    361e:	0000                	unimp
    3620:	02a8                	addi	a0,sp,328
    3622:	0000                	unimp
    3624:	02f5                	addi	t0,t0,29
    3626:	0000                	unimp
    3628:	0000022b          	0x22b
    362c:	0000034f          	fnmadd.s	ft6,ft0,ft0,ft0,rne
    3630:	0205                	addi	tp,tp,1
    3632:	0000                	unimp
    3634:	0000017b          	0x17b
    3638:	01f9                	addi	gp,gp,30
    363a:	0000                	unimp
    363c:	0388                	addi	a0,sp,448
    363e:	0000                	unimp
    3640:	00f6                	slli	ra,ra,0x1d
    3642:	0000                	unimp
    3644:	000000f3          	0xf3
    3648:	018a                	slli	gp,gp,0x2
    364a:	0000                	unimp
    364c:	01ae                	slli	gp,gp,0xb
    364e:	0000                	unimp
    3650:	00d6                	slli	ra,ra,0x15
    3652:	0000                	unimp
    3654:	00f4                	addi	a3,sp,76
    3656:	0000                	unimp
    3658:	020c                	addi	a1,sp,256
    365a:	0000                	unimp
    365c:	0000018f          	0x18f
    3660:	00ac                	addi	a1,sp,72
    3662:	0000                	unimp
    3664:	0130                	addi	a2,sp,136
    3666:	0000                	unimp
    3668:	026c                	addi	a1,sp,268
    366a:	0000                	unimp
    366c:	0252                	slli	tp,tp,0x14
    366e:	0000                	unimp
    3670:	00000217          	auipc	tp,0x0
    3674:	02ba                	slli	t0,t0,0xe
    3676:	0000                	unimp
    3678:	009f 0000 02ee      	0x2ee0000009f
    367e:	0000                	unimp
    3680:	0329                	addi	t1,t1,10
    3682:	0000                	unimp
    3684:	01c6                	slli	gp,gp,0x11
    3686:	0000                	unimp
    3688:	0000004b          	fnmsub.s	ft0,ft0,ft0,ft0,rne
    368c:	005d                	c.nop	23
    368e:	0000                	unimp
    3690:	000000a7          	0xa7
    3694:	0010                	0x10
    3696:	0000                	unimp
    3698:	0355                	addi	t1,t1,21
    369a:	0000                	unimp
    369c:	01ee                	slli	gp,gp,0x1b
    369e:	0000                	unimp
    36a0:	0144                	addi	s1,sp,132
    36a2:	0000                	unimp
    36a4:	004e                	c.slli	zero,0x13
    36a6:	0000                	unimp
    36a8:	0034                	addi	a3,sp,8
    36aa:	0000                	unimp
    36ac:	0070                	addi	a2,sp,12
    36ae:	0000                	unimp
    36b0:	000a                	c.slli	zero,0x2
    36b2:	0000                	unimp
    36b4:	0156                	slli	sp,sp,0x15
    36b6:	0000                	unimp
    36b8:	02da                	slli	t0,t0,0x16
    36ba:	0000                	unimp
    36bc:	02a8                	addi	a0,sp,328
    36be:	0000                	unimp
    36c0:	011f 0000 03c1      	0x3c10000011f
    36c6:	0000                	unimp
    36c8:	005c                	addi	a5,sp,4
    36ca:	0000                	unimp
    36cc:	0272                	slli	tp,tp,0x1c
    36ce:	0000                	unimp
    36d0:	0390                	addi	a2,sp,448
    36d2:	0000                	unimp
    36d4:	0268                	addi	a0,sp,268
    36d6:	0000                	unimp
    36d8:	035c                	addi	a5,sp,388
    36da:	0000                	unimp
    36dc:	02e8                	addi	a0,sp,332
    36de:	0000                	unimp
    36e0:	02e8                	addi	a0,sp,332
    36e2:	0000                	unimp
    36e4:	01de                	slli	gp,gp,0x17
    36e6:	0000                	unimp
    36e8:	00000267          	jalr	tp,zero # 0 <_start>
    36ec:	01fc                	addi	a5,sp,204
    36ee:	0000                	unimp
    36f0:	0392                	slli	t2,t2,0x4
    36f2:	0000                	unimp
    36f4:	032a                	slli	t1,t1,0xa
    36f6:	0000                	unimp
    36f8:	0120                	addi	s0,sp,136
    36fa:	0000                	unimp
    36fc:	03ce                	slli	t2,t2,0x13
    36fe:	0000                	unimp
    3700:	0081                	addi	ra,ra,0
    3702:	0000                	unimp
    3704:	0245                	addi	tp,tp,17
    3706:	0000                	unimp
    3708:	0224                	addi	s1,sp,264
    370a:	0000                	unimp
    370c:	0364                	addi	s1,sp,396
    370e:	0000                	unimp
    3710:	03d5                	addi	t2,t2,21
    3712:	0000                	unimp
    3714:	010e                	slli	sp,sp,0x3
    3716:	0000                	unimp
    3718:	0000026f          	jal	tp,3718 <input1_data+0xcf0>
    371c:	028d                	addi	t0,t0,3
    371e:	0000                	unimp
    3720:	0272                	slli	tp,tp,0x1c
    3722:	0000                	unimp
    3724:	03de                	slli	t2,t2,0x17
    3726:	0000                	unimp
    3728:	0182                	c.slli64	gp
    372a:	0000                	unimp
    372c:	00000143          	fmadd.s	ft2,ft0,ft0,ft0,rne
    3730:	01d8                	addi	a4,sp,196
    3732:	0000                	unimp
    3734:	00a4                	addi	s1,sp,72
    3736:	0000                	unimp
    3738:	000000ef          	jal	ra,3738 <input1_data+0xd10>
    373c:	00bd                	addi	ra,ra,15
    373e:	0000                	unimp
    3740:	0361                	addi	t1,t1,24
    3742:	0000                	unimp
    3744:	000000e7          	jalr	zero # 0 <_start>
    3748:	0164                	addi	s1,sp,140
    374a:	0000                	unimp
    374c:	0098                	addi	a4,sp,64
    374e:	0000                	unimp
    3750:	0339                	addi	t1,t1,14
    3752:	0000                	unimp
    3754:	0148                	addi	a0,sp,132
    3756:	0000                	unimp
    3758:	0186                	slli	gp,gp,0x1
    375a:	0000                	unimp
    375c:	0350                	addi	a2,sp,388
    375e:	0000                	unimp
    3760:	0026                	c.slli	zero,0x9
    3762:	0000                	unimp
    3764:	0192                	slli	gp,gp,0x4
    3766:	0000                	unimp
    3768:	0268                	addi	a0,sp,268
    376a:	0000                	unimp
    376c:	0222                	slli	tp,tp,0x8
    376e:	0000                	unimp
    3770:	00ce                	slli	ra,ra,0x13
    3772:	0000                	unimp
    3774:	0002                	c.slli64	zero
    3776:	0000                	unimp
    3778:	0000030f          	0x30f
    377c:	037a                	slli	t1,t1,0x1e
    377e:	0000                	unimp
    3780:	0000032f          	0x32f
    3784:	0000033f 00000299 	0x2990000033f
    378c:	019a                	slli	gp,gp,0x6
    378e:	0000                	unimp
    3790:	005e                	c.slli	zero,0x17
    3792:	0000                	unimp
    3794:	00f6                	slli	ra,ra,0x1d
    3796:	0000                	unimp
    3798:	01a6                	slli	gp,gp,0x9
    379a:	0000                	unimp
    379c:	000000d3          	fadd.s	ft1,ft0,ft0,rne
    37a0:	000002a3          	sb	zero,5(zero) # 5 <_start+0x5>
    37a4:	0009                	c.nop	2
    37a6:	0000                	unimp
    37a8:	0176                	slli	sp,sp,0x1d
    37aa:	0000                	unimp
    37ac:	01aa                	slli	gp,gp,0xa
    37ae:	0000                	unimp
    37b0:	0040                	addi	s0,sp,4
    37b2:	0000                	unimp
    37b4:	0035                	c.nop	13
    37b6:	0000                	unimp
    37b8:	02f6                	slli	t0,t0,0x1d
    37ba:	0000                	unimp
    37bc:	0000032b          	0x32b
    37c0:	01f4                	addi	a3,sp,204
    37c2:	0000                	unimp
    37c4:	01b5                	addi	gp,gp,13
    37c6:	0000                	unimp
    37c8:	0000014f          	fnmadd.s	ft2,ft0,ft0,ft0,rne
    37cc:	0148                	addi	a0,sp,132
    37ce:	0000                	unimp
    37d0:	00ed                	addi	ra,ra,27
    37d2:	0000                	unimp
    37d4:	019f 0000 01d4      	0x1d40000019f
    37da:	0000                	unimp
    37dc:	02ac                	addi	a1,sp,328
    37de:	0000                	unimp
    37e0:	0235                	addi	tp,tp,13
    37e2:	0000                	unimp
    37e4:	0131                	addi	sp,sp,12
    37e6:	0000                	unimp
    37e8:	01c1                	addi	gp,gp,16
    37ea:	0000                	unimp
    37ec:	0255                	addi	tp,tp,21
    37ee:	0000                	unimp
    37f0:	0088                	addi	a0,sp,64
    37f2:	0000                	unimp
    37f4:	0372                	slli	t1,t1,0x1c
    37f6:	0000                	unimp
    37f8:	017f                	0x17f
    37fa:	0000                	unimp
    37fc:	03aa                	slli	t2,t2,0xa
    37fe:	0000                	unimp
    3800:	010c                	addi	a1,sp,128
    3802:	0000                	unimp
    3804:	00000073          	ecall
    3808:	038c                	addi	a1,sp,448
    380a:	0000                	unimp
    380c:	0032                	c.slli	zero,0xc
    380e:	0000                	unimp
    3810:	03b8                	addi	a4,sp,456
    3812:	0000                	unimp
    3814:	016e                	slli	sp,sp,0x1b
    3816:	0000                	unimp
    3818:	018d                	addi	gp,gp,3
    381a:	0000                	unimp
    381c:	0101                	addi	sp,sp,0
    381e:	0000                	unimp
    3820:	000000e7          	jalr	zero # 0 <_start>
    3824:	0000029b          	sext.w	t0,zero
    3828:	00000023          	sb	zero,0(zero) # 0 <_start>
    382c:	03de                	slli	t2,t2,0x17
    382e:	0000                	unimp
    3830:	000001bb          	addw	gp,zero,zero
    3834:	00d5                	addi	ra,ra,21
    3836:	0000                	unimp
    3838:	0185                	addi	gp,gp,1
    383a:	0000                	unimp
    383c:	000d                	c.nop	3
    383e:	0000                	unimp
    3840:	026d                	addi	tp,tp,27
    3842:	0000                	unimp
    3844:	0034                	addi	a3,sp,8
    3846:	0000                	unimp
    3848:	0264                	addi	s1,sp,268
    384a:	0000                	unimp
    384c:	03a6                	slli	t2,t2,0x9
    384e:	0000                	unimp
    3850:	03b9                	addi	t2,t2,14
    3852:	0000                	unimp
    3854:	033c                	addi	a5,sp,392
    3856:	0000                	unimp
    3858:	01ce                	slli	gp,gp,0x13
    385a:	0000                	unimp
    385c:	026d                	addi	tp,tp,27
    385e:	0000                	unimp
    3860:	032c                	addi	a1,sp,392
    3862:	0000                	unimp
    3864:	020a                	slli	tp,tp,0x2
    3866:	0000                	unimp
    3868:	02a0                	addi	s0,sp,328
    386a:	0000                	unimp
    386c:	0039                	c.nop	14
    386e:	0000                	unimp
    3870:	0139                	addi	sp,sp,14
    3872:	0000                	unimp
    3874:	0160                	addi	s0,sp,140
    3876:	0000                	unimp
    3878:	00000037          	lui	zero,0x0
    387c:	03cc                	addi	a1,sp,452
    387e:	0000                	unimp
    3880:	02f1                	addi	t0,t0,28
    3882:	0000                	unimp
    3884:	01a0                	addi	s0,sp,200
    3886:	0000                	unimp
    3888:	0000036f          	jal	t1,3888 <input1_data+0xe60>
    388c:	0360                	addi	s0,sp,396
    388e:	0000                	unimp
    3890:	023c                	addi	a5,sp,264
    3892:	0000                	unimp
    3894:	000000a3          	sb	zero,1(zero) # 1 <_start+0x1>
    3898:	02d1                	addi	t0,t0,20
    389a:	0000                	unimp
    389c:	000c                	0xc
    389e:	0000                	unimp
    38a0:	00000283          	lb	t0,0(zero) # 0 <_start>
    38a4:	000001fb          	0x1fb
    38a8:	03c8                	addi	a0,sp,452
    38aa:	0000                	unimp
    38ac:	030d                	addi	t1,t1,3
    38ae:	0000                	unimp
    38b0:	0348                	addi	a0,sp,388
    38b2:	0000                	unimp
    38b4:	00f2                	slli	ra,ra,0x1c
    38b6:	0000                	unimp
    38b8:	0276                	slli	tp,tp,0x1d
    38ba:	0000                	unimp
    38bc:	032a                	slli	t1,t1,0xa
    38be:	0000                	unimp
    38c0:	0000031b          	sext.w	t1,zero
    38c4:	000001b3          	add	gp,zero,zero
    38c8:	0375                	addi	t1,t1,29
    38ca:	0000                	unimp
    38cc:	00000257          	0x257
    38d0:	02b8                	addi	a4,sp,328
    38d2:	0000                	unimp
    38d4:	00000283          	lb	t0,0(zero) # 0 <_start>
    38d8:	005d                	c.nop	23
    38da:	0000                	unimp
    38dc:	02c6                	slli	t0,t0,0x11
    38de:	0000                	unimp
    38e0:	0311                	addi	t1,t1,4
    38e2:	0000                	unimp
    38e4:	0070                	addi	a2,sp,12
    38e6:	0000                	unimp
    38e8:	0245                	addi	tp,tp,17
    38ea:	0000                	unimp
    38ec:	000c                	0xc
    38ee:	0000                	unimp
    38f0:	0000039b          	sext.w	t2,zero
    38f4:	00000267          	jalr	tp,zero # 0 <_start>
    38f8:	028c                	addi	a1,sp,320
    38fa:	0000                	unimp
    38fc:	00000167          	jalr	sp,zero # 0 <_start>
    3900:	0105                	addi	sp,sp,1
    3902:	0000                	unimp
    3904:	00e9                	addi	ra,ra,26
    3906:	0000                	unimp
    3908:	0261                	addi	tp,tp,24
    390a:	0000                	unimp
    390c:	02ae                	slli	t0,t0,0xb
    390e:	0000                	unimp
    3910:	0000021b          	sext.w	tp,zero
    3914:	0076                	c.slli	zero,0x1d
    3916:	0000                	unimp
    3918:	0230                	addi	a2,sp,264
    391a:	0000                	unimp
    391c:	000002e3          	beqz	zero,4120 <input1_data+0x16f8>
    3920:	0014                	0x14
    3922:	0000                	unimp
    3924:	013d                	addi	sp,sp,15
    3926:	0000                	unimp
    3928:	03d0                	addi	a2,sp,452
    392a:	0000                	unimp
    392c:	023d                	addi	tp,tp,15
    392e:	0000                	unimp
    3930:	0182                	c.slli64	gp
    3932:	0000                	unimp
    3934:	0304                	addi	s1,sp,384
    3936:	0000                	unimp
    3938:	00000297          	auipc	t0,0x0
    393c:	01f8                	addi	a4,sp,204
    393e:	0000                	unimp
    3940:	00d4                	addi	a3,sp,68
    3942:	0000                	unimp
    3944:	0378                	addi	a4,sp,396
    3946:	0000                	unimp
    3948:	0000038b          	0x38b
    394c:	01a4                	addi	s1,sp,200
    394e:	0000                	unimp
    3950:	02e1                	addi	t0,t0,24
    3952:	0000                	unimp
    3954:	0204                	addi	s1,sp,256
    3956:	0000                	unimp
    3958:	0019                	c.nop	6
    395a:	0000                	unimp
    395c:	000000db          	0xdb
    3960:	031d                	addi	t1,t1,7
    3962:	0000                	unimp
    3964:	02cc                	addi	a1,sp,324
    3966:	0000                	unimp
    3968:	01c4                	addi	s1,sp,196
    396a:	0000                	unimp
    396c:	02b4                	addi	a3,sp,328
    396e:	0000                	unimp
    3970:	000002ab          	0x2ab
    3974:	000001cb          	fnmsub.s	ft3,ft0,ft0,ft0,rne
    3978:	0000032f          	0x32f
    397c:	00000143          	fmadd.s	ft2,ft0,ft0,ft0,rne
    3980:	0264                	addi	s1,sp,268
    3982:	0000                	unimp
    3984:	000000f7          	0xf7
    3988:	0074                	addi	a3,sp,12
    398a:	0000                	unimp
    398c:	0160                	addi	s0,sp,140
    398e:	0000                	unimp
    3990:	0119                	addi	sp,sp,6
    3992:	0000                	unimp
    3994:	02e2                	slli	t0,t0,0x18
    3996:	0000                	unimp
    3998:	0122                	slli	sp,sp,0x8
    399a:	0000                	unimp
    399c:	038d                	addi	t2,t2,3
    399e:	0000                	unimp
    39a0:	0285                	addi	t0,t0,1
    39a2:	0000                	unimp
    39a4:	0271                	addi	tp,tp,28
    39a6:	0000                	unimp
    39a8:	03a4                	addi	s1,sp,456
    39aa:	0000                	unimp
    39ac:	00dc                	addi	a5,sp,68
    39ae:	0000                	unimp
    39b0:	02ad                	addi	t0,t0,11
    39b2:	0000                	unimp
    39b4:	0175                	addi	sp,sp,29
    39b6:	0000                	unimp
    39b8:	036c                	addi	a1,sp,396
    39ba:	0000                	unimp
    39bc:	0286                	slli	t0,t0,0x1
    39be:	0000                	unimp
    39c0:	019c                	addi	a5,sp,192
    39c2:	0000                	unimp
    39c4:	000003bb          	addw	t2,zero,zero
    39c8:	0000                	unimp
    39ca:	0000                	unimp
    39cc:	0000                	unimp
    39ce:	0000                	unimp
    39d0:	0000                	unimp
    39d2:	0000                	unimp
    39d4:	0000                	unimp
    39d6:	0000                	unimp
    39d8:	0000                	unimp
    39da:	0000                	unimp
    39dc:	0000                	unimp
    39de:	0000                	unimp
    39e0:	0000                	unimp
    39e2:	0000                	unimp
    39e4:	0000                	unimp
    39e6:	0000                	unimp
    39e8:	0000                	unimp
    39ea:	0000                	unimp
    39ec:	0000                	unimp
    39ee:	0000                	unimp
    39f0:	0000                	unimp
    39f2:	0000                	unimp
    39f4:	0000                	unimp
    39f6:	0000                	unimp
    39f8:	0000                	unimp
    39fa:	0000                	unimp
    39fc:	0000                	unimp
    39fe:	0000                	unimp
    3a00:	0000                	unimp
    3a02:	0000                	unimp
    3a04:	0000                	unimp
    3a06:	0000                	unimp
    3a08:	0000                	unimp
    3a0a:	0000                	unimp
    3a0c:	0000                	unimp
    3a0e:	0000                	unimp
    3a10:	0000                	unimp
    3a12:	0000                	unimp
    3a14:	0000                	unimp
    3a16:	0000                	unimp
    3a18:	0000                	unimp
    3a1a:	0000                	unimp
    3a1c:	0000                	unimp
    3a1e:	0000                	unimp
    3a20:	0000                	unimp
    3a22:	0000                	unimp
    3a24:	0000                	unimp
    3a26:	0000                	unimp
    3a28:	0000                	unimp
    3a2a:	0000                	unimp
    3a2c:	0000                	unimp
    3a2e:	0000                	unimp
    3a30:	0000                	unimp
    3a32:	0000                	unimp
    3a34:	0000                	unimp
    3a36:	0000                	unimp
    3a38:	0000                	unimp
    3a3a:	0000                	unimp
    3a3c:	0000                	unimp
    3a3e:	0000                	unimp
    3a40:	0000                	unimp
    3a42:	0000                	unimp
    3a44:	0000                	unimp
    3a46:	0000                	unimp
    3a48:	0000                	unimp
    3a4a:	0000                	unimp
    3a4c:	0000                	unimp
    3a4e:	0000                	unimp
    3a50:	0000                	unimp
    3a52:	0000                	unimp
    3a54:	0000                	unimp
    3a56:	0000                	unimp
    3a58:	0000                	unimp
    3a5a:	0000                	unimp
    3a5c:	0000                	unimp
    3a5e:	0000                	unimp
    3a60:	0000                	unimp
    3a62:	0000                	unimp
    3a64:	0000                	unimp
    3a66:	0000                	unimp
    3a68:	0000                	unimp
    3a6a:	0000                	unimp
    3a6c:	0000                	unimp
    3a6e:	0000                	unimp
    3a70:	0000                	unimp
    3a72:	0000                	unimp
    3a74:	0000                	unimp
    3a76:	0000                	unimp
    3a78:	0000                	unimp
    3a7a:	0000                	unimp
    3a7c:	0000                	unimp
    3a7e:	0000                	unimp
    3a80:	0000                	unimp
    3a82:	0000                	unimp
    3a84:	0000                	unimp
    3a86:	0000                	unimp
    3a88:	0000                	unimp
    3a8a:	0000                	unimp
    3a8c:	0000                	unimp
    3a8e:	0000                	unimp
    3a90:	0000                	unimp
    3a92:	0000                	unimp
    3a94:	0000                	unimp
    3a96:	0000                	unimp
    3a98:	0000                	unimp
    3a9a:	0000                	unimp
    3a9c:	0000                	unimp
    3a9e:	0000                	unimp
    3aa0:	0000                	unimp
    3aa2:	0000                	unimp
    3aa4:	0000                	unimp
    3aa6:	0000                	unimp
    3aa8:	0000                	unimp
    3aaa:	0000                	unimp
    3aac:	0000                	unimp
    3aae:	0000                	unimp
    3ab0:	0000                	unimp
    3ab2:	0000                	unimp
    3ab4:	0000                	unimp
    3ab6:	0000                	unimp
    3ab8:	0000                	unimp
    3aba:	0000                	unimp
    3abc:	0000                	unimp
    3abe:	0000                	unimp
    3ac0:	0000                	unimp
    3ac2:	0000                	unimp
    3ac4:	0000                	unimp
    3ac6:	0000                	unimp
    3ac8:	0000                	unimp
    3aca:	0000                	unimp
    3acc:	0000                	unimp
    3ace:	0000                	unimp
    3ad0:	0000                	unimp
    3ad2:	0000                	unimp
    3ad4:	0000                	unimp
    3ad6:	0000                	unimp
    3ad8:	0000                	unimp
    3ada:	0000                	unimp
    3adc:	0000                	unimp
    3ade:	0000                	unimp
    3ae0:	0000                	unimp
    3ae2:	0000                	unimp
    3ae4:	0000                	unimp
    3ae6:	0000                	unimp
    3ae8:	0000                	unimp
    3aea:	0000                	unimp
    3aec:	0000                	unimp
    3aee:	0000                	unimp
    3af0:	0000                	unimp
    3af2:	0000                	unimp
    3af4:	0000                	unimp
    3af6:	0000                	unimp
    3af8:	0000                	unimp
    3afa:	0000                	unimp
    3afc:	0000                	unimp
    3afe:	0000                	unimp
    3b00:	0000                	unimp
    3b02:	0000                	unimp
    3b04:	0000                	unimp
    3b06:	0000                	unimp
    3b08:	0000                	unimp
    3b0a:	0000                	unimp
    3b0c:	0000                	unimp
    3b0e:	0000                	unimp
    3b10:	0000                	unimp
    3b12:	0000                	unimp
    3b14:	0000                	unimp
    3b16:	0000                	unimp
    3b18:	0000                	unimp
    3b1a:	0000                	unimp
    3b1c:	0000                	unimp
    3b1e:	0000                	unimp
    3b20:	0000                	unimp
    3b22:	0000                	unimp
    3b24:	0000                	unimp
    3b26:	0000                	unimp
    3b28:	0000                	unimp
    3b2a:	0000                	unimp
    3b2c:	0000                	unimp
    3b2e:	0000                	unimp
    3b30:	0000                	unimp
    3b32:	0000                	unimp
    3b34:	0000                	unimp
    3b36:	0000                	unimp
    3b38:	0000                	unimp
    3b3a:	0000                	unimp
    3b3c:	0000                	unimp
    3b3e:	0000                	unimp
    3b40:	0000                	unimp
    3b42:	0000                	unimp
    3b44:	0000                	unimp
    3b46:	0000                	unimp
    3b48:	0000                	unimp
    3b4a:	0000                	unimp
    3b4c:	0000                	unimp
    3b4e:	0000                	unimp
    3b50:	0000                	unimp
    3b52:	0000                	unimp
    3b54:	0000                	unimp
    3b56:	0000                	unimp
    3b58:	0000                	unimp
    3b5a:	0000                	unimp
    3b5c:	0000                	unimp
    3b5e:	0000                	unimp
    3b60:	0000                	unimp
    3b62:	0000                	unimp
    3b64:	0000                	unimp
    3b66:	0000                	unimp
    3b68:	0000                	unimp
    3b6a:	0000                	unimp
    3b6c:	0000                	unimp
    3b6e:	0000                	unimp
    3b70:	0000                	unimp
    3b72:	0000                	unimp
    3b74:	0000                	unimp
    3b76:	0000                	unimp
    3b78:	0000                	unimp
    3b7a:	0000                	unimp
    3b7c:	0000                	unimp
    3b7e:	0000                	unimp
    3b80:	0000                	unimp
    3b82:	0000                	unimp
    3b84:	0000                	unimp
    3b86:	0000                	unimp
    3b88:	0000                	unimp
    3b8a:	0000                	unimp
    3b8c:	0000                	unimp
    3b8e:	0000                	unimp
    3b90:	0000                	unimp
    3b92:	0000                	unimp
    3b94:	0000                	unimp
    3b96:	0000                	unimp
    3b98:	0000                	unimp
    3b9a:	0000                	unimp
    3b9c:	0000                	unimp
    3b9e:	0000                	unimp
    3ba0:	0000                	unimp
    3ba2:	0000                	unimp
    3ba4:	0000                	unimp
    3ba6:	0000                	unimp
    3ba8:	0000                	unimp
    3baa:	0000                	unimp
    3bac:	0000                	unimp
    3bae:	0000                	unimp
    3bb0:	0000                	unimp
    3bb2:	0000                	unimp
    3bb4:	0000                	unimp
    3bb6:	0000                	unimp
    3bb8:	0000                	unimp
    3bba:	0000                	unimp
    3bbc:	0000                	unimp
    3bbe:	0000                	unimp
    3bc0:	0000                	unimp
    3bc2:	0000                	unimp
    3bc4:	0000                	unimp
    3bc6:	0000                	unimp
    3bc8:	0000                	unimp
    3bca:	0000                	unimp
    3bcc:	0000                	unimp
    3bce:	0000                	unimp
    3bd0:	0000                	unimp
    3bd2:	0000                	unimp
    3bd4:	0000                	unimp
    3bd6:	0000                	unimp
    3bd8:	0000                	unimp
    3bda:	0000                	unimp
    3bdc:	0000                	unimp
    3bde:	0000                	unimp
    3be0:	0000                	unimp
    3be2:	0000                	unimp
    3be4:	0000                	unimp
    3be6:	0000                	unimp
    3be8:	0000                	unimp
    3bea:	0000                	unimp
    3bec:	0000                	unimp
    3bee:	0000                	unimp
    3bf0:	0000                	unimp
    3bf2:	0000                	unimp
    3bf4:	0000                	unimp
    3bf6:	0000                	unimp
    3bf8:	0000                	unimp
    3bfa:	0000                	unimp
    3bfc:	0000                	unimp
    3bfe:	0000                	unimp
    3c00:	0000                	unimp
    3c02:	0000                	unimp
    3c04:	0000                	unimp
    3c06:	0000                	unimp
    3c08:	0000                	unimp
    3c0a:	0000                	unimp
    3c0c:	0000                	unimp
    3c0e:	0000                	unimp
    3c10:	0000                	unimp
    3c12:	0000                	unimp
    3c14:	0000                	unimp
    3c16:	0000                	unimp
    3c18:	0000                	unimp
    3c1a:	0000                	unimp
    3c1c:	0000                	unimp
    3c1e:	0000                	unimp
    3c20:	0000                	unimp
    3c22:	0000                	unimp
    3c24:	0000                	unimp
    3c26:	0000                	unimp
    3c28:	0000                	unimp
    3c2a:	0000                	unimp
    3c2c:	0000                	unimp
    3c2e:	0000                	unimp
    3c30:	0000                	unimp
    3c32:	0000                	unimp
    3c34:	0000                	unimp
    3c36:	0000                	unimp
    3c38:	0000                	unimp
    3c3a:	0000                	unimp
    3c3c:	0000                	unimp
    3c3e:	0000                	unimp
    3c40:	0000                	unimp
    3c42:	0000                	unimp
    3c44:	0000                	unimp
    3c46:	0000                	unimp
    3c48:	0000                	unimp
    3c4a:	0000                	unimp
    3c4c:	0000                	unimp
    3c4e:	0000                	unimp
    3c50:	0000                	unimp
    3c52:	0000                	unimp
    3c54:	0000                	unimp
    3c56:	0000                	unimp
    3c58:	0000                	unimp
    3c5a:	0000                	unimp
    3c5c:	0000                	unimp
    3c5e:	0000                	unimp
    3c60:	0000                	unimp
    3c62:	0000                	unimp
    3c64:	0000                	unimp
    3c66:	0000                	unimp
    3c68:	0000                	unimp
    3c6a:	0000                	unimp
    3c6c:	0000                	unimp
    3c6e:	0000                	unimp
    3c70:	0000                	unimp
    3c72:	0000                	unimp
    3c74:	0000                	unimp
    3c76:	0000                	unimp
    3c78:	0000                	unimp
    3c7a:	0000                	unimp
    3c7c:	0000                	unimp
    3c7e:	0000                	unimp
    3c80:	0000                	unimp
    3c82:	0000                	unimp
    3c84:	0000                	unimp
    3c86:	0000                	unimp
    3c88:	0000                	unimp
    3c8a:	0000                	unimp
    3c8c:	0000                	unimp
    3c8e:	0000                	unimp
    3c90:	0000                	unimp
    3c92:	0000                	unimp
    3c94:	0000                	unimp
    3c96:	0000                	unimp
    3c98:	0000                	unimp
    3c9a:	0000                	unimp
    3c9c:	0000                	unimp
    3c9e:	0000                	unimp
    3ca0:	0000                	unimp
    3ca2:	0000                	unimp
    3ca4:	0000                	unimp
    3ca6:	0000                	unimp
    3ca8:	0000                	unimp
    3caa:	0000                	unimp
    3cac:	0000                	unimp
    3cae:	0000                	unimp
    3cb0:	0000                	unimp
    3cb2:	0000                	unimp
    3cb4:	0000                	unimp
    3cb6:	0000                	unimp
    3cb8:	0000                	unimp
    3cba:	0000                	unimp
    3cbc:	0000                	unimp
    3cbe:	0000                	unimp
    3cc0:	0000                	unimp
    3cc2:	0000                	unimp
    3cc4:	0000                	unimp
    3cc6:	0000                	unimp
    3cc8:	0000                	unimp
    3cca:	0000                	unimp
    3ccc:	0000                	unimp
    3cce:	0000                	unimp
    3cd0:	0000                	unimp
    3cd2:	0000                	unimp
    3cd4:	0000                	unimp
    3cd6:	0000                	unimp
    3cd8:	0000                	unimp
    3cda:	0000                	unimp
    3cdc:	0000                	unimp
    3cde:	0000                	unimp
    3ce0:	0000                	unimp
    3ce2:	0000                	unimp
    3ce4:	0000                	unimp
    3ce6:	0000                	unimp
    3ce8:	0000                	unimp
    3cea:	0000                	unimp
    3cec:	0000                	unimp
    3cee:	0000                	unimp
    3cf0:	0000                	unimp
    3cf2:	0000                	unimp
    3cf4:	0000                	unimp
    3cf6:	0000                	unimp
    3cf8:	0000                	unimp
    3cfa:	0000                	unimp
    3cfc:	0000                	unimp
    3cfe:	0000                	unimp
    3d00:	0000                	unimp
    3d02:	0000                	unimp
    3d04:	0000                	unimp
    3d06:	0000                	unimp
    3d08:	0000                	unimp
    3d0a:	0000                	unimp
    3d0c:	0000                	unimp
    3d0e:	0000                	unimp
    3d10:	0000                	unimp
    3d12:	0000                	unimp
    3d14:	0000                	unimp
    3d16:	0000                	unimp
    3d18:	0000                	unimp
    3d1a:	0000                	unimp
    3d1c:	0000                	unimp
    3d1e:	0000                	unimp
    3d20:	0000                	unimp
    3d22:	0000                	unimp
    3d24:	0000                	unimp
    3d26:	0000                	unimp
    3d28:	0000                	unimp
    3d2a:	0000                	unimp
    3d2c:	0000                	unimp
    3d2e:	0000                	unimp
    3d30:	0000                	unimp
    3d32:	0000                	unimp
    3d34:	0000                	unimp
    3d36:	0000                	unimp
    3d38:	0000                	unimp
    3d3a:	0000                	unimp
    3d3c:	0000                	unimp
    3d3e:	0000                	unimp
    3d40:	0000                	unimp
    3d42:	0000                	unimp
    3d44:	0000                	unimp
    3d46:	0000                	unimp
    3d48:	0000                	unimp
    3d4a:	0000                	unimp
    3d4c:	0000                	unimp
    3d4e:	0000                	unimp
    3d50:	0000                	unimp
    3d52:	0000                	unimp
    3d54:	0000                	unimp
    3d56:	0000                	unimp
    3d58:	0000                	unimp
    3d5a:	0000                	unimp
    3d5c:	0000                	unimp
    3d5e:	0000                	unimp
    3d60:	0000                	unimp
    3d62:	0000                	unimp
    3d64:	0000                	unimp
    3d66:	0000                	unimp
    3d68:	0000                	unimp
    3d6a:	0000                	unimp
    3d6c:	0000                	unimp
    3d6e:	0000                	unimp
    3d70:	0000                	unimp
    3d72:	0000                	unimp
    3d74:	0000                	unimp
    3d76:	0000                	unimp
    3d78:	0000                	unimp
    3d7a:	0000                	unimp
    3d7c:	0000                	unimp
    3d7e:	0000                	unimp
    3d80:	0000                	unimp
    3d82:	0000                	unimp
    3d84:	0000                	unimp
    3d86:	0000                	unimp
    3d88:	0000                	unimp
    3d8a:	0000                	unimp
    3d8c:	0000                	unimp
    3d8e:	0000                	unimp
    3d90:	0000                	unimp
    3d92:	0000                	unimp
    3d94:	0000                	unimp
    3d96:	0000                	unimp
    3d98:	0000                	unimp
    3d9a:	0000                	unimp
    3d9c:	0000                	unimp
    3d9e:	0000                	unimp
    3da0:	0000                	unimp
    3da2:	0000                	unimp
    3da4:	0000                	unimp
    3da6:	0000                	unimp
    3da8:	0000                	unimp
    3daa:	0000                	unimp
    3dac:	0000                	unimp
    3dae:	0000                	unimp
    3db0:	0000                	unimp
    3db2:	0000                	unimp
    3db4:	0000                	unimp
    3db6:	0000                	unimp
    3db8:	0000                	unimp
    3dba:	0000                	unimp
    3dbc:	0000                	unimp
    3dbe:	0000                	unimp
    3dc0:	0000                	unimp
    3dc2:	0000                	unimp
    3dc4:	0000                	unimp
    3dc6:	0000                	unimp
    3dc8:	0000                	unimp
    3dca:	0000                	unimp
    3dcc:	0000                	unimp
    3dce:	0000                	unimp
    3dd0:	0000                	unimp
    3dd2:	0000                	unimp
    3dd4:	0000                	unimp
    3dd6:	0000                	unimp
    3dd8:	0000                	unimp
    3dda:	0000                	unimp
    3ddc:	0000                	unimp
    3dde:	0000                	unimp
    3de0:	0000                	unimp
    3de2:	0000                	unimp
    3de4:	0000                	unimp
    3de6:	0000                	unimp
    3de8:	0000                	unimp
    3dea:	0000                	unimp
    3dec:	0000                	unimp
    3dee:	0000                	unimp
    3df0:	0000                	unimp
    3df2:	0000                	unimp
    3df4:	0000                	unimp
    3df6:	0000                	unimp
    3df8:	0000                	unimp
    3dfa:	0000                	unimp
    3dfc:	0000                	unimp
    3dfe:	0000                	unimp
    3e00:	0000                	unimp
    3e02:	0000                	unimp
    3e04:	0000                	unimp
    3e06:	0000                	unimp
    3e08:	0000                	unimp
    3e0a:	0000                	unimp
    3e0c:	0000                	unimp
    3e0e:	0000                	unimp
    3e10:	0000                	unimp
    3e12:	0000                	unimp
    3e14:	0000                	unimp
    3e16:	0000                	unimp
    3e18:	0000                	unimp
    3e1a:	0000                	unimp
    3e1c:	0000                	unimp
    3e1e:	0000                	unimp
    3e20:	0000                	unimp
    3e22:	0000                	unimp
    3e24:	0000                	unimp
    3e26:	0000                	unimp
    3e28:	0000                	unimp
    3e2a:	0000                	unimp
    3e2c:	0000                	unimp
    3e2e:	0000                	unimp
    3e30:	0000                	unimp
    3e32:	0000                	unimp
    3e34:	0000                	unimp
    3e36:	0000                	unimp
    3e38:	0000                	unimp
    3e3a:	0000                	unimp
    3e3c:	0000                	unimp
    3e3e:	0000                	unimp
    3e40:	0000                	unimp
    3e42:	0000                	unimp
    3e44:	0000                	unimp
    3e46:	0000                	unimp
    3e48:	0000                	unimp
    3e4a:	0000                	unimp
    3e4c:	0000                	unimp
    3e4e:	0000                	unimp
    3e50:	0000                	unimp
    3e52:	0000                	unimp
    3e54:	0000                	unimp
    3e56:	0000                	unimp
    3e58:	0000                	unimp
    3e5a:	0000                	unimp
    3e5c:	0000                	unimp
    3e5e:	0000                	unimp
    3e60:	0000                	unimp
    3e62:	0000                	unimp
    3e64:	0000                	unimp
    3e66:	0000                	unimp
    3e68:	0000                	unimp
    3e6a:	0000                	unimp
    3e6c:	0000                	unimp
    3e6e:	0000                	unimp
    3e70:	0000                	unimp
    3e72:	0000                	unimp
    3e74:	0000                	unimp
    3e76:	0000                	unimp
    3e78:	0000                	unimp
    3e7a:	0000                	unimp
    3e7c:	0000                	unimp
    3e7e:	0000                	unimp
    3e80:	0000                	unimp
    3e82:	0000                	unimp
    3e84:	0000                	unimp
    3e86:	0000                	unimp
    3e88:	0000                	unimp
    3e8a:	0000                	unimp
    3e8c:	0000                	unimp
    3e8e:	0000                	unimp
    3e90:	0000                	unimp
    3e92:	0000                	unimp
    3e94:	0000                	unimp
    3e96:	0000                	unimp
    3e98:	0000                	unimp
    3e9a:	0000                	unimp
    3e9c:	0000                	unimp
    3e9e:	0000                	unimp
    3ea0:	0000                	unimp
    3ea2:	0000                	unimp
    3ea4:	0000                	unimp
    3ea6:	0000                	unimp
    3ea8:	0000                	unimp
    3eaa:	0000                	unimp
    3eac:	0000                	unimp
    3eae:	0000                	unimp
    3eb0:	0000                	unimp
    3eb2:	0000                	unimp
    3eb4:	0000                	unimp
    3eb6:	0000                	unimp
    3eb8:	0000                	unimp
    3eba:	0000                	unimp
    3ebc:	0000                	unimp
    3ebe:	0000                	unimp
    3ec0:	0000                	unimp
    3ec2:	0000                	unimp
    3ec4:	0000                	unimp
    3ec6:	0000                	unimp
    3ec8:	0000                	unimp
    3eca:	0000                	unimp
    3ecc:	0000                	unimp
    3ece:	0000                	unimp
    3ed0:	0000                	unimp
    3ed2:	0000                	unimp
    3ed4:	0000                	unimp
    3ed6:	0000                	unimp
    3ed8:	0000                	unimp
    3eda:	0000                	unimp
    3edc:	0000                	unimp
    3ede:	0000                	unimp
    3ee0:	0000                	unimp
    3ee2:	0000                	unimp
    3ee4:	0000                	unimp
    3ee6:	0000                	unimp
    3ee8:	0000                	unimp
    3eea:	0000                	unimp
    3eec:	0000                	unimp
    3eee:	0000                	unimp
    3ef0:	0000                	unimp
    3ef2:	0000                	unimp
    3ef4:	0000                	unimp
    3ef6:	0000                	unimp
    3ef8:	0000                	unimp
    3efa:	0000                	unimp
    3efc:	0000                	unimp
    3efe:	0000                	unimp
    3f00:	0000                	unimp
    3f02:	0000                	unimp
    3f04:	0000                	unimp
    3f06:	0000                	unimp
    3f08:	0000                	unimp
    3f0a:	0000                	unimp
    3f0c:	0000                	unimp
    3f0e:	0000                	unimp
    3f10:	0000                	unimp
    3f12:	0000                	unimp
    3f14:	0000                	unimp
    3f16:	0000                	unimp
    3f18:	0000                	unimp
    3f1a:	0000                	unimp
    3f1c:	0000                	unimp
    3f1e:	0000                	unimp
    3f20:	0000                	unimp
    3f22:	0000                	unimp
    3f24:	0000                	unimp
    3f26:	0000                	unimp
    3f28:	0000                	unimp
    3f2a:	0000                	unimp
    3f2c:	0000                	unimp
    3f2e:	0000                	unimp
    3f30:	0000                	unimp
    3f32:	0000                	unimp
    3f34:	0000                	unimp
    3f36:	0000                	unimp
    3f38:	0000                	unimp
    3f3a:	0000                	unimp
    3f3c:	0000                	unimp
    3f3e:	0000                	unimp
    3f40:	0000                	unimp
    3f42:	0000                	unimp
    3f44:	0000                	unimp
    3f46:	0000                	unimp
    3f48:	0000                	unimp
    3f4a:	0000                	unimp
    3f4c:	0000                	unimp
    3f4e:	0000                	unimp
    3f50:	0000                	unimp
    3f52:	0000                	unimp
    3f54:	0000                	unimp
    3f56:	0000                	unimp
    3f58:	0000                	unimp
    3f5a:	0000                	unimp
    3f5c:	0000                	unimp
    3f5e:	0000                	unimp
    3f60:	0000                	unimp
    3f62:	0000                	unimp
    3f64:	0000                	unimp
    3f66:	0000                	unimp
    3f68:	0000                	unimp
    3f6a:	0000                	unimp
    3f6c:	0000                	unimp
    3f6e:	0000                	unimp
    3f70:	0000                	unimp
    3f72:	0000                	unimp
    3f74:	0000                	unimp
    3f76:	0000                	unimp
    3f78:	0000                	unimp
    3f7a:	0000                	unimp
    3f7c:	0000                	unimp
    3f7e:	0000                	unimp
    3f80:	0000                	unimp
    3f82:	0000                	unimp
    3f84:	0000                	unimp
    3f86:	0000                	unimp
    3f88:	0000                	unimp
    3f8a:	0000                	unimp
    3f8c:	0000                	unimp
    3f8e:	0000                	unimp
    3f90:	0000                	unimp
    3f92:	0000                	unimp
    3f94:	0000                	unimp
    3f96:	0000                	unimp
    3f98:	0000                	unimp
    3f9a:	0000                	unimp
    3f9c:	0000                	unimp
    3f9e:	0000                	unimp
    3fa0:	0000                	unimp
    3fa2:	0000                	unimp
    3fa4:	0000                	unimp
    3fa6:	0000                	unimp
    3fa8:	0000                	unimp
    3faa:	0000                	unimp
    3fac:	0000                	unimp
    3fae:	0000                	unimp
    3fb0:	0000                	unimp
    3fb2:	0000                	unimp
    3fb4:	0000                	unimp
    3fb6:	0000                	unimp
    3fb8:	0000                	unimp
    3fba:	0000                	unimp
    3fbc:	0000                	unimp
    3fbe:	0000                	unimp
    3fc0:	0000                	unimp
    3fc2:	0000                	unimp
    3fc4:	0000                	unimp
    3fc6:	0000                	unimp
    3fc8:	0000                	unimp
    3fca:	0000                	unimp
    3fcc:	0000                	unimp
    3fce:	0000                	unimp
    3fd0:	0000                	unimp
    3fd2:	0000                	unimp
    3fd4:	0000                	unimp
    3fd6:	0000                	unimp
    3fd8:	0000                	unimp
    3fda:	0000                	unimp
    3fdc:	0000                	unimp
    3fde:	0000                	unimp
    3fe0:	0000                	unimp
    3fe2:	0000                	unimp
    3fe4:	0000                	unimp
    3fe6:	0000                	unimp
    3fe8:	0000                	unimp
    3fea:	0000                	unimp
    3fec:	0000                	unimp
    3fee:	0000                	unimp
    3ff0:	0000                	unimp
    3ff2:	0000                	unimp
    3ff4:	0000                	unimp
    3ff6:	0000                	unimp
    3ff8:	0000                	unimp
    3ffa:	0000                	unimp
    3ffc:	0000                	unimp
    3ffe:	0000                	unimp
    4000:	0000                	unimp
    4002:	0000                	unimp
    4004:	0000                	unimp
    4006:	0000                	unimp
    4008:	0000                	unimp
    400a:	0000                	unimp
    400c:	0000                	unimp
    400e:	0000                	unimp
    4010:	0000                	unimp
    4012:	0000                	unimp
    4014:	0000                	unimp
    4016:	0000                	unimp
    4018:	0000                	unimp
    401a:	0000                	unimp
    401c:	0000                	unimp
    401e:	0000                	unimp
    4020:	0000                	unimp
    4022:	0000                	unimp
    4024:	0000                	unimp
    4026:	0000                	unimp
    4028:	0000                	unimp
    402a:	0000                	unimp
    402c:	0000                	unimp
    402e:	0000                	unimp
    4030:	0000                	unimp
    4032:	0000                	unimp
    4034:	0000                	unimp
    4036:	0000                	unimp
    4038:	0000                	unimp
    403a:	0000                	unimp
    403c:	0000                	unimp
    403e:	0000                	unimp
    4040:	0000                	unimp
    4042:	0000                	unimp
    4044:	0000                	unimp
    4046:	0000                	unimp
    4048:	0000                	unimp
    404a:	0000                	unimp
    404c:	0000                	unimp
    404e:	0000                	unimp
    4050:	0000                	unimp
    4052:	0000                	unimp
    4054:	0000                	unimp
    4056:	0000                	unimp
    4058:	0000                	unimp
    405a:	0000                	unimp
    405c:	0000                	unimp
    405e:	0000                	unimp
    4060:	0000                	unimp
    4062:	0000                	unimp
    4064:	0000                	unimp
    4066:	0000                	unimp
    4068:	0000                	unimp
    406a:	0000                	unimp
    406c:	0000                	unimp
    406e:	0000                	unimp
    4070:	0000                	unimp
    4072:	0000                	unimp
    4074:	0000                	unimp
    4076:	0000                	unimp
    4078:	0000                	unimp
    407a:	0000                	unimp
    407c:	0000                	unimp
    407e:	0000                	unimp
    4080:	0000                	unimp
    4082:	0000                	unimp
    4084:	0000                	unimp
    4086:	0000                	unimp
    4088:	0000                	unimp
    408a:	0000                	unimp
    408c:	0000                	unimp
    408e:	0000                	unimp
    4090:	0000                	unimp
    4092:	0000                	unimp
    4094:	0000                	unimp
    4096:	0000                	unimp
    4098:	0000                	unimp
    409a:	0000                	unimp
    409c:	0000                	unimp
    409e:	0000                	unimp
    40a0:	0000                	unimp
    40a2:	0000                	unimp
    40a4:	0000                	unimp
    40a6:	0000                	unimp
    40a8:	0000                	unimp
    40aa:	0000                	unimp
    40ac:	0000                	unimp
    40ae:	0000                	unimp
    40b0:	0000                	unimp
    40b2:	0000                	unimp
    40b4:	0000                	unimp
    40b6:	0000                	unimp
    40b8:	0000                	unimp
    40ba:	0000                	unimp
    40bc:	0000                	unimp
    40be:	0000                	unimp
    40c0:	0000                	unimp
    40c2:	0000                	unimp
    40c4:	0000                	unimp
    40c6:	0000                	unimp
    40c8:	0000                	unimp
    40ca:	0000                	unimp
    40cc:	0000                	unimp
    40ce:	0000                	unimp
    40d0:	0000                	unimp
    40d2:	0000                	unimp
    40d4:	0000                	unimp
    40d6:	0000                	unimp
    40d8:	0000                	unimp
    40da:	0000                	unimp
    40dc:	0000                	unimp
    40de:	0000                	unimp
    40e0:	0000                	unimp
    40e2:	0000                	unimp
    40e4:	0000                	unimp
    40e6:	0000                	unimp
    40e8:	0000                	unimp
    40ea:	0000                	unimp
    40ec:	0000                	unimp
    40ee:	0000                	unimp
    40f0:	0000                	unimp
    40f2:	0000                	unimp
    40f4:	0000                	unimp
    40f6:	0000                	unimp
    40f8:	0000                	unimp
    40fa:	0000                	unimp
    40fc:	0000                	unimp
    40fe:	0000                	unimp
    4100:	0000                	unimp
    4102:	0000                	unimp
    4104:	0000                	unimp
    4106:	0000                	unimp
    4108:	0000                	unimp
    410a:	0000                	unimp
    410c:	0000                	unimp
    410e:	0000                	unimp
    4110:	0000                	unimp
    4112:	0000                	unimp
    4114:	0000                	unimp
    4116:	0000                	unimp
    4118:	0000                	unimp
    411a:	0000                	unimp
    411c:	0000                	unimp
    411e:	0000                	unimp
    4120:	0000                	unimp
    4122:	0000                	unimp
    4124:	0000                	unimp
    4126:	0000                	unimp
    4128:	0000                	unimp
    412a:	0000                	unimp
    412c:	0000                	unimp
    412e:	0000                	unimp
    4130:	0000                	unimp
    4132:	0000                	unimp
    4134:	0000                	unimp
    4136:	0000                	unimp
    4138:	0000                	unimp
    413a:	0000                	unimp
    413c:	0000                	unimp
    413e:	0000                	unimp
    4140:	0000                	unimp
    4142:	0000                	unimp
    4144:	0000                	unimp
    4146:	0000                	unimp
    4148:	0000                	unimp
    414a:	0000                	unimp
    414c:	0000                	unimp
    414e:	0000                	unimp
    4150:	0000                	unimp
    4152:	0000                	unimp
    4154:	0000                	unimp
    4156:	0000                	unimp
    4158:	0000                	unimp
    415a:	0000                	unimp
    415c:	0000                	unimp
    415e:	0000                	unimp
    4160:	0000                	unimp
    4162:	0000                	unimp
    4164:	0000                	unimp
    4166:	0000                	unimp
    4168:	0000                	unimp
    416a:	0000                	unimp
    416c:	0000                	unimp
    416e:	0000                	unimp
    4170:	0000                	unimp
    4172:	0000                	unimp
    4174:	0000                	unimp
    4176:	0000                	unimp
    4178:	0000                	unimp
    417a:	0000                	unimp
    417c:	0000                	unimp
    417e:	0000                	unimp
    4180:	0000                	unimp
    4182:	0000                	unimp
    4184:	0000                	unimp
    4186:	0000                	unimp
    4188:	0000                	unimp
    418a:	0000                	unimp
    418c:	0000                	unimp
    418e:	0000                	unimp
    4190:	0000                	unimp
    4192:	0000                	unimp
    4194:	0000                	unimp
    4196:	0000                	unimp
    4198:	0000                	unimp
    419a:	0000                	unimp
    419c:	0000                	unimp
    419e:	0000                	unimp
    41a0:	0000                	unimp
    41a2:	0000                	unimp
    41a4:	0000                	unimp
    41a6:	0000                	unimp
    41a8:	0000                	unimp
    41aa:	0000                	unimp
    41ac:	0000                	unimp
    41ae:	0000                	unimp
    41b0:	0000                	unimp
    41b2:	0000                	unimp
    41b4:	0000                	unimp
    41b6:	0000                	unimp
    41b8:	0000                	unimp
    41ba:	0000                	unimp
    41bc:	0000                	unimp
    41be:	0000                	unimp
    41c0:	0000                	unimp
    41c2:	0000                	unimp
    41c4:	0000                	unimp
    41c6:	0000                	unimp
    41c8:	0000                	unimp
    41ca:	0000                	unimp
    41cc:	0000                	unimp
    41ce:	0000                	unimp
    41d0:	0000                	unimp
    41d2:	0000                	unimp
    41d4:	0000                	unimp
    41d6:	0000                	unimp
    41d8:	0000                	unimp
    41da:	0000                	unimp
    41dc:	0000                	unimp
    41de:	0000                	unimp
    41e0:	0000                	unimp
    41e2:	0000                	unimp
    41e4:	0000                	unimp
    41e6:	0000                	unimp
    41e8:	0000                	unimp
    41ea:	0000                	unimp
    41ec:	0000                	unimp
    41ee:	0000                	unimp
    41f0:	0000                	unimp
    41f2:	0000                	unimp
    41f4:	0000                	unimp
    41f6:	0000                	unimp
    41f8:	0000                	unimp
    41fa:	0000                	unimp
    41fc:	0000                	unimp
    41fe:	0000                	unimp
    4200:	0000                	unimp
    4202:	0000                	unimp
    4204:	0000                	unimp
    4206:	0000                	unimp
    4208:	0000                	unimp
    420a:	0000                	unimp
    420c:	0000                	unimp
    420e:	0000                	unimp
    4210:	0000                	unimp
    4212:	0000                	unimp
    4214:	0000                	unimp
    4216:	0000                	unimp
    4218:	0000                	unimp
    421a:	0000                	unimp
    421c:	0000                	unimp
    421e:	0000                	unimp
    4220:	0000                	unimp
    4222:	0000                	unimp
    4224:	0000                	unimp
    4226:	0000                	unimp
    4228:	0000                	unimp
    422a:	0000                	unimp
    422c:	0000                	unimp
    422e:	0000                	unimp
    4230:	0000                	unimp
    4232:	0000                	unimp
    4234:	0000                	unimp
    4236:	0000                	unimp
    4238:	0000                	unimp
    423a:	0000                	unimp
    423c:	0000                	unimp
    423e:	0000                	unimp
    4240:	0000                	unimp
    4242:	0000                	unimp
    4244:	0000                	unimp
    4246:	0000                	unimp
    4248:	0000                	unimp
    424a:	0000                	unimp
    424c:	0000                	unimp
    424e:	0000                	unimp
    4250:	0000                	unimp
    4252:	0000                	unimp
    4254:	0000                	unimp
    4256:	0000                	unimp
    4258:	0000                	unimp
    425a:	0000                	unimp
    425c:	0000                	unimp
    425e:	0000                	unimp
    4260:	0000                	unimp
    4262:	0000                	unimp
    4264:	0000                	unimp
    4266:	0000                	unimp
    4268:	0000                	unimp
    426a:	0000                	unimp
    426c:	0000                	unimp
    426e:	0000                	unimp
    4270:	0000                	unimp
    4272:	0000                	unimp
    4274:	0000                	unimp
    4276:	0000                	unimp
    4278:	0000                	unimp
    427a:	0000                	unimp
    427c:	0000                	unimp
    427e:	0000                	unimp
    4280:	0000                	unimp
    4282:	0000                	unimp
    4284:	0000                	unimp
    4286:	0000                	unimp
    4288:	0000                	unimp
    428a:	0000                	unimp
    428c:	0000                	unimp
    428e:	0000                	unimp
    4290:	0000                	unimp
    4292:	0000                	unimp
    4294:	0000                	unimp
    4296:	0000                	unimp
    4298:	0000                	unimp
    429a:	0000                	unimp
    429c:	0000                	unimp
    429e:	0000                	unimp
    42a0:	0000                	unimp
    42a2:	0000                	unimp
    42a4:	0000                	unimp
    42a6:	0000                	unimp
    42a8:	0000                	unimp
    42aa:	0000                	unimp
    42ac:	0000                	unimp
    42ae:	0000                	unimp
    42b0:	0000                	unimp
    42b2:	0000                	unimp
    42b4:	0000                	unimp
    42b6:	0000                	unimp
    42b8:	0000                	unimp
    42ba:	0000                	unimp
    42bc:	0000                	unimp
    42be:	0000                	unimp
    42c0:	0000                	unimp
    42c2:	0000                	unimp
    42c4:	0000                	unimp
    42c6:	0000                	unimp
    42c8:	0000                	unimp
    42ca:	0000                	unimp
    42cc:	0000                	unimp
    42ce:	0000                	unimp
    42d0:	0000                	unimp
    42d2:	0000                	unimp
    42d4:	0000                	unimp
    42d6:	0000                	unimp
    42d8:	0000                	unimp
    42da:	0000                	unimp
    42dc:	0000                	unimp
    42de:	0000                	unimp
    42e0:	0000                	unimp
    42e2:	0000                	unimp
    42e4:	0000                	unimp
    42e6:	0000                	unimp
    42e8:	0000                	unimp
    42ea:	0000                	unimp
    42ec:	0000                	unimp
    42ee:	0000                	unimp
    42f0:	0000                	unimp
    42f2:	0000                	unimp
    42f4:	0000                	unimp
    42f6:	0000                	unimp
    42f8:	0000                	unimp
    42fa:	0000                	unimp
    42fc:	0000                	unimp
    42fe:	0000                	unimp
    4300:	0000                	unimp
    4302:	0000                	unimp
    4304:	0000                	unimp
    4306:	0000                	unimp
    4308:	0000                	unimp
    430a:	0000                	unimp
    430c:	0000                	unimp
    430e:	0000                	unimp
    4310:	0000                	unimp
    4312:	0000                	unimp
    4314:	0000                	unimp
    4316:	0000                	unimp
    4318:	0000                	unimp
    431a:	0000                	unimp
    431c:	0000                	unimp
    431e:	0000                	unimp
    4320:	0000                	unimp
    4322:	0000                	unimp
    4324:	0000                	unimp
    4326:	0000                	unimp
    4328:	0000                	unimp
    432a:	0000                	unimp
    432c:	0000                	unimp
    432e:	0000                	unimp
    4330:	0000                	unimp
    4332:	0000                	unimp
    4334:	0000                	unimp
    4336:	0000                	unimp
    4338:	0000                	unimp
    433a:	0000                	unimp
    433c:	0000                	unimp
    433e:	0000                	unimp
    4340:	0000                	unimp
    4342:	0000                	unimp
    4344:	0000                	unimp
    4346:	0000                	unimp
    4348:	0000                	unimp
    434a:	0000                	unimp
    434c:	0000                	unimp
    434e:	0000                	unimp
    4350:	0000                	unimp
    4352:	0000                	unimp
    4354:	0000                	unimp
    4356:	0000                	unimp
    4358:	0000                	unimp
    435a:	0000                	unimp
    435c:	0000                	unimp
    435e:	0000                	unimp
    4360:	0000                	unimp
    4362:	0000                	unimp
    4364:	0000                	unimp
    4366:	0000                	unimp
    4368:	0000                	unimp
    436a:	0000                	unimp
    436c:	0000                	unimp
    436e:	0000                	unimp
    4370:	0000                	unimp
    4372:	0000                	unimp
    4374:	0000                	unimp
    4376:	0000                	unimp
    4378:	0000                	unimp
    437a:	0000                	unimp
    437c:	0000                	unimp
    437e:	0000                	unimp
    4380:	0000                	unimp
    4382:	0000                	unimp
    4384:	0000                	unimp
    4386:	0000                	unimp
    4388:	0000                	unimp
    438a:	0000                	unimp
    438c:	0000                	unimp
    438e:	0000                	unimp
    4390:	0000                	unimp
    4392:	0000                	unimp
    4394:	0000                	unimp
    4396:	0000                	unimp
    4398:	0000                	unimp
    439a:	0000                	unimp
    439c:	0000                	unimp
    439e:	0000                	unimp
    43a0:	0000                	unimp
    43a2:	0000                	unimp
    43a4:	0000                	unimp
    43a6:	0000                	unimp
    43a8:	0000                	unimp
    43aa:	0000                	unimp
    43ac:	0000                	unimp
    43ae:	0000                	unimp
    43b0:	0000                	unimp
    43b2:	0000                	unimp
    43b4:	0000                	unimp
    43b6:	0000                	unimp
    43b8:	0000                	unimp
    43ba:	0000                	unimp
    43bc:	0000                	unimp
    43be:	0000                	unimp
    43c0:	0000                	unimp
    43c2:	0000                	unimp
    43c4:	0000                	unimp
    43c6:	0000                	unimp
    43c8:	0000                	unimp
    43ca:	0000                	unimp
    43cc:	0000                	unimp
    43ce:	0000                	unimp
    43d0:	0000                	unimp
    43d2:	0000                	unimp
    43d4:	0000                	unimp
    43d6:	0000                	unimp
    43d8:	0000                	unimp
    43da:	0000                	unimp
    43dc:	0000                	unimp
    43de:	0000                	unimp
    43e0:	0000                	unimp
    43e2:	0000                	unimp
    43e4:	0000                	unimp
    43e6:	0000                	unimp
    43e8:	0000                	unimp
    43ea:	0000                	unimp
    43ec:	0000                	unimp
    43ee:	0000                	unimp
    43f0:	0000                	unimp
    43f2:	0000                	unimp
    43f4:	0000                	unimp
    43f6:	0000                	unimp
    43f8:	0000                	unimp
    43fa:	0000                	unimp
    43fc:	0000                	unimp
    43fe:	0000                	unimp
    4400:	0000                	unimp
    4402:	0000                	unimp
    4404:	0000                	unimp
    4406:	0000                	unimp
    4408:	0000                	unimp
    440a:	0000                	unimp
    440c:	0000                	unimp
    440e:	0000                	unimp
    4410:	0000                	unimp
    4412:	0000                	unimp
    4414:	0000                	unimp
    4416:	0000                	unimp
    4418:	0000                	unimp
    441a:	0000                	unimp
    441c:	0000                	unimp
    441e:	0000                	unimp
    4420:	0000                	unimp
    4422:	0000                	unimp
    4424:	0000                	unimp
    4426:	0000                	unimp
    4428:	0000                	unimp
    442a:	0000                	unimp
    442c:	0000                	unimp
    442e:	0000                	unimp
    4430:	0000                	unimp
    4432:	0000                	unimp
    4434:	0000                	unimp
    4436:	0000                	unimp
    4438:	0000                	unimp
    443a:	0000                	unimp
    443c:	0000                	unimp
    443e:	0000                	unimp
    4440:	0000                	unimp
    4442:	0000                	unimp
    4444:	0000                	unimp
    4446:	0000                	unimp
    4448:	0000                	unimp
    444a:	0000                	unimp
    444c:	0000                	unimp
    444e:	0000                	unimp
    4450:	0000                	unimp
    4452:	0000                	unimp
    4454:	0000                	unimp
    4456:	0000                	unimp
    4458:	0000                	unimp
    445a:	0000                	unimp
    445c:	0000                	unimp
    445e:	0000                	unimp
    4460:	0000                	unimp
    4462:	0000                	unimp
    4464:	0000                	unimp
    4466:	0000                	unimp
    4468:	0000                	unimp
    446a:	0000                	unimp
    446c:	0000                	unimp
    446e:	0000                	unimp
    4470:	0000                	unimp
    4472:	0000                	unimp
    4474:	0000                	unimp
    4476:	0000                	unimp
    4478:	0000                	unimp
    447a:	0000                	unimp
    447c:	0000                	unimp
    447e:	0000                	unimp
    4480:	0000                	unimp
    4482:	0000                	unimp
    4484:	0000                	unimp
    4486:	0000                	unimp
    4488:	0000                	unimp
    448a:	0000                	unimp
    448c:	0000                	unimp
    448e:	0000                	unimp
    4490:	0000                	unimp
    4492:	0000                	unimp
    4494:	0000                	unimp
    4496:	0000                	unimp
    4498:	0000                	unimp
    449a:	0000                	unimp
    449c:	0000                	unimp
    449e:	0000                	unimp
    44a0:	0000                	unimp
    44a2:	0000                	unimp
    44a4:	0000                	unimp
    44a6:	0000                	unimp
    44a8:	0000                	unimp
    44aa:	0000                	unimp
    44ac:	0000                	unimp
    44ae:	0000                	unimp
    44b0:	0000                	unimp
    44b2:	0000                	unimp
    44b4:	0000                	unimp
    44b6:	0000                	unimp
    44b8:	0000                	unimp
    44ba:	0000                	unimp
    44bc:	0000                	unimp
    44be:	0000                	unimp
    44c0:	0000                	unimp
    44c2:	0000                	unimp
    44c4:	0000                	unimp
    44c6:	0000                	unimp
    44c8:	0000                	unimp
    44ca:	0000                	unimp
    44cc:	0000                	unimp
    44ce:	0000                	unimp
    44d0:	0000                	unimp
    44d2:	0000                	unimp
    44d4:	0000                	unimp
    44d6:	0000                	unimp
    44d8:	0000                	unimp
    44da:	0000                	unimp
    44dc:	0000                	unimp
    44de:	0000                	unimp
    44e0:	0000                	unimp
    44e2:	0000                	unimp
    44e4:	0000                	unimp
    44e6:	0000                	unimp
    44e8:	0000                	unimp
    44ea:	0000                	unimp
    44ec:	0000                	unimp
    44ee:	0000                	unimp
    44f0:	0000                	unimp
    44f2:	0000                	unimp
    44f4:	0000                	unimp
    44f6:	0000                	unimp
    44f8:	0000                	unimp
    44fa:	0000                	unimp
    44fc:	0000                	unimp
    44fe:	0000                	unimp
    4500:	0000                	unimp
    4502:	0000                	unimp
    4504:	0000                	unimp
    4506:	0000                	unimp
    4508:	0000                	unimp
    450a:	0000                	unimp
    450c:	0000                	unimp
    450e:	0000                	unimp
    4510:	0000                	unimp
    4512:	0000                	unimp
    4514:	0000                	unimp
    4516:	0000                	unimp
    4518:	0000                	unimp
    451a:	0000                	unimp
    451c:	0000                	unimp
    451e:	0000                	unimp
    4520:	0000                	unimp
    4522:	0000                	unimp
    4524:	0000                	unimp
    4526:	0000                	unimp
    4528:	0000                	unimp
    452a:	0000                	unimp
    452c:	0000                	unimp
    452e:	0000                	unimp
    4530:	0000                	unimp
    4532:	0000                	unimp
    4534:	0000                	unimp
    4536:	0000                	unimp
    4538:	0000                	unimp
    453a:	0000                	unimp
    453c:	0000                	unimp
    453e:	0000                	unimp
    4540:	0000                	unimp
    4542:	0000                	unimp
    4544:	0000                	unimp
    4546:	0000                	unimp
    4548:	0000                	unimp
    454a:	0000                	unimp
    454c:	0000                	unimp
    454e:	0000                	unimp
    4550:	0000                	unimp
    4552:	0000                	unimp
    4554:	0000                	unimp
    4556:	0000                	unimp
    4558:	0000                	unimp
    455a:	0000                	unimp
    455c:	0000                	unimp
    455e:	0000                	unimp
    4560:	0000                	unimp
    4562:	0000                	unimp
    4564:	0000                	unimp
    4566:	0000                	unimp
    4568:	0000                	unimp
    456a:	0000                	unimp
    456c:	0000                	unimp
    456e:	0000                	unimp
    4570:	0000                	unimp
    4572:	0000                	unimp
    4574:	0000                	unimp
    4576:	0000                	unimp
    4578:	0000                	unimp
    457a:	0000                	unimp
    457c:	0000                	unimp
    457e:	0000                	unimp
    4580:	0000                	unimp
    4582:	0000                	unimp
    4584:	0000                	unimp
    4586:	0000                	unimp
    4588:	0000                	unimp
    458a:	0000                	unimp
    458c:	0000                	unimp
    458e:	0000                	unimp
    4590:	0000                	unimp
    4592:	0000                	unimp
    4594:	0000                	unimp
    4596:	0000                	unimp
    4598:	0000                	unimp
    459a:	0000                	unimp
    459c:	0000                	unimp
    459e:	0000                	unimp
    45a0:	0000                	unimp
    45a2:	0000                	unimp
    45a4:	0000                	unimp
    45a6:	0000                	unimp
    45a8:	0000                	unimp
    45aa:	0000                	unimp
    45ac:	0000                	unimp
    45ae:	0000                	unimp
    45b0:	0000                	unimp
    45b2:	0000                	unimp
    45b4:	0000                	unimp
    45b6:	0000                	unimp
    45b8:	0000                	unimp
    45ba:	0000                	unimp
    45bc:	0000                	unimp
    45be:	0000                	unimp
    45c0:	0000                	unimp
    45c2:	0000                	unimp
    45c4:	0000                	unimp
    45c6:	0000                	unimp
    45c8:	0000                	unimp
    45ca:	0000                	unimp
    45cc:	0000                	unimp
    45ce:	0000                	unimp
    45d0:	0000                	unimp
    45d2:	0000                	unimp
    45d4:	0000                	unimp
    45d6:	0000                	unimp
    45d8:	0000                	unimp
    45da:	0000                	unimp
    45dc:	0000                	unimp
    45de:	0000                	unimp
    45e0:	0000                	unimp
    45e2:	0000                	unimp
    45e4:	0000                	unimp
    45e6:	0000                	unimp
    45e8:	0000                	unimp
    45ea:	0000                	unimp
    45ec:	0000                	unimp
    45ee:	0000                	unimp
    45f0:	0000                	unimp
    45f2:	0000                	unimp
    45f4:	0000                	unimp
    45f6:	0000                	unimp
    45f8:	0000                	unimp
    45fa:	0000                	unimp
    45fc:	0000                	unimp
    45fe:	0000                	unimp
    4600:	0000                	unimp
    4602:	0000                	unimp
    4604:	0000                	unimp
    4606:	0000                	unimp
    4608:	0000                	unimp
    460a:	0000                	unimp
    460c:	0000                	unimp
    460e:	0000                	unimp
    4610:	0000                	unimp
    4612:	0000                	unimp
    4614:	0000                	unimp
    4616:	0000                	unimp
    4618:	0000                	unimp
    461a:	0000                	unimp
    461c:	0000                	unimp
    461e:	0000                	unimp
    4620:	0000                	unimp
    4622:	0000                	unimp
    4624:	0000                	unimp
    4626:	0000                	unimp
    4628:	0000                	unimp
    462a:	0000                	unimp
    462c:	0000                	unimp
    462e:	0000                	unimp
    4630:	0000                	unimp
    4632:	0000                	unimp
    4634:	0000                	unimp
    4636:	0000                	unimp
    4638:	0000                	unimp
    463a:	0000                	unimp
    463c:	0000                	unimp
    463e:	0000                	unimp
    4640:	0000                	unimp
    4642:	0000                	unimp
    4644:	0000                	unimp
    4646:	0000                	unimp
    4648:	0000                	unimp
    464a:	0000                	unimp
    464c:	0000                	unimp
    464e:	0000                	unimp
    4650:	0000                	unimp
    4652:	0000                	unimp
    4654:	0000                	unimp
    4656:	0000                	unimp
    4658:	0000                	unimp
    465a:	0000                	unimp
    465c:	0000                	unimp
    465e:	0000                	unimp
    4660:	0000                	unimp
    4662:	0000                	unimp
    4664:	0000                	unimp
    4666:	0000                	unimp
    4668:	0000                	unimp
    466a:	0000                	unimp
    466c:	0000                	unimp
    466e:	0000                	unimp
    4670:	0000                	unimp
    4672:	0000                	unimp
    4674:	0000                	unimp
    4676:	0000                	unimp
    4678:	0000                	unimp
    467a:	0000                	unimp
    467c:	0000                	unimp
    467e:	0000                	unimp
    4680:	0000                	unimp
    4682:	0000                	unimp
    4684:	0000                	unimp
    4686:	0000                	unimp
    4688:	0000                	unimp
    468a:	0000                	unimp
    468c:	0000                	unimp
    468e:	0000                	unimp
    4690:	0000                	unimp
    4692:	0000                	unimp
    4694:	0000                	unimp
    4696:	0000                	unimp
    4698:	0000                	unimp
    469a:	0000                	unimp
    469c:	0000                	unimp
    469e:	0000                	unimp
    46a0:	0000                	unimp
    46a2:	0000                	unimp
    46a4:	0000                	unimp
    46a6:	0000                	unimp
    46a8:	0000                	unimp
    46aa:	0000                	unimp
    46ac:	0000                	unimp
    46ae:	0000                	unimp
    46b0:	0000                	unimp
    46b2:	0000                	unimp
    46b4:	0000                	unimp
    46b6:	0000                	unimp
    46b8:	0000                	unimp
    46ba:	0000                	unimp
    46bc:	0000                	unimp
    46be:	0000                	unimp
    46c0:	0000                	unimp
    46c2:	0000                	unimp
    46c4:	0000                	unimp
    46c6:	0000                	unimp
    46c8:	0000                	unimp
    46ca:	0000                	unimp
    46cc:	0000                	unimp
    46ce:	0000                	unimp
    46d0:	0000                	unimp
    46d2:	0000                	unimp
    46d4:	0000                	unimp
    46d6:	0000                	unimp
    46d8:	0000                	unimp
    46da:	0000                	unimp
    46dc:	0000                	unimp
    46de:	0000                	unimp
    46e0:	0000                	unimp
    46e2:	0000                	unimp
    46e4:	0000                	unimp
    46e6:	0000                	unimp
    46e8:	0000                	unimp
    46ea:	0000                	unimp
    46ec:	0000                	unimp
    46ee:	0000                	unimp
    46f0:	0000                	unimp
    46f2:	0000                	unimp
    46f4:	0000                	unimp
    46f6:	0000                	unimp
    46f8:	0000                	unimp
    46fa:	0000                	unimp
    46fc:	0000                	unimp
    46fe:	0000                	unimp
    4700:	0000                	unimp
    4702:	0000                	unimp
    4704:	0000                	unimp
    4706:	0000                	unimp
    4708:	0000                	unimp
    470a:	0000                	unimp
    470c:	0000                	unimp
    470e:	0000                	unimp
    4710:	0000                	unimp
    4712:	0000                	unimp
    4714:	0000                	unimp
    4716:	0000                	unimp
    4718:	0000                	unimp
    471a:	0000                	unimp
    471c:	0000                	unimp
    471e:	0000                	unimp
    4720:	0000                	unimp
    4722:	0000                	unimp
    4724:	0000                	unimp
    4726:	0000                	unimp
    4728:	0000                	unimp
    472a:	0000                	unimp
    472c:	0000                	unimp
    472e:	0000                	unimp
    4730:	0000                	unimp
    4732:	0000                	unimp
    4734:	0000                	unimp
    4736:	0000                	unimp
    4738:	0000                	unimp
    473a:	0000                	unimp
    473c:	0000                	unimp
    473e:	0000                	unimp
    4740:	0000                	unimp
    4742:	0000                	unimp
    4744:	0000                	unimp
    4746:	0000                	unimp
    4748:	0000                	unimp
    474a:	0000                	unimp
    474c:	0000                	unimp
    474e:	0000                	unimp
    4750:	0000                	unimp
    4752:	0000                	unimp
    4754:	0000                	unimp
    4756:	0000                	unimp
    4758:	0000                	unimp
    475a:	0000                	unimp
    475c:	0000                	unimp
    475e:	0000                	unimp
    4760:	0000                	unimp
    4762:	0000                	unimp
    4764:	0000                	unimp
    4766:	0000                	unimp
    4768:	0000                	unimp
    476a:	0000                	unimp
    476c:	0000                	unimp
    476e:	0000                	unimp
    4770:	0000                	unimp
    4772:	0000                	unimp
    4774:	0000                	unimp
    4776:	0000                	unimp
    4778:	0000                	unimp
    477a:	0000                	unimp
    477c:	0000                	unimp
    477e:	0000                	unimp
    4780:	0000                	unimp
    4782:	0000                	unimp
    4784:	0000                	unimp
    4786:	0000                	unimp
    4788:	0000                	unimp
    478a:	0000                	unimp
    478c:	0000                	unimp
    478e:	0000                	unimp
    4790:	0000                	unimp
    4792:	0000                	unimp
    4794:	0000                	unimp
    4796:	0000                	unimp
    4798:	0000                	unimp
    479a:	0000                	unimp
    479c:	0000                	unimp
    479e:	0000                	unimp
    47a0:	0000                	unimp
    47a2:	0000                	unimp
    47a4:	0000                	unimp
    47a6:	0000                	unimp
    47a8:	0000                	unimp
    47aa:	0000                	unimp
    47ac:	0000                	unimp
    47ae:	0000                	unimp
    47b0:	0000                	unimp
    47b2:	0000                	unimp
    47b4:	0000                	unimp
    47b6:	0000                	unimp
    47b8:	0000                	unimp
    47ba:	0000                	unimp
    47bc:	0000                	unimp
    47be:	0000                	unimp
    47c0:	0000                	unimp
    47c2:	0000                	unimp
    47c4:	0000                	unimp
    47c6:	0000                	unimp
    47c8:	0000                	unimp
    47ca:	0000                	unimp
    47cc:	0000                	unimp
    47ce:	0000                	unimp
    47d0:	0000                	unimp
    47d2:	0000                	unimp
    47d4:	0000                	unimp
    47d6:	0000                	unimp
    47d8:	0000                	unimp
    47da:	0000                	unimp
    47dc:	0000                	unimp
    47de:	0000                	unimp
    47e0:	0000                	unimp
    47e2:	0000                	unimp
    47e4:	0000                	unimp
    47e6:	0000                	unimp
    47e8:	0000                	unimp
    47ea:	0000                	unimp
    47ec:	0000                	unimp
    47ee:	0000                	unimp
    47f0:	0000                	unimp
    47f2:	0000                	unimp
    47f4:	0000                	unimp
    47f6:	0000                	unimp
    47f8:	0000                	unimp
    47fa:	0000                	unimp
    47fc:	0000                	unimp
    47fe:	0000                	unimp
    4800:	0000                	unimp
    4802:	0000                	unimp
    4804:	0000                	unimp
    4806:	0000                	unimp
    4808:	0000                	unimp
    480a:	0000                	unimp
    480c:	0000                	unimp
    480e:	0000                	unimp
    4810:	0000                	unimp
    4812:	0000                	unimp
    4814:	0000                	unimp
    4816:	0000                	unimp
    4818:	0000                	unimp
    481a:	0000                	unimp
    481c:	0000                	unimp
    481e:	0000                	unimp
    4820:	0000                	unimp
    4822:	0000                	unimp
    4824:	0000                	unimp
    4826:	0000                	unimp
    4828:	0000                	unimp
    482a:	0000                	unimp
    482c:	0000                	unimp
    482e:	0000                	unimp
    4830:	0000                	unimp
    4832:	0000                	unimp
    4834:	0000                	unimp
    4836:	0000                	unimp
    4838:	0000                	unimp
    483a:	0000                	unimp
    483c:	0000                	unimp
    483e:	0000                	unimp
    4840:	0000                	unimp
    4842:	0000                	unimp
    4844:	0000                	unimp
    4846:	0000                	unimp
    4848:	0000                	unimp
    484a:	0000                	unimp
    484c:	0000                	unimp
    484e:	0000                	unimp
    4850:	0000                	unimp
    4852:	0000                	unimp
    4854:	0000                	unimp
    4856:	0000                	unimp
    4858:	0000                	unimp
    485a:	0000                	unimp
    485c:	0000                	unimp
    485e:	0000                	unimp
    4860:	0000                	unimp
    4862:	0000                	unimp
    4864:	0000                	unimp
    4866:	0000                	unimp
    4868:	0000                	unimp
    486a:	0000                	unimp
    486c:	0000                	unimp
    486e:	0000                	unimp
    4870:	0000                	unimp
    4872:	0000                	unimp
    4874:	0000                	unimp
    4876:	0000                	unimp
    4878:	0000                	unimp
    487a:	0000                	unimp
    487c:	0000                	unimp
    487e:	0000                	unimp
    4880:	0000                	unimp
    4882:	0000                	unimp
    4884:	0000                	unimp
    4886:	0000                	unimp
    4888:	0000                	unimp
    488a:	0000                	unimp
    488c:	0000                	unimp
    488e:	0000                	unimp
    4890:	0000                	unimp
    4892:	0000                	unimp
    4894:	0000                	unimp
    4896:	0000                	unimp
    4898:	0000                	unimp
    489a:	0000                	unimp
    489c:	0000                	unimp
    489e:	0000                	unimp
    48a0:	0000                	unimp
    48a2:	0000                	unimp
    48a4:	0000                	unimp
    48a6:	0000                	unimp
    48a8:	0000                	unimp
    48aa:	0000                	unimp
    48ac:	0000                	unimp
    48ae:	0000                	unimp
    48b0:	0000                	unimp
    48b2:	0000                	unimp
    48b4:	0000                	unimp
    48b6:	0000                	unimp
    48b8:	0000                	unimp
    48ba:	0000                	unimp
    48bc:	0000                	unimp
    48be:	0000                	unimp
    48c0:	0000                	unimp
    48c2:	0000                	unimp
    48c4:	0000                	unimp
    48c6:	0000                	unimp
    48c8:	0000                	unimp
    48ca:	0000                	unimp
    48cc:	0000                	unimp
    48ce:	0000                	unimp
    48d0:	0000                	unimp
    48d2:	0000                	unimp
    48d4:	0000                	unimp
    48d6:	0000                	unimp
    48d8:	0000                	unimp
    48da:	0000                	unimp
    48dc:	0000                	unimp
    48de:	0000                	unimp
    48e0:	0000                	unimp
    48e2:	0000                	unimp
    48e4:	0000                	unimp
    48e6:	0000                	unimp
    48e8:	0000                	unimp
    48ea:	0000                	unimp
    48ec:	0000                	unimp
    48ee:	0000                	unimp
    48f0:	0000                	unimp
    48f2:	0000                	unimp
    48f4:	0000                	unimp
    48f6:	0000                	unimp
    48f8:	0000                	unimp
    48fa:	0000                	unimp
    48fc:	0000                	unimp
    48fe:	0000                	unimp
    4900:	0000                	unimp
    4902:	0000                	unimp
    4904:	0000                	unimp
    4906:	0000                	unimp
    4908:	0000                	unimp
    490a:	0000                	unimp
    490c:	0000                	unimp
    490e:	0000                	unimp
    4910:	0000                	unimp
    4912:	0000                	unimp
    4914:	0000                	unimp
    4916:	0000                	unimp
    4918:	0000                	unimp
    491a:	0000                	unimp
    491c:	0000                	unimp
    491e:	0000                	unimp
    4920:	0000                	unimp
    4922:	0000                	unimp
    4924:	0000                	unimp
    4926:	0000                	unimp
    4928:	0000                	unimp
    492a:	0000                	unimp
    492c:	0000                	unimp
    492e:	0000                	unimp
    4930:	0000                	unimp
    4932:	0000                	unimp
    4934:	0000                	unimp
    4936:	0000                	unimp
    4938:	0000                	unimp
    493a:	0000                	unimp
    493c:	0000                	unimp
    493e:	0000                	unimp
    4940:	0000                	unimp
    4942:	0000                	unimp
    4944:	0000                	unimp
    4946:	0000                	unimp
    4948:	0000                	unimp
    494a:	0000                	unimp
    494c:	0000                	unimp
    494e:	0000                	unimp
    4950:	0000                	unimp
    4952:	0000                	unimp
    4954:	0000                	unimp
    4956:	0000                	unimp
    4958:	0000                	unimp
    495a:	0000                	unimp
    495c:	0000                	unimp
    495e:	0000                	unimp
    4960:	0000                	unimp
    4962:	0000                	unimp
    4964:	0000                	unimp
    4966:	0000                	unimp
    4968:	0000                	unimp
    496a:	0000                	unimp
    496c:	0000                	unimp
    496e:	0000                	unimp
    4970:	0000                	unimp
    4972:	0000                	unimp
    4974:	0000                	unimp
    4976:	0000                	unimp
    4978:	0000                	unimp
    497a:	0000                	unimp
    497c:	0000                	unimp
    497e:	0000                	unimp
    4980:	0000                	unimp
    4982:	0000                	unimp
    4984:	0000                	unimp
    4986:	0000                	unimp
    4988:	0000                	unimp
    498a:	0000                	unimp
    498c:	0000                	unimp
    498e:	0000                	unimp
    4990:	0000                	unimp
    4992:	0000                	unimp
    4994:	0000                	unimp
    4996:	0000                	unimp
    4998:	0000                	unimp
    499a:	0000                	unimp
    499c:	0000                	unimp
    499e:	0000                	unimp
    49a0:	0000                	unimp
    49a2:	0000                	unimp
    49a4:	0000                	unimp
    49a6:	0000                	unimp
    49a8:	0000                	unimp
    49aa:	0000                	unimp
    49ac:	0000                	unimp
    49ae:	0000                	unimp
    49b0:	0000                	unimp
    49b2:	0000                	unimp
    49b4:	0000                	unimp
    49b6:	0000                	unimp
    49b8:	0000                	unimp
    49ba:	0000                	unimp
    49bc:	0000                	unimp
    49be:	0000                	unimp
    49c0:	0000                	unimp
    49c2:	0000                	unimp
    49c4:	0000                	unimp
    49c6:	0000                	unimp
    49c8:	0000                	unimp
    49ca:	0000                	unimp
    49cc:	0000                	unimp
    49ce:	0000                	unimp
    49d0:	0000                	unimp
    49d2:	0000                	unimp
    49d4:	0000                	unimp
    49d6:	0000                	unimp
    49d8:	0000                	unimp
    49da:	0000                	unimp
    49dc:	0000                	unimp
    49de:	0000                	unimp
    49e0:	0000                	unimp
    49e2:	0000                	unimp
    49e4:	0000                	unimp
    49e6:	0000                	unimp
    49e8:	0000                	unimp
    49ea:	0000                	unimp
    49ec:	0000                	unimp
    49ee:	0000                	unimp
    49f0:	0000                	unimp
    49f2:	0000                	unimp
    49f4:	0000                	unimp
    49f6:	0000                	unimp
    49f8:	0000                	unimp
    49fa:	0000                	unimp
    49fc:	0000                	unimp
    49fe:	0000                	unimp
    4a00:	0000                	unimp
    4a02:	0000                	unimp
    4a04:	0000                	unimp
    4a06:	0000                	unimp
    4a08:	0000                	unimp
    4a0a:	0000                	unimp
    4a0c:	0000                	unimp
    4a0e:	0000                	unimp
    4a10:	0000                	unimp
    4a12:	0000                	unimp
    4a14:	0000                	unimp
    4a16:	0000                	unimp
    4a18:	0000                	unimp
    4a1a:	0000                	unimp
    4a1c:	0000                	unimp
    4a1e:	0000                	unimp
    4a20:	0000                	unimp
    4a22:	0000                	unimp
    4a24:	0000                	unimp
    4a26:	0000                	unimp
    4a28:	0000                	unimp
    4a2a:	0000                	unimp
    4a2c:	0000                	unimp
    4a2e:	0000                	unimp
    4a30:	0000                	unimp
    4a32:	0000                	unimp
    4a34:	0000                	unimp
    4a36:	0000                	unimp
    4a38:	0000                	unimp
    4a3a:	0000                	unimp
    4a3c:	0000                	unimp
    4a3e:	0000                	unimp
    4a40:	0000                	unimp
    4a42:	0000                	unimp
    4a44:	0000                	unimp
    4a46:	0000                	unimp
    4a48:	0000                	unimp
    4a4a:	0000                	unimp
    4a4c:	0000                	unimp
    4a4e:	0000                	unimp
    4a50:	0000                	unimp
    4a52:	0000                	unimp
    4a54:	0000                	unimp
    4a56:	0000                	unimp
    4a58:	0000                	unimp
    4a5a:	0000                	unimp
    4a5c:	0000                	unimp
    4a5e:	0000                	unimp
    4a60:	0000                	unimp
    4a62:	0000                	unimp
    4a64:	0000                	unimp
    4a66:	0000                	unimp
    4a68:	0000                	unimp
    4a6a:	0000                	unimp
    4a6c:	0000                	unimp
    4a6e:	0000                	unimp
    4a70:	0000                	unimp
    4a72:	0000                	unimp
    4a74:	0000                	unimp
    4a76:	0000                	unimp
    4a78:	0000                	unimp
    4a7a:	0000                	unimp
    4a7c:	0000                	unimp
    4a7e:	0000                	unimp
    4a80:	0000                	unimp
    4a82:	0000                	unimp
    4a84:	0000                	unimp
    4a86:	0000                	unimp
    4a88:	0000                	unimp
    4a8a:	0000                	unimp
    4a8c:	0000                	unimp
    4a8e:	0000                	unimp
    4a90:	0000                	unimp
    4a92:	0000                	unimp
    4a94:	0000                	unimp
    4a96:	0000                	unimp
    4a98:	0000                	unimp
    4a9a:	0000                	unimp
    4a9c:	0000                	unimp
    4a9e:	0000                	unimp
    4aa0:	0000                	unimp
    4aa2:	0000                	unimp
    4aa4:	0000                	unimp
    4aa6:	0000                	unimp
    4aa8:	0000                	unimp
    4aaa:	0000                	unimp
    4aac:	0000                	unimp
    4aae:	0000                	unimp
    4ab0:	0000                	unimp
    4ab2:	0000                	unimp
    4ab4:	0000                	unimp
    4ab6:	0000                	unimp
    4ab8:	0000                	unimp
    4aba:	0000                	unimp
    4abc:	0000                	unimp
    4abe:	0000                	unimp
    4ac0:	0000                	unimp
    4ac2:	0000                	unimp
    4ac4:	0000                	unimp
    4ac6:	0000                	unimp
    4ac8:	0000                	unimp
    4aca:	0000                	unimp
    4acc:	0000                	unimp
    4ace:	0000                	unimp
    4ad0:	0000                	unimp
    4ad2:	0000                	unimp
    4ad4:	0000                	unimp
    4ad6:	0000                	unimp
    4ad8:	0000                	unimp
    4ada:	0000                	unimp
    4adc:	0000                	unimp
    4ade:	0000                	unimp
    4ae0:	0000                	unimp
    4ae2:	0000                	unimp
    4ae4:	0000                	unimp
    4ae6:	0000                	unimp
    4ae8:	0000                	unimp
    4aea:	0000                	unimp
    4aec:	0000                	unimp
    4aee:	0000                	unimp
    4af0:	0000                	unimp
    4af2:	0000                	unimp
    4af4:	0000                	unimp
    4af6:	0000                	unimp
    4af8:	0000                	unimp
    4afa:	0000                	unimp
    4afc:	0000                	unimp
    4afe:	0000                	unimp
    4b00:	0000                	unimp
    4b02:	0000                	unimp
    4b04:	0000                	unimp
    4b06:	0000                	unimp
    4b08:	0000                	unimp
    4b0a:	0000                	unimp
    4b0c:	0000                	unimp
    4b0e:	0000                	unimp
    4b10:	0000                	unimp
    4b12:	0000                	unimp
    4b14:	0000                	unimp
    4b16:	0000                	unimp
    4b18:	0000                	unimp
    4b1a:	0000                	unimp
    4b1c:	0000                	unimp
    4b1e:	0000                	unimp
    4b20:	0000                	unimp
    4b22:	0000                	unimp
    4b24:	0000                	unimp
    4b26:	0000                	unimp
    4b28:	0000                	unimp
    4b2a:	0000                	unimp
    4b2c:	0000                	unimp
    4b2e:	0000                	unimp
    4b30:	0000                	unimp
    4b32:	0000                	unimp
    4b34:	0000                	unimp
    4b36:	0000                	unimp
    4b38:	0000                	unimp
    4b3a:	0000                	unimp
    4b3c:	0000                	unimp
    4b3e:	0000                	unimp
    4b40:	0000                	unimp
    4b42:	0000                	unimp
    4b44:	0000                	unimp
    4b46:	0000                	unimp
    4b48:	0000                	unimp
    4b4a:	0000                	unimp
    4b4c:	0000                	unimp
    4b4e:	0000                	unimp
    4b50:	0000                	unimp
    4b52:	0000                	unimp
    4b54:	0000                	unimp
    4b56:	0000                	unimp
    4b58:	0000                	unimp
    4b5a:	0000                	unimp
    4b5c:	0000                	unimp
    4b5e:	0000                	unimp
    4b60:	0000                	unimp
    4b62:	0000                	unimp
    4b64:	0000                	unimp
    4b66:	0000                	unimp
    4b68:	0000                	unimp
    4b6a:	0000                	unimp
    4b6c:	0000                	unimp
    4b6e:	0000                	unimp
    4b70:	0000                	unimp
    4b72:	0000                	unimp
    4b74:	0000                	unimp
    4b76:	0000                	unimp
    4b78:	0000                	unimp
    4b7a:	0000                	unimp
    4b7c:	0000                	unimp
    4b7e:	0000                	unimp
    4b80:	0000                	unimp
    4b82:	0000                	unimp
    4b84:	0000                	unimp
    4b86:	0000                	unimp
    4b88:	0000                	unimp
    4b8a:	0000                	unimp
    4b8c:	0000                	unimp
    4b8e:	0000                	unimp
    4b90:	0000                	unimp
    4b92:	0000                	unimp
    4b94:	0000                	unimp
    4b96:	0000                	unimp
    4b98:	0000                	unimp
    4b9a:	0000                	unimp
    4b9c:	0000                	unimp
    4b9e:	0000                	unimp
    4ba0:	0000                	unimp
    4ba2:	0000                	unimp
    4ba4:	0000                	unimp
    4ba6:	0000                	unimp
    4ba8:	0000                	unimp
    4baa:	0000                	unimp
    4bac:	0000                	unimp
    4bae:	0000                	unimp
    4bb0:	0000                	unimp
    4bb2:	0000                	unimp
    4bb4:	0000                	unimp
    4bb6:	0000                	unimp
    4bb8:	0000                	unimp
    4bba:	0000                	unimp
    4bbc:	0000                	unimp
    4bbe:	0000                	unimp
    4bc0:	0000                	unimp
    4bc2:	0000                	unimp
    4bc4:	0000                	unimp
    4bc6:	0000                	unimp
    4bc8:	0000                	unimp
    4bca:	0000                	unimp
    4bcc:	0000                	unimp
    4bce:	0000                	unimp
    4bd0:	0000                	unimp
    4bd2:	0000                	unimp
    4bd4:	0000                	unimp
    4bd6:	0000                	unimp
    4bd8:	0000                	unimp
    4bda:	0000                	unimp
    4bdc:	0000                	unimp
    4bde:	0000                	unimp
    4be0:	0000                	unimp
    4be2:	0000                	unimp
    4be4:	0000                	unimp
    4be6:	0000                	unimp
    4be8:	0000                	unimp
    4bea:	0000                	unimp
    4bec:	0000                	unimp
    4bee:	0000                	unimp
    4bf0:	0000                	unimp
    4bf2:	0000                	unimp
    4bf4:	0000                	unimp
    4bf6:	0000                	unimp
    4bf8:	0000                	unimp
    4bfa:	0000                	unimp
    4bfc:	0000                	unimp
    4bfe:	0000                	unimp
    4c00:	0000                	unimp
    4c02:	0000                	unimp
    4c04:	0000                	unimp
    4c06:	0000                	unimp
    4c08:	0000                	unimp
    4c0a:	0000                	unimp
    4c0c:	0000                	unimp
    4c0e:	0000                	unimp
    4c10:	0000                	unimp
    4c12:	0000                	unimp
    4c14:	0000                	unimp
    4c16:	0000                	unimp
    4c18:	0000                	unimp
    4c1a:	0000                	unimp
    4c1c:	0000                	unimp
    4c1e:	0000                	unimp
    4c20:	0000                	unimp
    4c22:	0000                	unimp
    4c24:	0000                	unimp
    4c26:	0000                	unimp
    4c28:	0000                	unimp
    4c2a:	0000                	unimp
    4c2c:	0000                	unimp
    4c2e:	0000                	unimp
    4c30:	0000                	unimp
    4c32:	0000                	unimp
    4c34:	0000                	unimp
    4c36:	0000                	unimp
    4c38:	0000                	unimp
    4c3a:	0000                	unimp
    4c3c:	0000                	unimp
    4c3e:	0000                	unimp
    4c40:	0000                	unimp
    4c42:	0000                	unimp
    4c44:	0000                	unimp
    4c46:	0000                	unimp
    4c48:	0000                	unimp
    4c4a:	0000                	unimp
    4c4c:	0000                	unimp
    4c4e:	0000                	unimp
    4c50:	0000                	unimp
    4c52:	0000                	unimp
    4c54:	0000                	unimp
    4c56:	0000                	unimp
    4c58:	0000                	unimp
    4c5a:	0000                	unimp
    4c5c:	0000                	unimp
    4c5e:	0000                	unimp
    4c60:	0000                	unimp
    4c62:	0000                	unimp
    4c64:	0000                	unimp
    4c66:	0000                	unimp
    4c68:	0000                	unimp
    4c6a:	0000                	unimp
    4c6c:	0000                	unimp
    4c6e:	0000                	unimp
    4c70:	0000                	unimp
    4c72:	0000                	unimp
    4c74:	0000                	unimp
    4c76:	0000                	unimp
    4c78:	0000                	unimp
    4c7a:	0000                	unimp
    4c7c:	0000                	unimp
    4c7e:	0000                	unimp
    4c80:	0000                	unimp
    4c82:	0000                	unimp
    4c84:	0000                	unimp
    4c86:	0000                	unimp
    4c88:	0000                	unimp
    4c8a:	0000                	unimp
    4c8c:	0000                	unimp
    4c8e:	0000                	unimp
    4c90:	0000                	unimp
    4c92:	0000                	unimp
    4c94:	0000                	unimp
    4c96:	0000                	unimp
    4c98:	0000                	unimp
    4c9a:	0000                	unimp
    4c9c:	0000                	unimp
    4c9e:	0000                	unimp
    4ca0:	0000                	unimp
    4ca2:	0000                	unimp
    4ca4:	0000                	unimp
    4ca6:	0000                	unimp
    4ca8:	0000                	unimp
    4caa:	0000                	unimp
    4cac:	0000                	unimp
    4cae:	0000                	unimp
    4cb0:	0000                	unimp
    4cb2:	0000                	unimp
    4cb4:	0000                	unimp
    4cb6:	0000                	unimp
    4cb8:	0000                	unimp
    4cba:	0000                	unimp
    4cbc:	0000                	unimp
    4cbe:	0000                	unimp
    4cc0:	0000                	unimp
    4cc2:	0000                	unimp
    4cc4:	0000                	unimp
    4cc6:	0000                	unimp
    4cc8:	0000                	unimp
    4cca:	0000                	unimp
    4ccc:	0000                	unimp
    4cce:	0000                	unimp
    4cd0:	0000                	unimp
    4cd2:	0000                	unimp
    4cd4:	0000                	unimp
    4cd6:	0000                	unimp
    4cd8:	0000                	unimp
    4cda:	0000                	unimp
    4cdc:	0000                	unimp
    4cde:	0000                	unimp
    4ce0:	0000                	unimp
    4ce2:	0000                	unimp
    4ce4:	0000                	unimp
    4ce6:	0000                	unimp
    4ce8:	0000                	unimp
    4cea:	0000                	unimp
    4cec:	0000                	unimp
    4cee:	0000                	unimp
    4cf0:	0000                	unimp
    4cf2:	0000                	unimp
    4cf4:	0000                	unimp
    4cf6:	0000                	unimp
    4cf8:	0000                	unimp
    4cfa:	0000                	unimp
    4cfc:	0000                	unimp
    4cfe:	0000                	unimp
    4d00:	0000                	unimp
    4d02:	0000                	unimp
    4d04:	0000                	unimp
    4d06:	0000                	unimp
    4d08:	0000                	unimp
    4d0a:	0000                	unimp
    4d0c:	0000                	unimp
    4d0e:	0000                	unimp
    4d10:	0000                	unimp
    4d12:	0000                	unimp
    4d14:	0000                	unimp
    4d16:	0000                	unimp
    4d18:	0000                	unimp
    4d1a:	0000                	unimp
    4d1c:	0000                	unimp
    4d1e:	0000                	unimp
    4d20:	0000                	unimp
    4d22:	0000                	unimp
    4d24:	0000                	unimp
    4d26:	0000                	unimp
    4d28:	0000                	unimp
    4d2a:	0000                	unimp
    4d2c:	0000                	unimp
    4d2e:	0000                	unimp
    4d30:	0000                	unimp
    4d32:	0000                	unimp
    4d34:	0000                	unimp
    4d36:	0000                	unimp
    4d38:	0000                	unimp
    4d3a:	0000                	unimp
    4d3c:	0000                	unimp
    4d3e:	0000                	unimp
    4d40:	0000                	unimp
    4d42:	0000                	unimp
    4d44:	0000                	unimp
    4d46:	0000                	unimp
    4d48:	0000                	unimp
    4d4a:	0000                	unimp
    4d4c:	0000                	unimp
    4d4e:	0000                	unimp
    4d50:	0000                	unimp
    4d52:	0000                	unimp
    4d54:	0000                	unimp
    4d56:	0000                	unimp
    4d58:	0000                	unimp
    4d5a:	0000                	unimp
    4d5c:	0000                	unimp
    4d5e:	0000                	unimp
    4d60:	0000                	unimp
    4d62:	0000                	unimp
    4d64:	0000                	unimp
    4d66:	0000                	unimp
    4d68:	0000                	unimp
    4d6a:	0000                	unimp
    4d6c:	0000                	unimp
    4d6e:	0000                	unimp
    4d70:	0000                	unimp
    4d72:	0000                	unimp
    4d74:	0000                	unimp
    4d76:	0000                	unimp
    4d78:	0000                	unimp
    4d7a:	0000                	unimp
    4d7c:	0000                	unimp
    4d7e:	0000                	unimp
    4d80:	0000                	unimp
    4d82:	0000                	unimp
    4d84:	0000                	unimp
    4d86:	0000                	unimp
    4d88:	0000                	unimp
    4d8a:	0000                	unimp
    4d8c:	0000                	unimp
    4d8e:	0000                	unimp
    4d90:	0000                	unimp
    4d92:	0000                	unimp
    4d94:	0000                	unimp
    4d96:	0000                	unimp
    4d98:	0000                	unimp
    4d9a:	0000                	unimp
    4d9c:	0000                	unimp
    4d9e:	0000                	unimp
    4da0:	0000                	unimp
    4da2:	0000                	unimp
    4da4:	0000                	unimp
    4da6:	0000                	unimp
    4da8:	0000                	unimp
    4daa:	0000                	unimp
    4dac:	0000                	unimp
    4dae:	0000                	unimp
    4db0:	0000                	unimp
    4db2:	0000                	unimp
    4db4:	0000                	unimp
    4db6:	0000                	unimp
    4db8:	0000                	unimp
    4dba:	0000                	unimp
    4dbc:	0000                	unimp
    4dbe:	0000                	unimp
    4dc0:	0000                	unimp
    4dc2:	0000                	unimp
    4dc4:	0000                	unimp
    4dc6:	0000                	unimp
    4dc8:	0000                	unimp
    4dca:	0000                	unimp
    4dcc:	0000                	unimp
    4dce:	0000                	unimp
    4dd0:	0000                	unimp
    4dd2:	0000                	unimp
    4dd4:	0000                	unimp
    4dd6:	0000                	unimp
    4dd8:	0000                	unimp
    4dda:	0000                	unimp
    4ddc:	0000                	unimp
    4dde:	0000                	unimp
    4de0:	0000                	unimp
    4de2:	0000                	unimp
    4de4:	0000                	unimp
    4de6:	0000                	unimp
    4de8:	0000                	unimp
    4dea:	0000                	unimp
    4dec:	0000                	unimp
    4dee:	0000                	unimp
    4df0:	0000                	unimp
    4df2:	0000                	unimp
    4df4:	0000                	unimp
    4df6:	0000                	unimp
    4df8:	0000                	unimp
    4dfa:	0000                	unimp
    4dfc:	0000                	unimp
    4dfe:	0000                	unimp
    4e00:	0000                	unimp
    4e02:	0000                	unimp
    4e04:	0000                	unimp
    4e06:	0000                	unimp
    4e08:	0000                	unimp
    4e0a:	0000                	unimp
    4e0c:	0000                	unimp
    4e0e:	0000                	unimp
    4e10:	0000                	unimp
    4e12:	0000                	unimp
    4e14:	0000                	unimp
    4e16:	0000                	unimp
    4e18:	0000                	unimp
    4e1a:	0000                	unimp
    4e1c:	0000                	unimp
    4e1e:	0000                	unimp
    4e20:	0000                	unimp
    4e22:	0000                	unimp
    4e24:	0000                	unimp
    4e26:	0000                	unimp
    4e28:	0000                	unimp
    4e2a:	0000                	unimp
    4e2c:	0000                	unimp
    4e2e:	0000                	unimp
    4e30:	0000                	unimp
    4e32:	0000                	unimp
    4e34:	0000                	unimp
    4e36:	0000                	unimp
    4e38:	0000                	unimp
    4e3a:	0000                	unimp
    4e3c:	0000                	unimp
    4e3e:	0000                	unimp
    4e40:	0000                	unimp
    4e42:	0000                	unimp
    4e44:	0000                	unimp
    4e46:	0000                	unimp
    4e48:	0000                	unimp
    4e4a:	0000                	unimp
    4e4c:	0000                	unimp
    4e4e:	0000                	unimp
    4e50:	0000                	unimp
    4e52:	0000                	unimp
    4e54:	0000                	unimp
    4e56:	0000                	unimp
    4e58:	0000                	unimp
    4e5a:	0000                	unimp
    4e5c:	0000                	unimp
    4e5e:	0000                	unimp
    4e60:	0000                	unimp
    4e62:	0000                	unimp
    4e64:	0000                	unimp
    4e66:	0000                	unimp
    4e68:	0000                	unimp
    4e6a:	0000                	unimp
    4e6c:	0000                	unimp
    4e6e:	0000                	unimp
    4e70:	0000                	unimp
    4e72:	0000                	unimp
    4e74:	0000                	unimp
    4e76:	0000                	unimp
    4e78:	0000                	unimp
    4e7a:	0000                	unimp
    4e7c:	0000                	unimp
    4e7e:	0000                	unimp
    4e80:	0000                	unimp
    4e82:	0000                	unimp
    4e84:	0000                	unimp
    4e86:	0000                	unimp
    4e88:	0000                	unimp
    4e8a:	0000                	unimp
    4e8c:	0000                	unimp
    4e8e:	0000                	unimp
    4e90:	0000                	unimp
    4e92:	0000                	unimp
    4e94:	0000                	unimp
    4e96:	0000                	unimp
    4e98:	0000                	unimp
    4e9a:	0000                	unimp
    4e9c:	0000                	unimp
    4e9e:	0000                	unimp
    4ea0:	0000                	unimp
    4ea2:	0000                	unimp
    4ea4:	0000                	unimp
    4ea6:	0000                	unimp
    4ea8:	0000                	unimp
    4eaa:	0000                	unimp
    4eac:	0000                	unimp
    4eae:	0000                	unimp
    4eb0:	0000                	unimp
    4eb2:	0000                	unimp
    4eb4:	0000                	unimp
    4eb6:	0000                	unimp
    4eb8:	0000                	unimp
    4eba:	0000                	unimp
    4ebc:	0000                	unimp
    4ebe:	0000                	unimp
    4ec0:	0000                	unimp
    4ec2:	0000                	unimp
    4ec4:	0000                	unimp
    4ec6:	0000                	unimp
    4ec8:	0000                	unimp
    4eca:	0000                	unimp
    4ecc:	0000                	unimp
    4ece:	0000                	unimp
    4ed0:	0000                	unimp
    4ed2:	0000                	unimp
    4ed4:	0000                	unimp
    4ed6:	0000                	unimp
    4ed8:	0000                	unimp
    4eda:	0000                	unimp
    4edc:	0000                	unimp
    4ede:	0000                	unimp
    4ee0:	0000                	unimp
    4ee2:	0000                	unimp
    4ee4:	0000                	unimp
    4ee6:	0000                	unimp
    4ee8:	0000                	unimp
    4eea:	0000                	unimp
    4eec:	0000                	unimp
    4eee:	0000                	unimp
    4ef0:	0000                	unimp
    4ef2:	0000                	unimp
    4ef4:	0000                	unimp
    4ef6:	0000                	unimp
    4ef8:	0000                	unimp
    4efa:	0000                	unimp
    4efc:	0000                	unimp
    4efe:	0000                	unimp
    4f00:	0000                	unimp
    4f02:	0000                	unimp
    4f04:	0000                	unimp
    4f06:	0000                	unimp
    4f08:	0000                	unimp
    4f0a:	0000                	unimp
    4f0c:	0000                	unimp
    4f0e:	0000                	unimp
    4f10:	0000                	unimp
    4f12:	0000                	unimp
    4f14:	0000                	unimp
    4f16:	0000                	unimp
    4f18:	0000                	unimp
    4f1a:	0000                	unimp
    4f1c:	0000                	unimp
    4f1e:	0000                	unimp
    4f20:	0000                	unimp
    4f22:	0000                	unimp
    4f24:	0000                	unimp
    4f26:	0000                	unimp
    4f28:	0000                	unimp
    4f2a:	0000                	unimp
    4f2c:	0000                	unimp
    4f2e:	0000                	unimp
    4f30:	0000                	unimp
    4f32:	0000                	unimp
    4f34:	0000                	unimp
    4f36:	0000                	unimp
    4f38:	0000                	unimp
    4f3a:	0000                	unimp
    4f3c:	0000                	unimp
    4f3e:	0000                	unimp
    4f40:	0000                	unimp
    4f42:	0000                	unimp
    4f44:	0000                	unimp
    4f46:	0000                	unimp
    4f48:	0000                	unimp
    4f4a:	0000                	unimp
    4f4c:	0000                	unimp
    4f4e:	0000                	unimp
    4f50:	0000                	unimp
    4f52:	0000                	unimp
    4f54:	0000                	unimp
    4f56:	0000                	unimp
    4f58:	0000                	unimp
    4f5a:	0000                	unimp
    4f5c:	0000                	unimp
    4f5e:	0000                	unimp
    4f60:	0000                	unimp
    4f62:	0000                	unimp
    4f64:	0000                	unimp
    4f66:	0000                	unimp
    4f68:	0000                	unimp
    4f6a:	0000                	unimp
    4f6c:	0000                	unimp
    4f6e:	0000                	unimp
    4f70:	0000                	unimp
    4f72:	0000                	unimp
    4f74:	0000                	unimp
    4f76:	0000                	unimp
    4f78:	0000                	unimp
    4f7a:	0000                	unimp
    4f7c:	0000                	unimp
    4f7e:	0000                	unimp
    4f80:	0000                	unimp
    4f82:	0000                	unimp
    4f84:	0000                	unimp
    4f86:	0000                	unimp
    4f88:	0000                	unimp
    4f8a:	0000                	unimp
    4f8c:	0000                	unimp
    4f8e:	0000                	unimp
    4f90:	0000                	unimp
    4f92:	0000                	unimp
    4f94:	0000                	unimp
    4f96:	0000                	unimp
    4f98:	0000                	unimp
    4f9a:	0000                	unimp
    4f9c:	0000                	unimp
    4f9e:	0000                	unimp
    4fa0:	0000                	unimp
    4fa2:	0000                	unimp
    4fa4:	0000                	unimp
    4fa6:	0000                	unimp
    4fa8:	0000                	unimp
    4faa:	0000                	unimp
    4fac:	0000                	unimp
    4fae:	0000                	unimp
    4fb0:	0000                	unimp
    4fb2:	0000                	unimp
    4fb4:	0000                	unimp
    4fb6:	0000                	unimp
    4fb8:	0000                	unimp
    4fba:	0000                	unimp
    4fbc:	0000                	unimp
    4fbe:	0000                	unimp
    4fc0:	0000                	unimp
    4fc2:	0000                	unimp
    4fc4:	0000                	unimp
    4fc6:	0000                	unimp
    4fc8:	0000                	unimp
    4fca:	0000                	unimp
    4fcc:	0000                	unimp
    4fce:	0000                	unimp
    4fd0:	0000                	unimp
    4fd2:	0000                	unimp
    4fd4:	0000                	unimp
    4fd6:	0000                	unimp
    4fd8:	0000                	unimp
    4fda:	0000                	unimp
    4fdc:	0000                	unimp
    4fde:	0000                	unimp
    4fe0:	0000                	unimp
    4fe2:	0000                	unimp
    4fe4:	0000                	unimp
    4fe6:	0000                	unimp
    4fe8:	0000                	unimp
    4fea:	0000                	unimp
    4fec:	0000                	unimp
    4fee:	0000                	unimp
    4ff0:	0000                	unimp
    4ff2:	0000                	unimp
    4ff4:	0000                	unimp
    4ff6:	0000                	unimp
    4ff8:	0000                	unimp
    4ffa:	0000                	unimp
    4ffc:	0000                	unimp
    4ffe:	0000                	unimp
    5000:	0000                	unimp
    5002:	0000                	unimp
    5004:	0000                	unimp
    5006:	0000                	unimp
    5008:	0000                	unimp
    500a:	0000                	unimp
    500c:	0000                	unimp
    500e:	0000                	unimp
    5010:	0000                	unimp
    5012:	0000                	unimp
    5014:	0000                	unimp
    5016:	0000                	unimp
    5018:	0000                	unimp
    501a:	0000                	unimp
    501c:	0000                	unimp
    501e:	0000                	unimp
    5020:	0000                	unimp
    5022:	0000                	unimp
    5024:	0000                	unimp
    5026:	0000                	unimp
    5028:	0000                	unimp
    502a:	0000                	unimp
    502c:	0000                	unimp
    502e:	0000                	unimp
    5030:	0000                	unimp
    5032:	0000                	unimp
    5034:	0000                	unimp
    5036:	0000                	unimp
    5038:	0000                	unimp
    503a:	0000                	unimp
    503c:	0000                	unimp
    503e:	0000                	unimp
    5040:	0000                	unimp
    5042:	0000                	unimp
    5044:	0000                	unimp
    5046:	0000                	unimp
    5048:	0000                	unimp
    504a:	0000                	unimp
    504c:	0000                	unimp
    504e:	0000                	unimp
    5050:	0000                	unimp
    5052:	0000                	unimp
    5054:	0000                	unimp
    5056:	0000                	unimp
    5058:	0000                	unimp
    505a:	0000                	unimp
    505c:	0000                	unimp
    505e:	0000                	unimp
    5060:	0000                	unimp
    5062:	0000                	unimp
    5064:	0000                	unimp
    5066:	0000                	unimp
    5068:	0000                	unimp
    506a:	0000                	unimp
    506c:	0000                	unimp
    506e:	0000                	unimp
    5070:	0000                	unimp
    5072:	0000                	unimp
    5074:	0000                	unimp
    5076:	0000                	unimp
    5078:	0000                	unimp
    507a:	0000                	unimp
    507c:	0000                	unimp
    507e:	0000                	unimp
    5080:	0000                	unimp
    5082:	0000                	unimp
    5084:	0000                	unimp
    5086:	0000                	unimp
    5088:	0000                	unimp
    508a:	0000                	unimp
    508c:	0000                	unimp
    508e:	0000                	unimp
    5090:	0000                	unimp
    5092:	0000                	unimp
    5094:	0000                	unimp
    5096:	0000                	unimp
    5098:	0000                	unimp
    509a:	0000                	unimp
    509c:	0000                	unimp
    509e:	0000                	unimp
    50a0:	0000                	unimp
    50a2:	0000                	unimp
    50a4:	0000                	unimp
    50a6:	0000                	unimp
    50a8:	0000                	unimp
    50aa:	0000                	unimp
    50ac:	0000                	unimp
    50ae:	0000                	unimp
    50b0:	0000                	unimp
    50b2:	0000                	unimp
    50b4:	0000                	unimp
    50b6:	0000                	unimp
    50b8:	0000                	unimp
    50ba:	0000                	unimp
    50bc:	0000                	unimp
    50be:	0000                	unimp
    50c0:	0000                	unimp
    50c2:	0000                	unimp
    50c4:	0000                	unimp
    50c6:	0000                	unimp
    50c8:	0000                	unimp
    50ca:	0000                	unimp
    50cc:	0000                	unimp
    50ce:	0000                	unimp
    50d0:	0000                	unimp
    50d2:	0000                	unimp
    50d4:	0000                	unimp
    50d6:	0000                	unimp
    50d8:	0000                	unimp
    50da:	0000                	unimp
    50dc:	0000                	unimp
    50de:	0000                	unimp
    50e0:	0000                	unimp
    50e2:	0000                	unimp
    50e4:	0000                	unimp
    50e6:	0000                	unimp
    50e8:	0000                	unimp
    50ea:	0000                	unimp
    50ec:	0000                	unimp
    50ee:	0000                	unimp
    50f0:	0000                	unimp
    50f2:	0000                	unimp
    50f4:	0000                	unimp
    50f6:	0000                	unimp
    50f8:	0000                	unimp
    50fa:	0000                	unimp
    50fc:	0000                	unimp
    50fe:	0000                	unimp
    5100:	0000                	unimp
    5102:	0000                	unimp
    5104:	0000                	unimp
    5106:	0000                	unimp
    5108:	0000                	unimp
    510a:	0000                	unimp
    510c:	0000                	unimp
    510e:	0000                	unimp
    5110:	0000                	unimp
    5112:	0000                	unimp
    5114:	0000                	unimp
    5116:	0000                	unimp
    5118:	0000                	unimp
    511a:	0000                	unimp
    511c:	0000                	unimp
    511e:	0000                	unimp
    5120:	0000                	unimp
    5122:	0000                	unimp
    5124:	0000                	unimp
    5126:	0000                	unimp
    5128:	0000                	unimp
    512a:	0000                	unimp
    512c:	0000                	unimp
    512e:	0000                	unimp
    5130:	0000                	unimp
    5132:	0000                	unimp
    5134:	0000                	unimp
    5136:	0000                	unimp
    5138:	0000                	unimp
    513a:	0000                	unimp
    513c:	0000                	unimp
    513e:	0000                	unimp
    5140:	0000                	unimp
    5142:	0000                	unimp
    5144:	0000                	unimp
    5146:	0000                	unimp
    5148:	0000                	unimp
    514a:	0000                	unimp
    514c:	0000                	unimp
    514e:	0000                	unimp
    5150:	0000                	unimp
    5152:	0000                	unimp
    5154:	0000                	unimp
    5156:	0000                	unimp
    5158:	0000                	unimp
    515a:	0000                	unimp
    515c:	0000                	unimp
    515e:	0000                	unimp
    5160:	0000                	unimp
    5162:	0000                	unimp
    5164:	0000                	unimp
    5166:	0000                	unimp
    5168:	0000                	unimp
    516a:	0000                	unimp
    516c:	0000                	unimp
    516e:	0000                	unimp
    5170:	0000                	unimp
    5172:	0000                	unimp
    5174:	0000                	unimp
    5176:	0000                	unimp
    5178:	0000                	unimp
    517a:	0000                	unimp
    517c:	0000                	unimp
    517e:	0000                	unimp
    5180:	0000                	unimp
    5182:	0000                	unimp
    5184:	0000                	unimp
    5186:	0000                	unimp
    5188:	0000                	unimp
    518a:	0000                	unimp
    518c:	0000                	unimp
    518e:	0000                	unimp
    5190:	0000                	unimp
    5192:	0000                	unimp
    5194:	0000                	unimp
    5196:	0000                	unimp
    5198:	0000                	unimp
    519a:	0000                	unimp
    519c:	0000                	unimp
    519e:	0000                	unimp
    51a0:	0000                	unimp
    51a2:	0000                	unimp
    51a4:	0000                	unimp
    51a6:	0000                	unimp
    51a8:	0000                	unimp
    51aa:	0000                	unimp
    51ac:	0000                	unimp
    51ae:	0000                	unimp
    51b0:	0000                	unimp
    51b2:	0000                	unimp
    51b4:	0000                	unimp
    51b6:	0000                	unimp
    51b8:	0000                	unimp
    51ba:	0000                	unimp
    51bc:	0000                	unimp
    51be:	0000                	unimp
    51c0:	0000                	unimp
    51c2:	0000                	unimp
    51c4:	0000                	unimp
    51c6:	0000                	unimp
    51c8:	0000                	unimp
    51ca:	0000                	unimp
    51cc:	0000                	unimp
    51ce:	0000                	unimp
    51d0:	0000                	unimp
    51d2:	0000                	unimp
    51d4:	0000                	unimp
    51d6:	0000                	unimp
    51d8:	0000                	unimp
    51da:	0000                	unimp
    51dc:	0000                	unimp
    51de:	0000                	unimp
    51e0:	0000                	unimp
    51e2:	0000                	unimp
    51e4:	0000                	unimp
    51e6:	0000                	unimp
    51e8:	0000                	unimp
    51ea:	0000                	unimp
    51ec:	0000                	unimp
    51ee:	0000                	unimp
    51f0:	0000                	unimp
    51f2:	0000                	unimp
    51f4:	0000                	unimp
    51f6:	0000                	unimp
    51f8:	0000                	unimp
    51fa:	0000                	unimp
    51fc:	0000                	unimp
    51fe:	0000                	unimp
    5200:	0000                	unimp
    5202:	0000                	unimp
    5204:	0000                	unimp
    5206:	0000                	unimp
    5208:	0000                	unimp
    520a:	0000                	unimp
    520c:	0000                	unimp
    520e:	0000                	unimp
    5210:	0000                	unimp
    5212:	0000                	unimp
    5214:	0000                	unimp
    5216:	0000                	unimp
    5218:	0000                	unimp
    521a:	0000                	unimp
    521c:	0000                	unimp
    521e:	0000                	unimp
    5220:	0000                	unimp
    5222:	0000                	unimp
    5224:	0000                	unimp
    5226:	0000                	unimp
    5228:	0000                	unimp
    522a:	0000                	unimp
    522c:	0000                	unimp
    522e:	0000                	unimp
    5230:	0000                	unimp
    5232:	0000                	unimp
    5234:	0000                	unimp
    5236:	0000                	unimp
    5238:	0000                	unimp
    523a:	0000                	unimp
    523c:	0000                	unimp
    523e:	0000                	unimp
    5240:	0000                	unimp
    5242:	0000                	unimp
    5244:	0000                	unimp
    5246:	0000                	unimp
    5248:	0000                	unimp
    524a:	0000                	unimp
    524c:	0000                	unimp
    524e:	0000                	unimp
    5250:	0000                	unimp
    5252:	0000                	unimp
    5254:	0000                	unimp
    5256:	0000                	unimp
    5258:	0000                	unimp
    525a:	0000                	unimp
    525c:	0000                	unimp
    525e:	0000                	unimp
    5260:	0000                	unimp
    5262:	0000                	unimp
    5264:	0000                	unimp
    5266:	0000                	unimp
    5268:	0000                	unimp
    526a:	0000                	unimp
    526c:	0000                	unimp
    526e:	0000                	unimp
    5270:	0000                	unimp
    5272:	0000                	unimp
    5274:	0000                	unimp
    5276:	0000                	unimp
    5278:	0000                	unimp
    527a:	0000                	unimp
    527c:	0000                	unimp
    527e:	0000                	unimp
    5280:	0000                	unimp
    5282:	0000                	unimp
    5284:	0000                	unimp
    5286:	0000                	unimp
    5288:	0000                	unimp
    528a:	0000                	unimp
    528c:	0000                	unimp
    528e:	0000                	unimp
    5290:	0000                	unimp
    5292:	0000                	unimp
    5294:	0000                	unimp
    5296:	0000                	unimp
    5298:	0000                	unimp
    529a:	0000                	unimp
    529c:	0000                	unimp
    529e:	0000                	unimp
    52a0:	0000                	unimp
    52a2:	0000                	unimp
    52a4:	0000                	unimp
    52a6:	0000                	unimp
    52a8:	0000                	unimp
    52aa:	0000                	unimp
    52ac:	0000                	unimp
    52ae:	0000                	unimp
    52b0:	0000                	unimp
    52b2:	0000                	unimp
    52b4:	0000                	unimp
    52b6:	0000                	unimp
    52b8:	0000                	unimp
    52ba:	0000                	unimp
    52bc:	0000                	unimp
    52be:	0000                	unimp
    52c0:	0000                	unimp
    52c2:	0000                	unimp
    52c4:	0000                	unimp
    52c6:	0000                	unimp
    52c8:	0000                	unimp
    52ca:	0000                	unimp
    52cc:	0000                	unimp
    52ce:	0000                	unimp
    52d0:	0000                	unimp
    52d2:	0000                	unimp
    52d4:	0000                	unimp
    52d6:	0000                	unimp
    52d8:	0000                	unimp
    52da:	0000                	unimp
    52dc:	0000                	unimp
    52de:	0000                	unimp
    52e0:	0000                	unimp
    52e2:	0000                	unimp
    52e4:	0000                	unimp
    52e6:	0000                	unimp
    52e8:	0000                	unimp
    52ea:	0000                	unimp
    52ec:	0000                	unimp
    52ee:	0000                	unimp
    52f0:	0000                	unimp
    52f2:	0000                	unimp
    52f4:	0000                	unimp
    52f6:	0000                	unimp
    52f8:	0000                	unimp
    52fa:	0000                	unimp
    52fc:	0000                	unimp
    52fe:	0000                	unimp
    5300:	0000                	unimp
    5302:	0000                	unimp
    5304:	0000                	unimp
    5306:	0000                	unimp
    5308:	0000                	unimp
    530a:	0000                	unimp
    530c:	0000                	unimp
    530e:	0000                	unimp
    5310:	0000                	unimp
    5312:	0000                	unimp
    5314:	0000                	unimp
    5316:	0000                	unimp
    5318:	0000                	unimp
    531a:	0000                	unimp
    531c:	0000                	unimp
    531e:	0000                	unimp
    5320:	0000                	unimp
    5322:	0000                	unimp
    5324:	0000                	unimp
    5326:	0000                	unimp
    5328:	0000                	unimp
    532a:	0000                	unimp
    532c:	0000                	unimp
    532e:	0000                	unimp
    5330:	0000                	unimp
    5332:	0000                	unimp
    5334:	0000                	unimp
    5336:	0000                	unimp
    5338:	0000                	unimp
    533a:	0000                	unimp
    533c:	0000                	unimp
    533e:	0000                	unimp
    5340:	0000                	unimp
    5342:	0000                	unimp
    5344:	0000                	unimp
    5346:	0000                	unimp
    5348:	0000                	unimp
    534a:	0000                	unimp
    534c:	0000                	unimp
    534e:	0000                	unimp
    5350:	0000                	unimp
    5352:	0000                	unimp
    5354:	0000                	unimp
    5356:	0000                	unimp
    5358:	0000                	unimp
    535a:	0000                	unimp
    535c:	0000                	unimp
    535e:	0000                	unimp
    5360:	0000                	unimp
    5362:	0000                	unimp
    5364:	0000                	unimp
    5366:	0000                	unimp
    5368:	0000                	unimp
    536a:	0000                	unimp
    536c:	0000                	unimp
    536e:	0000                	unimp
    5370:	0000                	unimp
    5372:	0000                	unimp
    5374:	0000                	unimp
    5376:	0000                	unimp
    5378:	0000                	unimp
    537a:	0000                	unimp
    537c:	0000                	unimp
    537e:	0000                	unimp
    5380:	0000                	unimp
    5382:	0000                	unimp
    5384:	0000                	unimp
    5386:	0000                	unimp
    5388:	0000                	unimp
    538a:	0000                	unimp
    538c:	0000                	unimp
    538e:	0000                	unimp
    5390:	0000                	unimp
    5392:	0000                	unimp
    5394:	0000                	unimp
    5396:	0000                	unimp
    5398:	0000                	unimp
    539a:	0000                	unimp
    539c:	0000                	unimp
    539e:	0000                	unimp
    53a0:	0000                	unimp
    53a2:	0000                	unimp
    53a4:	0000                	unimp
    53a6:	0000                	unimp
    53a8:	0000                	unimp
    53aa:	0000                	unimp
    53ac:	0000                	unimp
    53ae:	0000                	unimp
    53b0:	0000                	unimp
    53b2:	0000                	unimp
    53b4:	0000                	unimp
    53b6:	0000                	unimp
    53b8:	0000                	unimp
    53ba:	0000                	unimp
    53bc:	0000                	unimp
    53be:	0000                	unimp
    53c0:	0000                	unimp
    53c2:	0000                	unimp
    53c4:	0000                	unimp
    53c6:	0000                	unimp
    53c8:	0000                	unimp
    53ca:	0000                	unimp
    53cc:	0000                	unimp
    53ce:	0000                	unimp
    53d0:	0000                	unimp
    53d2:	0000                	unimp
    53d4:	0000                	unimp
    53d6:	0000                	unimp
    53d8:	0000                	unimp
    53da:	0000                	unimp
    53dc:	0000                	unimp
    53de:	0000                	unimp
    53e0:	0000                	unimp
    53e2:	0000                	unimp
    53e4:	0000                	unimp
    53e6:	0000                	unimp
    53e8:	0000                	unimp
    53ea:	0000                	unimp
    53ec:	0000                	unimp
    53ee:	0000                	unimp
    53f0:	0000                	unimp
    53f2:	0000                	unimp
    53f4:	0000                	unimp
    53f6:	0000                	unimp
    53f8:	0000                	unimp
    53fa:	0000                	unimp
    53fc:	0000                	unimp
    53fe:	0000                	unimp
    5400:	0000                	unimp
    5402:	0000                	unimp
    5404:	0000                	unimp
    5406:	0000                	unimp
    5408:	0000                	unimp
    540a:	0000                	unimp
    540c:	0000                	unimp
    540e:	0000                	unimp
    5410:	0000                	unimp
    5412:	0000                	unimp
    5414:	0000                	unimp
    5416:	0000                	unimp
    5418:	0000                	unimp
    541a:	0000                	unimp
    541c:	0000                	unimp
    541e:	0000                	unimp
    5420:	0000                	unimp
    5422:	0000                	unimp
    5424:	0000                	unimp
    5426:	0000                	unimp
    5428:	0000                	unimp
    542a:	0000                	unimp
    542c:	0000                	unimp
    542e:	0000                	unimp
    5430:	0000                	unimp
    5432:	0000                	unimp
    5434:	0000                	unimp
    5436:	0000                	unimp
    5438:	0000                	unimp
    543a:	0000                	unimp
    543c:	0000                	unimp
    543e:	0000                	unimp
    5440:	0000                	unimp
    5442:	0000                	unimp
    5444:	0000                	unimp
    5446:	0000                	unimp
    5448:	0000                	unimp
    544a:	0000                	unimp
    544c:	0000                	unimp
    544e:	0000                	unimp
    5450:	0000                	unimp
    5452:	0000                	unimp
    5454:	0000                	unimp
    5456:	0000                	unimp
    5458:	0000                	unimp
    545a:	0000                	unimp
    545c:	0000                	unimp
    545e:	0000                	unimp
    5460:	0000                	unimp
    5462:	0000                	unimp
    5464:	0000                	unimp
    5466:	0000                	unimp
    5468:	0000                	unimp
    546a:	0000                	unimp
    546c:	0000                	unimp
    546e:	0000                	unimp
    5470:	0000                	unimp
    5472:	0000                	unimp
    5474:	0000                	unimp
    5476:	0000                	unimp
    5478:	0000                	unimp
    547a:	0000                	unimp
    547c:	0000                	unimp
    547e:	0000                	unimp
    5480:	0000                	unimp
    5482:	0000                	unimp
    5484:	0000                	unimp
    5486:	0000                	unimp
    5488:	0000                	unimp
    548a:	0000                	unimp
    548c:	0000                	unimp
    548e:	0000                	unimp
    5490:	0000                	unimp
    5492:	0000                	unimp
    5494:	0000                	unimp
    5496:	0000                	unimp
    5498:	0000                	unimp
    549a:	0000                	unimp
    549c:	0000                	unimp
    549e:	0000                	unimp
    54a0:	0000                	unimp
    54a2:	0000                	unimp
    54a4:	0000                	unimp
    54a6:	0000                	unimp
    54a8:	0000                	unimp
    54aa:	0000                	unimp
    54ac:	0000                	unimp
    54ae:	0000                	unimp
    54b0:	0000                	unimp
    54b2:	0000                	unimp
    54b4:	0000                	unimp
    54b6:	0000                	unimp
    54b8:	0000                	unimp
    54ba:	0000                	unimp
    54bc:	0000                	unimp
    54be:	0000                	unimp
    54c0:	0000                	unimp
    54c2:	0000                	unimp
    54c4:	0000                	unimp
    54c6:	0000                	unimp
    54c8:	0000                	unimp
    54ca:	0000                	unimp
    54cc:	0000                	unimp
    54ce:	0000                	unimp
    54d0:	0000                	unimp
    54d2:	0000                	unimp
    54d4:	0000                	unimp
    54d6:	0000                	unimp
    54d8:	0000                	unimp
    54da:	0000                	unimp
    54dc:	0000                	unimp
    54de:	0000                	unimp
    54e0:	0000                	unimp
    54e2:	0000                	unimp
    54e4:	0000                	unimp
    54e6:	0000                	unimp
    54e8:	0000                	unimp
    54ea:	0000                	unimp
    54ec:	0000                	unimp
    54ee:	0000                	unimp
    54f0:	0000                	unimp
    54f2:	0000                	unimp
    54f4:	0000                	unimp
    54f6:	0000                	unimp
    54f8:	0000                	unimp
    54fa:	0000                	unimp
    54fc:	0000                	unimp
    54fe:	0000                	unimp
    5500:	0000                	unimp
    5502:	0000                	unimp
    5504:	0000                	unimp
    5506:	0000                	unimp
    5508:	0000                	unimp
    550a:	0000                	unimp
    550c:	0000                	unimp
    550e:	0000                	unimp
    5510:	0000                	unimp
    5512:	0000                	unimp
    5514:	0000                	unimp
    5516:	0000                	unimp
    5518:	0000                	unimp
    551a:	0000                	unimp
    551c:	0000                	unimp
    551e:	0000                	unimp
    5520:	0000                	unimp
    5522:	0000                	unimp
    5524:	0000                	unimp
    5526:	0000                	unimp
    5528:	0000                	unimp
    552a:	0000                	unimp
    552c:	0000                	unimp
    552e:	0000                	unimp
    5530:	0000                	unimp
    5532:	0000                	unimp
    5534:	0000                	unimp
    5536:	0000                	unimp
    5538:	0000                	unimp
    553a:	0000                	unimp
    553c:	0000                	unimp
    553e:	0000                	unimp
    5540:	0000                	unimp
    5542:	0000                	unimp
    5544:	0000                	unimp
    5546:	0000                	unimp
    5548:	0000                	unimp
    554a:	0000                	unimp
    554c:	0000                	unimp
    554e:	0000                	unimp
    5550:	0000                	unimp
    5552:	0000                	unimp
    5554:	0000                	unimp
    5556:	0000                	unimp
    5558:	0000                	unimp
    555a:	0000                	unimp
    555c:	0000                	unimp
    555e:	0000                	unimp
    5560:	0000                	unimp
    5562:	0000                	unimp
    5564:	0000                	unimp
    5566:	0000                	unimp
    5568:	0000                	unimp
    556a:	0000                	unimp
    556c:	0000                	unimp
    556e:	0000                	unimp
    5570:	0000                	unimp
    5572:	0000                	unimp
    5574:	0000                	unimp
    5576:	0000                	unimp
    5578:	0000                	unimp
    557a:	0000                	unimp
    557c:	0000                	unimp
    557e:	0000                	unimp
    5580:	0000                	unimp
    5582:	0000                	unimp
    5584:	0000                	unimp
    5586:	0000                	unimp
    5588:	0000                	unimp
    558a:	0000                	unimp
    558c:	0000                	unimp
    558e:	0000                	unimp
    5590:	0000                	unimp
    5592:	0000                	unimp
    5594:	0000                	unimp
    5596:	0000                	unimp
    5598:	0000                	unimp
    559a:	0000                	unimp
    559c:	0000                	unimp
    559e:	0000                	unimp
    55a0:	0000                	unimp
    55a2:	0000                	unimp
    55a4:	0000                	unimp
    55a6:	0000                	unimp
    55a8:	0000                	unimp
    55aa:	0000                	unimp
    55ac:	0000                	unimp
    55ae:	0000                	unimp
    55b0:	0000                	unimp
    55b2:	0000                	unimp
    55b4:	0000                	unimp
    55b6:	0000                	unimp
    55b8:	0000                	unimp
    55ba:	0000                	unimp
    55bc:	0000                	unimp
    55be:	0000                	unimp
    55c0:	0000                	unimp
    55c2:	0000                	unimp
    55c4:	0000                	unimp
    55c6:	0000                	unimp
    55c8:	0000                	unimp
    55ca:	0000                	unimp
    55cc:	0000                	unimp
    55ce:	0000                	unimp
    55d0:	0000                	unimp
    55d2:	0000                	unimp
    55d4:	0000                	unimp
    55d6:	0000                	unimp
    55d8:	0000                	unimp
    55da:	0000                	unimp
    55dc:	0000                	unimp
    55de:	0000                	unimp
    55e0:	0000                	unimp
    55e2:	0000                	unimp
    55e4:	0000                	unimp
    55e6:	0000                	unimp
    55e8:	0000                	unimp
    55ea:	0000                	unimp
    55ec:	0000                	unimp
    55ee:	0000                	unimp
    55f0:	0000                	unimp
    55f2:	0000                	unimp
    55f4:	0000                	unimp
    55f6:	0000                	unimp
    55f8:	0000                	unimp
    55fa:	0000                	unimp
    55fc:	0000                	unimp
    55fe:	0000                	unimp
    5600:	0000                	unimp
    5602:	0000                	unimp
    5604:	0000                	unimp
    5606:	0000                	unimp
    5608:	0000                	unimp
    560a:	0000                	unimp
    560c:	0000                	unimp
    560e:	0000                	unimp
    5610:	0000                	unimp
    5612:	0000                	unimp
    5614:	0000                	unimp
    5616:	0000                	unimp
    5618:	0000                	unimp
    561a:	0000                	unimp
    561c:	0000                	unimp
    561e:	0000                	unimp
    5620:	0000                	unimp
    5622:	0000                	unimp
    5624:	0000                	unimp
    5626:	0000                	unimp
    5628:	0000                	unimp
    562a:	0000                	unimp
    562c:	0000                	unimp
    562e:	0000                	unimp
    5630:	0000                	unimp
    5632:	0000                	unimp
    5634:	0000                	unimp
    5636:	0000                	unimp
    5638:	0000                	unimp
    563a:	0000                	unimp
    563c:	0000                	unimp
    563e:	0000                	unimp
    5640:	0000                	unimp
    5642:	0000                	unimp
    5644:	0000                	unimp
    5646:	0000                	unimp
    5648:	0000                	unimp
    564a:	0000                	unimp
    564c:	0000                	unimp
    564e:	0000                	unimp
    5650:	0000                	unimp
    5652:	0000                	unimp
    5654:	0000                	unimp
    5656:	0000                	unimp
    5658:	0000                	unimp
    565a:	0000                	unimp
    565c:	0000                	unimp
    565e:	0000                	unimp
    5660:	0000                	unimp
    5662:	0000                	unimp
    5664:	0000                	unimp
    5666:	0000                	unimp
    5668:	0000                	unimp
    566a:	0000                	unimp
    566c:	0000                	unimp
    566e:	0000                	unimp
    5670:	0000                	unimp
    5672:	0000                	unimp
    5674:	0000                	unimp
    5676:	0000                	unimp
    5678:	0000                	unimp
    567a:	0000                	unimp
    567c:	0000                	unimp
    567e:	0000                	unimp
    5680:	0000                	unimp
    5682:	0000                	unimp
    5684:	0000                	unimp
    5686:	0000                	unimp
    5688:	0000                	unimp
    568a:	0000                	unimp
    568c:	0000                	unimp
    568e:	0000                	unimp
    5690:	0000                	unimp
    5692:	0000                	unimp
    5694:	0000                	unimp
    5696:	0000                	unimp
    5698:	0000                	unimp
    569a:	0000                	unimp
    569c:	0000                	unimp
    569e:	0000                	unimp
    56a0:	0000                	unimp
    56a2:	0000                	unimp
    56a4:	0000                	unimp
    56a6:	0000                	unimp
    56a8:	0000                	unimp
    56aa:	0000                	unimp
    56ac:	0000                	unimp
    56ae:	0000                	unimp
    56b0:	0000                	unimp
    56b2:	0000                	unimp
    56b4:	0000                	unimp
    56b6:	0000                	unimp
    56b8:	0000                	unimp
    56ba:	0000                	unimp
    56bc:	0000                	unimp
    56be:	0000                	unimp
    56c0:	0000                	unimp
    56c2:	0000                	unimp
    56c4:	0000                	unimp
    56c6:	0000                	unimp
    56c8:	0000                	unimp
    56ca:	0000                	unimp
    56cc:	0000                	unimp
    56ce:	0000                	unimp
    56d0:	0000                	unimp
    56d2:	0000                	unimp
    56d4:	0000                	unimp
    56d6:	0000                	unimp
    56d8:	0000                	unimp
    56da:	0000                	unimp
    56dc:	0000                	unimp
    56de:	0000                	unimp
    56e0:	0000                	unimp
    56e2:	0000                	unimp
    56e4:	0000                	unimp
    56e6:	0000                	unimp
    56e8:	0000                	unimp
    56ea:	0000                	unimp
    56ec:	0000                	unimp
    56ee:	0000                	unimp
    56f0:	0000                	unimp
    56f2:	0000                	unimp
    56f4:	0000                	unimp
    56f6:	0000                	unimp
    56f8:	0000                	unimp
    56fa:	0000                	unimp
    56fc:	0000                	unimp
    56fe:	0000                	unimp
    5700:	0000                	unimp
    5702:	0000                	unimp
    5704:	0000                	unimp
    5706:	0000                	unimp
    5708:	0000                	unimp
    570a:	0000                	unimp
    570c:	0000                	unimp
    570e:	0000                	unimp
    5710:	0000                	unimp
    5712:	0000                	unimp
    5714:	0000                	unimp
    5716:	0000                	unimp
    5718:	0000                	unimp
    571a:	0000                	unimp
    571c:	0000                	unimp
    571e:	0000                	unimp
    5720:	0000                	unimp
    5722:	0000                	unimp
    5724:	0000                	unimp
    5726:	0000                	unimp
    5728:	0000                	unimp
    572a:	0000                	unimp
    572c:	0000                	unimp
    572e:	0000                	unimp
    5730:	0000                	unimp
    5732:	0000                	unimp
    5734:	0000                	unimp
    5736:	0000                	unimp
    5738:	0000                	unimp
    573a:	0000                	unimp
    573c:	0000                	unimp
    573e:	0000                	unimp
    5740:	0000                	unimp
    5742:	0000                	unimp
    5744:	0000                	unimp
    5746:	0000                	unimp
    5748:	0000                	unimp
    574a:	0000                	unimp
    574c:	0000                	unimp
    574e:	0000                	unimp
    5750:	0000                	unimp
    5752:	0000                	unimp
    5754:	0000                	unimp
    5756:	0000                	unimp
    5758:	0000                	unimp
    575a:	0000                	unimp
    575c:	0000                	unimp
    575e:	0000                	unimp
    5760:	0000                	unimp
    5762:	0000                	unimp
    5764:	0000                	unimp
    5766:	0000                	unimp
    5768:	0000                	unimp
    576a:	0000                	unimp
    576c:	0000                	unimp
    576e:	0000                	unimp
    5770:	0000                	unimp
    5772:	0000                	unimp
    5774:	0000                	unimp
    5776:	0000                	unimp
    5778:	0000                	unimp
    577a:	0000                	unimp
    577c:	0000                	unimp
    577e:	0000                	unimp
    5780:	0000                	unimp
    5782:	0000                	unimp
    5784:	0000                	unimp
    5786:	0000                	unimp
    5788:	0000                	unimp
    578a:	0000                	unimp
    578c:	0000                	unimp
    578e:	0000                	unimp
    5790:	0000                	unimp
    5792:	0000                	unimp
    5794:	0000                	unimp
    5796:	0000                	unimp
    5798:	0000                	unimp
    579a:	0000                	unimp
    579c:	0000                	unimp
    579e:	0000                	unimp
    57a0:	0000                	unimp
    57a2:	0000                	unimp
    57a4:	0000                	unimp
    57a6:	0000                	unimp
    57a8:	0000                	unimp
    57aa:	0000                	unimp
    57ac:	0000                	unimp
    57ae:	0000                	unimp
    57b0:	0000                	unimp
    57b2:	0000                	unimp
    57b4:	0000                	unimp
    57b6:	0000                	unimp
    57b8:	0000                	unimp
    57ba:	0000                	unimp
    57bc:	0000                	unimp
    57be:	0000                	unimp
    57c0:	0000                	unimp
    57c2:	0000                	unimp
    57c4:	0000                	unimp
    57c6:	0000                	unimp
    57c8:	0000                	unimp
    57ca:	0000                	unimp
    57cc:	0000                	unimp
    57ce:	0000                	unimp
    57d0:	0000                	unimp
    57d2:	0000                	unimp
    57d4:	0000                	unimp
    57d6:	0000                	unimp
    57d8:	0000                	unimp
    57da:	0000                	unimp
    57dc:	0000                	unimp
    57de:	0000                	unimp
    57e0:	0000                	unimp
    57e2:	0000                	unimp
    57e4:	0000                	unimp
    57e6:	0000                	unimp
    57e8:	0000                	unimp
    57ea:	0000                	unimp
    57ec:	0000                	unimp
    57ee:	0000                	unimp
    57f0:	0000                	unimp
    57f2:	0000                	unimp
    57f4:	0000                	unimp
    57f6:	0000                	unimp
    57f8:	0000                	unimp
    57fa:	0000                	unimp
    57fc:	0000                	unimp
    57fe:	0000                	unimp
    5800:	0000                	unimp
    5802:	0000                	unimp
    5804:	0000                	unimp
    5806:	0000                	unimp
    5808:	0000                	unimp
    580a:	0000                	unimp
    580c:	0000                	unimp
    580e:	0000                	unimp
    5810:	0000                	unimp
    5812:	0000                	unimp
    5814:	0000                	unimp
    5816:	0000                	unimp
    5818:	0000                	unimp
    581a:	0000                	unimp
    581c:	0000                	unimp
    581e:	0000                	unimp
    5820:	0000                	unimp
    5822:	0000                	unimp
    5824:	0000                	unimp
    5826:	0000                	unimp
    5828:	0000                	unimp
    582a:	0000                	unimp
    582c:	0000                	unimp
    582e:	0000                	unimp
    5830:	0000                	unimp
    5832:	0000                	unimp
    5834:	0000                	unimp
    5836:	0000                	unimp
    5838:	0000                	unimp
    583a:	0000                	unimp
    583c:	0000                	unimp
    583e:	0000                	unimp
    5840:	0000                	unimp
    5842:	0000                	unimp
    5844:	0000                	unimp
    5846:	0000                	unimp
    5848:	0000                	unimp
    584a:	0000                	unimp
    584c:	0000                	unimp
    584e:	0000                	unimp
    5850:	0000                	unimp
    5852:	0000                	unimp
    5854:	0000                	unimp
    5856:	0000                	unimp
    5858:	0000                	unimp
    585a:	0000                	unimp
    585c:	0000                	unimp
    585e:	0000                	unimp
    5860:	0000                	unimp
    5862:	0000                	unimp
    5864:	0000                	unimp
    5866:	0000                	unimp
    5868:	0000                	unimp
    586a:	0000                	unimp
    586c:	0000                	unimp
    586e:	0000                	unimp
    5870:	0000                	unimp
    5872:	0000                	unimp
    5874:	0000                	unimp
    5876:	0000                	unimp
    5878:	0000                	unimp
    587a:	0000                	unimp
    587c:	0000                	unimp
    587e:	0000                	unimp
    5880:	0000                	unimp
    5882:	0000                	unimp
    5884:	0000                	unimp
    5886:	0000                	unimp
    5888:	0000                	unimp
    588a:	0000                	unimp
    588c:	0000                	unimp
    588e:	0000                	unimp
    5890:	0000                	unimp
    5892:	0000                	unimp
    5894:	0000                	unimp
    5896:	0000                	unimp
    5898:	0000                	unimp
    589a:	0000                	unimp
    589c:	0000                	unimp
    589e:	0000                	unimp
    58a0:	0000                	unimp
    58a2:	0000                	unimp
    58a4:	0000                	unimp
    58a6:	0000                	unimp
    58a8:	0000                	unimp
    58aa:	0000                	unimp
    58ac:	0000                	unimp
    58ae:	0000                	unimp
    58b0:	0000                	unimp
    58b2:	0000                	unimp
    58b4:	0000                	unimp
    58b6:	0000                	unimp
    58b8:	0000                	unimp
    58ba:	0000                	unimp
    58bc:	0000                	unimp
    58be:	0000                	unimp
    58c0:	0000                	unimp
    58c2:	0000                	unimp
    58c4:	0000                	unimp
    58c6:	0000                	unimp
    58c8:	0000                	unimp
    58ca:	0000                	unimp
    58cc:	0000                	unimp
    58ce:	0000                	unimp
    58d0:	0000                	unimp
    58d2:	0000                	unimp
    58d4:	0000                	unimp
    58d6:	0000                	unimp
    58d8:	0000                	unimp
    58da:	0000                	unimp
    58dc:	0000                	unimp
    58de:	0000                	unimp
    58e0:	0000                	unimp
    58e2:	0000                	unimp
    58e4:	0000                	unimp
    58e6:	0000                	unimp
    58e8:	0000                	unimp
    58ea:	0000                	unimp
    58ec:	0000                	unimp
    58ee:	0000                	unimp
    58f0:	0000                	unimp
    58f2:	0000                	unimp
    58f4:	0000                	unimp
    58f6:	0000                	unimp
    58f8:	0000                	unimp
    58fa:	0000                	unimp
    58fc:	0000                	unimp
    58fe:	0000                	unimp
    5900:	0000                	unimp
    5902:	0000                	unimp
    5904:	0000                	unimp
    5906:	0000                	unimp
    5908:	0000                	unimp
    590a:	0000                	unimp
    590c:	0000                	unimp
    590e:	0000                	unimp
    5910:	0000                	unimp
    5912:	0000                	unimp
    5914:	0000                	unimp
    5916:	0000                	unimp
    5918:	0000                	unimp
    591a:	0000                	unimp
    591c:	0000                	unimp
    591e:	0000                	unimp
    5920:	0000                	unimp
    5922:	0000                	unimp
    5924:	0000                	unimp
    5926:	0000                	unimp
    5928:	0000                	unimp
    592a:	0000                	unimp
    592c:	0000                	unimp
    592e:	0000                	unimp
    5930:	0000                	unimp
    5932:	0000                	unimp
    5934:	0000                	unimp
    5936:	0000                	unimp
    5938:	0000                	unimp
    593a:	0000                	unimp
    593c:	0000                	unimp
    593e:	0000                	unimp
    5940:	0000                	unimp
    5942:	0000                	unimp
    5944:	0000                	unimp
    5946:	0000                	unimp
    5948:	0000                	unimp
    594a:	0000                	unimp
    594c:	0000                	unimp
    594e:	0000                	unimp
    5950:	0000                	unimp
    5952:	0000                	unimp
    5954:	0000                	unimp
    5956:	0000                	unimp
    5958:	0000                	unimp
    595a:	0000                	unimp
    595c:	0000                	unimp
    595e:	0000                	unimp
    5960:	0000                	unimp
    5962:	0000                	unimp
    5964:	0000                	unimp
    5966:	0000                	unimp
    5968:	0000                	unimp
    596a:	0000                	unimp
    596c:	0000                	unimp
    596e:	0000                	unimp
    5970:	0000                	unimp
    5972:	0000                	unimp
    5974:	0000                	unimp
    5976:	0000                	unimp
    5978:	0000                	unimp
    597a:	0000                	unimp
    597c:	0000                	unimp
    597e:	0000                	unimp
    5980:	0000                	unimp
    5982:	0000                	unimp
    5984:	0000                	unimp
    5986:	0000                	unimp
    5988:	0000                	unimp
    598a:	0000                	unimp
    598c:	0000                	unimp
    598e:	0000                	unimp
    5990:	0000                	unimp
    5992:	0000                	unimp
    5994:	0000                	unimp
    5996:	0000                	unimp
    5998:	0000                	unimp
    599a:	0000                	unimp
    599c:	0000                	unimp
    599e:	0000                	unimp
    59a0:	0000                	unimp
    59a2:	0000                	unimp
    59a4:	0000                	unimp
    59a6:	0000                	unimp
    59a8:	0000                	unimp
    59aa:	0000                	unimp
    59ac:	0000                	unimp
    59ae:	0000                	unimp
    59b0:	0000                	unimp
    59b2:	0000                	unimp
    59b4:	0000                	unimp
    59b6:	0000                	unimp
    59b8:	0000                	unimp
    59ba:	0000                	unimp
    59bc:	0000                	unimp
    59be:	0000                	unimp
    59c0:	0000                	unimp
    59c2:	0000                	unimp
    59c4:	0000                	unimp
    59c6:	0000                	unimp
    59c8:	0000                	unimp
    59ca:	0000                	unimp
    59cc:	0000                	unimp
    59ce:	0000                	unimp
    59d0:	0000                	unimp
    59d2:	0000                	unimp
    59d4:	0000                	unimp
    59d6:	0000                	unimp
    59d8:	0000                	unimp
    59da:	0000                	unimp
    59dc:	0000                	unimp
    59de:	0000                	unimp
    59e0:	0000                	unimp
    59e2:	0000                	unimp
    59e4:	0000                	unimp
    59e6:	0000                	unimp
    59e8:	0000                	unimp
    59ea:	0000                	unimp
    59ec:	0000                	unimp
    59ee:	0000                	unimp
    59f0:	0000                	unimp
    59f2:	0000                	unimp
    59f4:	0000                	unimp
    59f6:	0000                	unimp
    59f8:	0000                	unimp
    59fa:	0000                	unimp
    59fc:	0000                	unimp
    59fe:	0000                	unimp
    5a00:	0000                	unimp
    5a02:	0000                	unimp
    5a04:	0000                	unimp
    5a06:	0000                	unimp
    5a08:	0000                	unimp
    5a0a:	0000                	unimp
    5a0c:	0000                	unimp
    5a0e:	0000                	unimp
    5a10:	0000                	unimp
    5a12:	0000                	unimp
    5a14:	0000                	unimp
    5a16:	0000                	unimp
    5a18:	0000                	unimp
    5a1a:	0000                	unimp
    5a1c:	0000                	unimp
    5a1e:	0000                	unimp
    5a20:	0000                	unimp
    5a22:	0000                	unimp
    5a24:	0000                	unimp
    5a26:	0000                	unimp
    5a28:	0000                	unimp
    5a2a:	0000                	unimp
    5a2c:	0000                	unimp
    5a2e:	0000                	unimp
    5a30:	0000                	unimp
    5a32:	0000                	unimp
    5a34:	0000                	unimp
    5a36:	0000                	unimp
    5a38:	0000                	unimp
    5a3a:	0000                	unimp
    5a3c:	0000                	unimp
    5a3e:	0000                	unimp
    5a40:	0000                	unimp
    5a42:	0000                	unimp
    5a44:	0000                	unimp
    5a46:	0000                	unimp
    5a48:	0000                	unimp
    5a4a:	0000                	unimp
    5a4c:	0000                	unimp
    5a4e:	0000                	unimp
    5a50:	0000                	unimp
    5a52:	0000                	unimp
    5a54:	0000                	unimp
    5a56:	0000                	unimp
    5a58:	0000                	unimp
    5a5a:	0000                	unimp
    5a5c:	0000                	unimp
    5a5e:	0000                	unimp
    5a60:	0000                	unimp
    5a62:	0000                	unimp
    5a64:	0000                	unimp
    5a66:	0000                	unimp
    5a68:	0000                	unimp
    5a6a:	0000                	unimp
    5a6c:	0000                	unimp
    5a6e:	0000                	unimp
    5a70:	0000                	unimp
    5a72:	0000                	unimp
    5a74:	0000                	unimp
    5a76:	0000                	unimp
    5a78:	0000                	unimp
    5a7a:	0000                	unimp
    5a7c:	0000                	unimp
    5a7e:	0000                	unimp
    5a80:	0000                	unimp
    5a82:	0000                	unimp
    5a84:	0000                	unimp
    5a86:	0000                	unimp
    5a88:	0000                	unimp
    5a8a:	0000                	unimp
    5a8c:	0000                	unimp
    5a8e:	0000                	unimp
    5a90:	0000                	unimp
    5a92:	0000                	unimp
    5a94:	0000                	unimp
    5a96:	0000                	unimp
    5a98:	0000                	unimp
    5a9a:	0000                	unimp
    5a9c:	0000                	unimp
    5a9e:	0000                	unimp
    5aa0:	0000                	unimp
    5aa2:	0000                	unimp
    5aa4:	0000                	unimp
    5aa6:	0000                	unimp
    5aa8:	0000                	unimp
    5aaa:	0000                	unimp
    5aac:	0000                	unimp
    5aae:	0000                	unimp
    5ab0:	0000                	unimp
    5ab2:	0000                	unimp
    5ab4:	0000                	unimp
    5ab6:	0000                	unimp
    5ab8:	0000                	unimp
    5aba:	0000                	unimp
    5abc:	0000                	unimp
    5abe:	0000                	unimp
    5ac0:	0000                	unimp
    5ac2:	0000                	unimp
    5ac4:	0000                	unimp
    5ac6:	0000                	unimp

Disassembly of section .comment:

0000000000000000 <.comment>:
   0:	3a434347          	fmsub.d	ft6,ft6,ft4,ft7,rmm
   4:	2820                	fld	fs0,80(s0)
   6:	29554e47          	fmsub.s	ft8,fa0,fs5,ft5,rmm
   a:	3120                	fld	fs0,96(a0)
   c:	2e31                	addiw	t3,t3,12
   e:	2e31                	addiw	t3,t3,12
  10:	0030                	addi	a2,sp,8

Disassembly of section .riscv.attributes:

0000000000000000 <.riscv.attributes>:
   0:	1b41                	addi	s6,s6,-16
   2:	0000                	unimp
   4:	7200                	ld	s0,32(a2)
   6:	7369                	lui	t1,0xffffa
   8:	01007663          	bgeu	zero,a6,14 <_start+0x14>
   c:	0011                	c.nop	4
   e:	0000                	unimp
  10:	1004                	addi	s1,sp,32
  12:	7205                	lui	tp,0xfffe1
  14:	3676                	fld	fa2,376(sp)
  16:	6934                	ld	a3,80(a0)
  18:	7032                	0x7032
  1a:	0030                	addi	a2,sp,8
