
vvadd-loops-unrolled.riscv:     file format elf64-littleriscv


Disassembly of section .text:

0000000000000000 <_start>:
   0:	00000093          	li	ra,0
   4:	00000113          	li	sp,0
   8:	00000193          	li	gp,0
   c:	00000213          	li	tp,0
  10:	00000293          	li	t0,0
  14:	00000313          	li	t1,0
  18:	00000393          	li	t2,0
  1c:	00000413          	li	s0,0
  20:	00000493          	li	s1,0
  24:	00000513          	li	a0,0
  28:	00000593          	li	a1,0
  2c:	00000613          	li	a2,0
  30:	00000693          	li	a3,0
  34:	00000713          	li	a4,0
  38:	00000793          	li	a5,0
  3c:	00000813          	li	a6,0
  40:	00000893          	li	a7,0
  44:	00000913          	li	s2,0
  48:	00000993          	li	s3,0
  4c:	00000a13          	li	s4,0
  50:	00000a93          	li	s5,0
  54:	00000b13          	li	s6,0
  58:	00000b93          	li	s7,0
  5c:	00000c13          	li	s8,0
  60:	00000c93          	li	s9,0
  64:	00000d13          	li	s10,0
  68:	00000d93          	li	s11,0
  6c:	00000e13          	li	t3,0
  70:	00000e93          	li	t4,0
  74:	00000f13          	li	t5,0
  78:	00000f93          	li	t6,0
  7c:	00006117          	auipc	sp,0x6
  80:	a4c10113          	addi	sp,sp,-1460 # 5ac8 <STACK>
  84:	768000ef          	jal	ra,7ec <main>
  88:	1410006f          	j	9c8 <end>

000000000000008c <vvadd>:
  8c:	18a05e63          	blez	a0,228 <vvadd+0x19c>
  90:	fff5051b          	addiw	a0,a0,-1
  94:	02051793          	slli	a5,a0,0x20
  98:	01e7d293          	srli	t0,a5,0x1e
  9c:	00458713          	addi	a4,a1,4
  a0:	00e28333          	add	t1,t0,a4
  a4:	40b303b3          	sub	t2,t1,a1
  a8:	ffc38813          	addi	a6,t2,-4
  ac:	00285893          	srli	a7,a6,0x2
  b0:	00188e13          	addi	t3,a7,1
  b4:	007e7e93          	andi	t4,t3,7
  b8:	0e0e8063          	beqz	t4,198 <vvadd+0x10c>
  bc:	00100f13          	li	t5,1
  c0:	0bee8c63          	beq	t4,t5,178 <vvadd+0xec>
  c4:	00200f93          	li	t6,2
  c8:	09fe8a63          	beq	t4,t6,15c <vvadd+0xd0>
  cc:	00300513          	li	a0,3
  d0:	06ae8863          	beq	t4,a0,140 <vvadd+0xb4>
  d4:	00400793          	li	a5,4
  d8:	04fe8663          	beq	t4,a5,124 <vvadd+0x98>
  dc:	00500293          	li	t0,5
  e0:	025e8463          	beq	t4,t0,108 <vvadd+0x7c>
  e4:	00600393          	li	t2,6
  e8:	147e9263          	bne	t4,t2,22c <vvadd+0x1a0>
  ec:	0005ae03          	lw	t3,0(a1)
  f0:	00062e83          	lw	t4,0(a2)
  f4:	00458593          	addi	a1,a1,4
  f8:	00460613          	addi	a2,a2,4
  fc:	01ce8f3b          	addw	t5,t4,t3
 100:	01e6a023          	sw	t5,0(a3)
 104:	00468693          	addi	a3,a3,4
 108:	0005af83          	lw	t6,0(a1)
 10c:	00062503          	lw	a0,0(a2)
 110:	00458593          	addi	a1,a1,4
 114:	00460613          	addi	a2,a2,4
 118:	01f507bb          	addw	a5,a0,t6
 11c:	00f6a023          	sw	a5,0(a3)
 120:	00468693          	addi	a3,a3,4
 124:	0005a283          	lw	t0,0(a1)
 128:	00062383          	lw	t2,0(a2)
 12c:	00458593          	addi	a1,a1,4
 130:	00460613          	addi	a2,a2,4
 134:	0053883b          	addw	a6,t2,t0
 138:	0106a023          	sw	a6,0(a3)
 13c:	00468693          	addi	a3,a3,4
 140:	0005a883          	lw	a7,0(a1)
 144:	00062703          	lw	a4,0(a2)
 148:	00458593          	addi	a1,a1,4
 14c:	00460613          	addi	a2,a2,4
 150:	01170e3b          	addw	t3,a4,a7
 154:	01c6a023          	sw	t3,0(a3)
 158:	00468693          	addi	a3,a3,4
 15c:	0005ae83          	lw	t4,0(a1)
 160:	00062f03          	lw	t5,0(a2)
 164:	00458593          	addi	a1,a1,4
 168:	00460613          	addi	a2,a2,4
 16c:	01df0fbb          	addw	t6,t5,t4
 170:	01f6a023          	sw	t6,0(a3)
 174:	00468693          	addi	a3,a3,4
 178:	0005a503          	lw	a0,0(a1)
 17c:	00062783          	lw	a5,0(a2)
 180:	00458593          	addi	a1,a1,4
 184:	00460613          	addi	a2,a2,4
 188:	00a782bb          	addw	t0,a5,a0
 18c:	0056a023          	sw	t0,0(a3)
 190:	00468693          	addi	a3,a3,4
 194:	0a658c63          	beq	a1,t1,24c <vvadd+0x1c0>
 198:	0005a383          	lw	t2,0(a1)
 19c:	00062803          	lw	a6,0(a2)
 1a0:	02058593          	addi	a1,a1,32
 1a4:	02060613          	addi	a2,a2,32
 1a8:	007808bb          	addw	a7,a6,t2
 1ac:	0116a023          	sw	a7,0(a3)
 1b0:	fe45a703          	lw	a4,-28(a1)
 1b4:	fe462e03          	lw	t3,-28(a2)
 1b8:	02068693          	addi	a3,a3,32
 1bc:	00ee0ebb          	addw	t4,t3,a4
 1c0:	ffd6a223          	sw	t4,-28(a3)
 1c4:	fe85af03          	lw	t5,-24(a1)
 1c8:	fe862f83          	lw	t6,-24(a2)
 1cc:	01ef853b          	addw	a0,t6,t5
 1d0:	fea6a423          	sw	a0,-24(a3)
 1d4:	fec5a283          	lw	t0,-20(a1)
 1d8:	fec62783          	lw	a5,-20(a2)
 1dc:	005783bb          	addw	t2,a5,t0
 1e0:	fe76a623          	sw	t2,-20(a3)
 1e4:	ff05a803          	lw	a6,-16(a1)
 1e8:	ff062883          	lw	a7,-16(a2)
 1ec:	0108873b          	addw	a4,a7,a6
 1f0:	fee6a823          	sw	a4,-16(a3)
 1f4:	ff45ae03          	lw	t3,-12(a1)
 1f8:	ff462e83          	lw	t4,-12(a2)
 1fc:	01ce8f3b          	addw	t5,t4,t3
 200:	ffe6aa23          	sw	t5,-12(a3)
 204:	ff85af83          	lw	t6,-8(a1)
 208:	ff862503          	lw	a0,-8(a2)
 20c:	01f502bb          	addw	t0,a0,t6
 210:	fe56ac23          	sw	t0,-8(a3)
 214:	ffc5a383          	lw	t2,-4(a1)
 218:	ffc62783          	lw	a5,-4(a2)
 21c:	0077883b          	addw	a6,a5,t2
 220:	ff06ae23          	sw	a6,-4(a3)
 224:	f6659ae3          	bne	a1,t1,198 <vvadd+0x10c>
 228:	00008067          	ret
 22c:	0005a803          	lw	a6,0(a1)
 230:	00062883          	lw	a7,0(a2)
 234:	00070593          	mv	a1,a4
 238:	00460613          	addi	a2,a2,4
 23c:	0108873b          	addw	a4,a7,a6
 240:	00e6a023          	sw	a4,0(a3)
 244:	00468693          	addi	a3,a3,4
 248:	ea5ff06f          	j	ec <vvadd+0x60>
 24c:	00008067          	ret

0000000000000250 <setStats>:
 250:	00008067          	ret

0000000000000254 <memcpy>:
 254:	00b567b3          	or	a5,a0,a1
 258:	00c7e2b3          	or	t0,a5,a2
 25c:	0072f313          	andi	t1,t0,7
 260:	00c506b3          	add	a3,a0,a2
 264:	10030863          	beqz	t1,374 <memcpy+0x120>
 268:	00c58633          	add	a2,a1,a2
 26c:	00050793          	mv	a5,a0
 270:	10d57063          	bgeu	a0,a3,370 <memcpy+0x11c>
 274:	40b60733          	sub	a4,a2,a1
 278:	00777393          	andi	t2,a4,7
 27c:	0a038463          	beqz	t2,324 <memcpy+0xd0>
 280:	00100813          	li	a6,1
 284:	09038663          	beq	t2,a6,310 <memcpy+0xbc>
 288:	00200893          	li	a7,2
 28c:	07138a63          	beq	t2,a7,300 <memcpy+0xac>
 290:	00300e13          	li	t3,3
 294:	05c38e63          	beq	t2,t3,2f0 <memcpy+0x9c>
 298:	00400e93          	li	t4,4
 29c:	05d38263          	beq	t2,t4,2e0 <memcpy+0x8c>
 2a0:	00500f13          	li	t5,5
 2a4:	03e38663          	beq	t2,t5,2d0 <memcpy+0x7c>
 2a8:	00600f93          	li	t6,6
 2ac:	01f38a63          	beq	t2,t6,2c0 <memcpy+0x6c>
 2b0:	0005c283          	lbu	t0,0(a1)
 2b4:	00150793          	addi	a5,a0,1
 2b8:	00158593          	addi	a1,a1,1
 2bc:	00550023          	sb	t0,0(a0)
 2c0:	0005c303          	lbu	t1,0(a1)
 2c4:	00178793          	addi	a5,a5,1
 2c8:	00158593          	addi	a1,a1,1
 2cc:	fe678fa3          	sb	t1,-1(a5)
 2d0:	0005c683          	lbu	a3,0(a1)
 2d4:	00178793          	addi	a5,a5,1
 2d8:	00158593          	addi	a1,a1,1
 2dc:	fed78fa3          	sb	a3,-1(a5)
 2e0:	0005c703          	lbu	a4,0(a1)
 2e4:	00178793          	addi	a5,a5,1
 2e8:	00158593          	addi	a1,a1,1
 2ec:	fee78fa3          	sb	a4,-1(a5)
 2f0:	0005c383          	lbu	t2,0(a1)
 2f4:	00178793          	addi	a5,a5,1
 2f8:	00158593          	addi	a1,a1,1
 2fc:	fe778fa3          	sb	t2,-1(a5)
 300:	0005c803          	lbu	a6,0(a1)
 304:	00178793          	addi	a5,a5,1
 308:	00158593          	addi	a1,a1,1
 30c:	ff078fa3          	sb	a6,-1(a5)
 310:	0005c883          	lbu	a7,0(a1)
 314:	00158593          	addi	a1,a1,1
 318:	00178793          	addi	a5,a5,1
 31c:	ff178fa3          	sb	a7,-1(a5)
 320:	16c58c63          	beq	a1,a2,498 <memcpy+0x244>
 324:	0005ce03          	lbu	t3,0(a1)
 328:	00858593          	addi	a1,a1,8
 32c:	00878793          	addi	a5,a5,8
 330:	ffc78c23          	sb	t3,-8(a5)
 334:	ff95ce83          	lbu	t4,-7(a1)
 338:	ffd78ca3          	sb	t4,-7(a5)
 33c:	ffa5cf03          	lbu	t5,-6(a1)
 340:	ffe78d23          	sb	t5,-6(a5)
 344:	ffb5cf83          	lbu	t6,-5(a1)
 348:	fff78da3          	sb	t6,-5(a5)
 34c:	ffc5c283          	lbu	t0,-4(a1)
 350:	fe578e23          	sb	t0,-4(a5)
 354:	ffd5c303          	lbu	t1,-3(a1)
 358:	fe678ea3          	sb	t1,-3(a5)
 35c:	ffe5c683          	lbu	a3,-2(a1)
 360:	fed78f23          	sb	a3,-2(a5)
 364:	fff5c703          	lbu	a4,-1(a1)
 368:	fee78fa3          	sb	a4,-1(a5)
 36c:	fac59ce3          	bne	a1,a2,324 <memcpy+0xd0>
 370:	00008067          	ret
 374:	fed57ee3          	bgeu	a0,a3,370 <memcpy+0x11c>
 378:	0005b603          	ld	a2,0(a1)
 37c:	fff54393          	not	t2,a0
 380:	00768833          	add	a6,a3,t2
 384:	00385893          	srli	a7,a6,0x3
 388:	00850793          	addi	a5,a0,8
 38c:	fec7bc23          	sd	a2,-8(a5)
 390:	00858593          	addi	a1,a1,8
 394:	0078fe13          	andi	t3,a7,7
 398:	10d7f463          	bgeu	a5,a3,4a0 <memcpy+0x24c>
 39c:	080e0c63          	beqz	t3,434 <memcpy+0x1e0>
 3a0:	00100e93          	li	t4,1
 3a4:	07de0e63          	beq	t3,t4,420 <memcpy+0x1cc>
 3a8:	00200f13          	li	t5,2
 3ac:	07ee0263          	beq	t3,t5,410 <memcpy+0x1bc>
 3b0:	00300f93          	li	t6,3
 3b4:	05fe0663          	beq	t3,t6,400 <memcpy+0x1ac>
 3b8:	00400293          	li	t0,4
 3bc:	025e0a63          	beq	t3,t0,3f0 <memcpy+0x19c>
 3c0:	00500313          	li	t1,5
 3c4:	006e0e63          	beq	t3,t1,3e0 <memcpy+0x18c>
 3c8:	00600713          	li	a4,6
 3cc:	0aee1c63          	bne	t3,a4,484 <memcpy+0x230>
 3d0:	0005b383          	ld	t2,0(a1)
 3d4:	00878793          	addi	a5,a5,8
 3d8:	00858593          	addi	a1,a1,8
 3dc:	fe77bc23          	sd	t2,-8(a5)
 3e0:	0005b803          	ld	a6,0(a1)
 3e4:	00878793          	addi	a5,a5,8
 3e8:	00858593          	addi	a1,a1,8
 3ec:	ff07bc23          	sd	a6,-8(a5)
 3f0:	0005b883          	ld	a7,0(a1)
 3f4:	00878793          	addi	a5,a5,8
 3f8:	00858593          	addi	a1,a1,8
 3fc:	ff17bc23          	sd	a7,-8(a5)
 400:	0005be03          	ld	t3,0(a1)
 404:	00878793          	addi	a5,a5,8
 408:	00858593          	addi	a1,a1,8
 40c:	ffc7bc23          	sd	t3,-8(a5)
 410:	0005be83          	ld	t4,0(a1)
 414:	00878793          	addi	a5,a5,8
 418:	00858593          	addi	a1,a1,8
 41c:	ffd7bc23          	sd	t4,-8(a5)
 420:	0005bf03          	ld	t5,0(a1)
 424:	00878793          	addi	a5,a5,8
 428:	00858593          	addi	a1,a1,8
 42c:	ffe7bc23          	sd	t5,-8(a5)
 430:	06d7f663          	bgeu	a5,a3,49c <memcpy+0x248>
 434:	0005bf83          	ld	t6,0(a1)
 438:	04058593          	addi	a1,a1,64
 43c:	04078793          	addi	a5,a5,64
 440:	fdf7b023          	sd	t6,-64(a5)
 444:	fc85b283          	ld	t0,-56(a1)
 448:	fc57b423          	sd	t0,-56(a5)
 44c:	fd05b303          	ld	t1,-48(a1)
 450:	fc67b823          	sd	t1,-48(a5)
 454:	fd85b703          	ld	a4,-40(a1)
 458:	fce7bc23          	sd	a4,-40(a5)
 45c:	fe05b603          	ld	a2,-32(a1)
 460:	fec7b023          	sd	a2,-32(a5)
 464:	fe85b383          	ld	t2,-24(a1)
 468:	fe77b423          	sd	t2,-24(a5)
 46c:	ff05b803          	ld	a6,-16(a1)
 470:	ff07b823          	sd	a6,-16(a5)
 474:	ff85b883          	ld	a7,-8(a1)
 478:	ff17bc23          	sd	a7,-8(a5)
 47c:	fad7ece3          	bltu	a5,a3,434 <memcpy+0x1e0>
 480:	00008067          	ret
 484:	0005b603          	ld	a2,0(a1)
 488:	00878793          	addi	a5,a5,8
 48c:	00858593          	addi	a1,a1,8
 490:	fec7bc23          	sd	a2,-8(a5)
 494:	f3dff06f          	j	3d0 <memcpy+0x17c>
 498:	00008067          	ret
 49c:	00008067          	ret
 4a0:	00008067          	ret

00000000000004a4 <memset>:
 4a4:	ff010113          	addi	sp,sp,-16
 4a8:	00c567b3          	or	a5,a0,a2
 4ac:	00113423          	sd	ra,8(sp)
 4b0:	00813023          	sd	s0,0(sp)
 4b4:	0077f093          	andi	ra,a5,7
 4b8:	00050413          	mv	s0,a0
 4bc:	00c50733          	add	a4,a0,a2
 4c0:	02008263          	beqz	ra,4e4 <memset+0x40>
 4c4:	00e57663          	bgeu	a0,a4,4d0 <memset+0x2c>
 4c8:	0ff5f593          	zext.b	a1,a1
 4cc:	fd9ff0ef          	jal	ra,4a4 <memset>
 4d0:	00813083          	ld	ra,8(sp)
 4d4:	00040513          	mv	a0,s0
 4d8:	00013403          	ld	s0,0(sp)
 4dc:	01010113          	addi	sp,sp,16
 4e0:	00008067          	ret
 4e4:	0ff5f593          	zext.b	a1,a1
 4e8:	00859693          	slli	a3,a1,0x8
 4ec:	00b6e2b3          	or	t0,a3,a1
 4f0:	01029313          	slli	t1,t0,0x10
 4f4:	005363b3          	or	t2,t1,t0
 4f8:	02039513          	slli	a0,t2,0x20
 4fc:	00756833          	or	a6,a0,t2
 500:	fce478e3          	bgeu	s0,a4,4d0 <memset+0x2c>
 504:	fff44613          	not	a2,s0
 508:	00c708b3          	add	a7,a4,a2
 50c:	0038de13          	srli	t3,a7,0x3
 510:	00840793          	addi	a5,s0,8
 514:	ff07bc23          	sd	a6,-8(a5)
 518:	007e7e93          	andi	t4,t3,7
 51c:	fae7fae3          	bgeu	a5,a4,4d0 <memset+0x2c>
 520:	060e8463          	beqz	t4,588 <memset+0xe4>
 524:	00100f13          	li	t5,1
 528:	05ee8a63          	beq	t4,t5,57c <memset+0xd8>
 52c:	00200f93          	li	t6,2
 530:	05fe8263          	beq	t4,t6,574 <memset+0xd0>
 534:	00300093          	li	ra,3
 538:	021e8a63          	beq	t4,ra,56c <memset+0xc8>
 53c:	00400593          	li	a1,4
 540:	02be8263          	beq	t4,a1,564 <memset+0xc0>
 544:	00500693          	li	a3,5
 548:	00de8a63          	beq	t4,a3,55c <memset+0xb8>
 54c:	00600293          	li	t0,6
 550:	065e9263          	bne	t4,t0,5b4 <memset+0x110>
 554:	0107b023          	sd	a6,0(a5)
 558:	00878793          	addi	a5,a5,8
 55c:	0107b023          	sd	a6,0(a5)
 560:	00878793          	addi	a5,a5,8
 564:	0107b023          	sd	a6,0(a5)
 568:	00878793          	addi	a5,a5,8
 56c:	0107b023          	sd	a6,0(a5)
 570:	00878793          	addi	a5,a5,8
 574:	0107b023          	sd	a6,0(a5)
 578:	00878793          	addi	a5,a5,8
 57c:	00878793          	addi	a5,a5,8
 580:	ff07bc23          	sd	a6,-8(a5)
 584:	f4e7f6e3          	bgeu	a5,a4,4d0 <memset+0x2c>
 588:	0107b023          	sd	a6,0(a5)
 58c:	0107b423          	sd	a6,8(a5)
 590:	0107b823          	sd	a6,16(a5)
 594:	0107bc23          	sd	a6,24(a5)
 598:	0307b023          	sd	a6,32(a5)
 59c:	0307b423          	sd	a6,40(a5)
 5a0:	0307b823          	sd	a6,48(a5)
 5a4:	0307bc23          	sd	a6,56(a5)
 5a8:	04078793          	addi	a5,a5,64
 5ac:	fce7eee3          	bltu	a5,a4,588 <memset+0xe4>
 5b0:	f21ff06f          	j	4d0 <memset+0x2c>
 5b4:	0107b023          	sd	a6,0(a5)
 5b8:	00878793          	addi	a5,a5,8
 5bc:	f99ff06f          	j	554 <memset+0xb0>

00000000000005c0 <strlen>:
 5c0:	00054783          	lbu	a5,0(a0)
 5c4:	00078e63          	beqz	a5,5e0 <strlen+0x20>
 5c8:	00050293          	mv	t0,a0
 5cc:	0012c703          	lbu	a4,1(t0)
 5d0:	00128293          	addi	t0,t0,1
 5d4:	fe071ce3          	bnez	a4,5cc <strlen+0xc>
 5d8:	40a28533          	sub	a0,t0,a0
 5dc:	00008067          	ret
 5e0:	00000513          	li	a0,0
 5e4:	00008067          	ret

00000000000005e8 <strnlen>:
 5e8:	00b506b3          	add	a3,a0,a1
 5ec:	00050793          	mv	a5,a0
 5f0:	10058a63          	beqz	a1,704 <strnlen+0x11c>
 5f4:	40a68733          	sub	a4,a3,a0
 5f8:	00777293          	andi	t0,a4,7
 5fc:	08028063          	beqz	t0,67c <strnlen+0x94>
 600:	00100613          	li	a2,1
 604:	06c28463          	beq	t0,a2,66c <strnlen+0x84>
 608:	00200313          	li	t1,2
 60c:	04628a63          	beq	t0,t1,660 <strnlen+0x78>
 610:	00300393          	li	t2,3
 614:	04728063          	beq	t0,t2,654 <strnlen+0x6c>
 618:	00400593          	li	a1,4
 61c:	02b28663          	beq	t0,a1,648 <strnlen+0x60>
 620:	00500813          	li	a6,5
 624:	01028c63          	beq	t0,a6,63c <strnlen+0x54>
 628:	00600893          	li	a7,6
 62c:	0d129463          	bne	t0,a7,6f4 <strnlen+0x10c>
 630:	0007ce83          	lbu	t4,0(a5)
 634:	0a0e8c63          	beqz	t4,6ec <strnlen+0x104>
 638:	00178793          	addi	a5,a5,1
 63c:	0007cf03          	lbu	t5,0(a5)
 640:	0a0f0663          	beqz	t5,6ec <strnlen+0x104>
 644:	00178793          	addi	a5,a5,1
 648:	0007cf83          	lbu	t6,0(a5)
 64c:	0a0f8063          	beqz	t6,6ec <strnlen+0x104>
 650:	00178793          	addi	a5,a5,1
 654:	0007c703          	lbu	a4,0(a5)
 658:	08070a63          	beqz	a4,6ec <strnlen+0x104>
 65c:	00178793          	addi	a5,a5,1
 660:	0007c283          	lbu	t0,0(a5)
 664:	08028463          	beqz	t0,6ec <strnlen+0x104>
 668:	00178793          	addi	a5,a5,1
 66c:	0007c603          	lbu	a2,0(a5)
 670:	06060e63          	beqz	a2,6ec <strnlen+0x104>
 674:	00178793          	addi	a5,a5,1
 678:	06f68663          	beq	a3,a5,6e4 <strnlen+0xfc>
 67c:	0007c303          	lbu	t1,0(a5)
 680:	06030663          	beqz	t1,6ec <strnlen+0x104>
 684:	0017c383          	lbu	t2,1(a5)
 688:	00178793          	addi	a5,a5,1
 68c:	00078593          	mv	a1,a5
 690:	04038e63          	beqz	t2,6ec <strnlen+0x104>
 694:	0017c803          	lbu	a6,1(a5)
 698:	00178793          	addi	a5,a5,1
 69c:	04080863          	beqz	a6,6ec <strnlen+0x104>
 6a0:	0025c883          	lbu	a7,2(a1)
 6a4:	00258793          	addi	a5,a1,2
 6a8:	04088263          	beqz	a7,6ec <strnlen+0x104>
 6ac:	0035ce03          	lbu	t3,3(a1)
 6b0:	00358793          	addi	a5,a1,3
 6b4:	020e0c63          	beqz	t3,6ec <strnlen+0x104>
 6b8:	0045ce83          	lbu	t4,4(a1)
 6bc:	00458793          	addi	a5,a1,4
 6c0:	020e8663          	beqz	t4,6ec <strnlen+0x104>
 6c4:	0055cf03          	lbu	t5,5(a1)
 6c8:	00558793          	addi	a5,a1,5
 6cc:	020f0063          	beqz	t5,6ec <strnlen+0x104>
 6d0:	0065cf83          	lbu	t6,6(a1)
 6d4:	00658793          	addi	a5,a1,6
 6d8:	000f8a63          	beqz	t6,6ec <strnlen+0x104>
 6dc:	00758793          	addi	a5,a1,7
 6e0:	f8f69ee3          	bne	a3,a5,67c <strnlen+0x94>
 6e4:	40a68533          	sub	a0,a3,a0
 6e8:	00008067          	ret
 6ec:	40a78533          	sub	a0,a5,a0
 6f0:	00008067          	ret
 6f4:	00054e03          	lbu	t3,0(a0)
 6f8:	fe0e0ae3          	beqz	t3,6ec <strnlen+0x104>
 6fc:	00150793          	addi	a5,a0,1
 700:	f31ff06f          	j	630 <strnlen+0x48>
 704:	00000513          	li	a0,0
 708:	00008067          	ret

000000000000070c <strcmp>:
 70c:	00054783          	lbu	a5,0(a0)
 710:	00158593          	addi	a1,a1,1
 714:	00150513          	addi	a0,a0,1
 718:	fff5c703          	lbu	a4,-1(a1)
 71c:	00078a63          	beqz	a5,730 <strcmp+0x24>
 720:	fee786e3          	beq	a5,a4,70c <strcmp>
 724:	0007851b          	sext.w	a0,a5
 728:	40e5053b          	subw	a0,a0,a4
 72c:	00008067          	ret
 730:	00000513          	li	a0,0
 734:	ff5ff06f          	j	728 <strcmp+0x1c>

0000000000000738 <strcpy>:
 738:	00050793          	mv	a5,a0
 73c:	0005c703          	lbu	a4,0(a1)
 740:	00178793          	addi	a5,a5,1
 744:	00158593          	addi	a1,a1,1
 748:	fee78fa3          	sb	a4,-1(a5)
 74c:	fe0718e3          	bnez	a4,73c <strcpy+0x4>
 750:	00008067          	ret

0000000000000754 <atol>:
 754:	00054703          	lbu	a4,0(a0)
 758:	02000693          	li	a3,32
 75c:	00050793          	mv	a5,a0
 760:	00d71863          	bne	a4,a3,770 <atol+0x1c>
 764:	0017c703          	lbu	a4,1(a5)
 768:	00178793          	addi	a5,a5,1
 76c:	fed70ce3          	beq	a4,a3,764 <atol+0x10>
 770:	02d00293          	li	t0,45
 774:	06570063          	beq	a4,t0,7d4 <atol+0x80>
 778:	02b00313          	li	t1,43
 77c:	04670063          	beq	a4,t1,7bc <atol+0x68>
 780:	0007c383          	lbu	t2,0(a5)
 784:	00000593          	li	a1,0
 788:	04038263          	beqz	t2,7cc <atol+0x78>
 78c:	00000513          	li	a0,0
 790:	00178793          	addi	a5,a5,1
 794:	fd03861b          	addiw	a2,t2,-48
 798:	00251813          	slli	a6,a0,0x2
 79c:	0007c383          	lbu	t2,0(a5)
 7a0:	00a80533          	add	a0,a6,a0
 7a4:	00151893          	slli	a7,a0,0x1
 7a8:	01160533          	add	a0,a2,a7
 7ac:	fe0392e3          	bnez	t2,790 <atol+0x3c>
 7b0:	02058063          	beqz	a1,7d0 <atol+0x7c>
 7b4:	40a00533          	neg	a0,a0
 7b8:	00008067          	ret
 7bc:	0017c383          	lbu	t2,1(a5)
 7c0:	00000593          	li	a1,0
 7c4:	00178793          	addi	a5,a5,1
 7c8:	fc0392e3          	bnez	t2,78c <atol+0x38>
 7cc:	00000513          	li	a0,0
 7d0:	00008067          	ret
 7d4:	0017c383          	lbu	t2,1(a5)
 7d8:	00100593          	li	a1,1
 7dc:	00178793          	addi	a5,a5,1
 7e0:	fa0396e3          	bnez	t2,78c <atol+0x38>
 7e4:	00000513          	li	a0,0
 7e8:	fe9ff06f          	j	7d0 <atol+0x7c>

00000000000007ec <main>:
 7ec:	fffff7b7          	lui	a5,0xfffff
 7f0:	00001737          	lui	a4,0x1
 7f4:	81010113          	addi	sp,sp,-2032
 7f8:	06078293          	addi	t0,a5,96 # fffffffffffff060 <STACK+0xffffffffffff9598>
 7fc:	fa070313          	addi	t1,a4,-96 # fa0 <verify_data+0x4b8>
 800:	7d313823          	sd	s3,2000(sp)
 804:	7e813423          	sd	s0,2024(sp)
 808:	7e913023          	sd	s1,2016(sp)
 80c:	7d213c23          	sd	s2,2008(sp)
 810:	7d413423          	sd	s4,1992(sp)
 814:	7d513023          	sd	s5,1984(sp)
 818:	005303b3          	add	t2,t1,t0
 81c:	82010113          	addi	sp,sp,-2016
 820:	002387b3          	add	a5,t2,sp
 824:	00002717          	auipc	a4,0x2
 828:	20470713          	addi	a4,a4,516 # 2a28 <input1_data>
 82c:	00001617          	auipc	a2,0x1
 830:	25c60613          	addi	a2,a2,604 # 1a88 <input2_data>
 834:	00003997          	auipc	s3,0x3
 838:	19498993          	addi	s3,s3,404 # 39c8 <input1_data+0xfa0>
 83c:	00078693          	mv	a3,a5
 840:	00062f03          	lw	t5,0(a2)
 844:	00472a03          	lw	s4,4(a4)
 848:	00462e83          	lw	t4,4(a2)
 84c:	00872903          	lw	s2,8(a4)
 850:	00862e03          	lw	t3,8(a2)
 854:	00c72483          	lw	s1,12(a4)
 858:	00c62303          	lw	t1,12(a2)
 85c:	00072a83          	lw	s5,0(a4)
 860:	01072403          	lw	s0,16(a4)
 864:	01062883          	lw	a7,16(a2)
 868:	01472383          	lw	t2,20(a4)
 86c:	01462803          	lw	a6,20(a2)
 870:	01872283          	lw	t0,24(a4)
 874:	01862503          	lw	a0,24(a2)
 878:	01c72f83          	lw	t6,28(a4)
 87c:	01c62583          	lw	a1,28(a2)
 880:	015f0abb          	addw	s5,t5,s5
 884:	014e8f3b          	addw	t5,t4,s4
 888:	012e0a3b          	addw	s4,t3,s2
 88c:	00930ebb          	addw	t4,t1,s1
 890:	0088893b          	addw	s2,a7,s0
 894:	00780e3b          	addw	t3,a6,t2
 898:	005504bb          	addw	s1,a0,t0
 89c:	01f5833b          	addw	t1,a1,t6
 8a0:	0156a023          	sw	s5,0(a3)
 8a4:	01e6a223          	sw	t5,4(a3)
 8a8:	0146a423          	sw	s4,8(a3)
 8ac:	01d6a623          	sw	t4,12(a3)
 8b0:	0126a823          	sw	s2,16(a3)
 8b4:	01c6aa23          	sw	t3,20(a3)
 8b8:	0096ac23          	sw	s1,24(a3)
 8bc:	0066ae23          	sw	t1,28(a3)
 8c0:	02070713          	addi	a4,a4,32
 8c4:	02060613          	addi	a2,a2,32
 8c8:	02068693          	addi	a3,a3,32
 8cc:	f7371ae3          	bne	a4,s3,840 <main+0x54>
 8d0:	00000717          	auipc	a4,0x0
 8d4:	21870713          	addi	a4,a4,536 # ae8 <verify_data>
 8d8:	00000513          	li	a0,0
 8dc:	3e800993          	li	s3,1000
 8e0:	0007a883          	lw	a7,0(a5)
 8e4:	00072383          	lw	t2,0(a4)
 8e8:	0047a283          	lw	t0,4(a5)
 8ec:	00472803          	lw	a6,4(a4)
 8f0:	00028f9b          	sext.w	t6,t0
 8f4:	0d139663          	bne	t2,a7,9c0 <main+0x1d4>
 8f8:	0025051b          	addiw	a0,a0,2
 8fc:	0b0f9063          	bne	t6,a6,99c <main+0x1b0>
 900:	0087aa83          	lw	s5,8(a5)
 904:	00872583          	lw	a1,8(a4)
 908:	00c7af03          	lw	t5,12(a5)
 90c:	00c72a03          	lw	s4,12(a4)
 910:	00878e93          	addi	t4,a5,8
 914:	00870913          	addi	s2,a4,8
 918:	000f0e1b          	sext.w	t3,t5
 91c:	0b559263          	bne	a1,s5,9c0 <main+0x1d4>
 920:	0025051b          	addiw	a0,a0,2
 924:	074e1c63          	bne	t3,s4,99c <main+0x1b0>
 928:	0107a483          	lw	s1,16(a5)
 92c:	01072303          	lw	t1,16(a4)
 930:	0147a603          	lw	a2,20(a5)
 934:	01472883          	lw	a7,20(a4)
 938:	0006069b          	sext.w	a3,a2
 93c:	08931263          	bne	t1,s1,9c0 <main+0x1d4>
 940:	0025051b          	addiw	a0,a0,2
 944:	05169c63          	bne	a3,a7,99c <main+0x1b0>
 948:	0187a383          	lw	t2,24(a5)
 94c:	01872283          	lw	t0,24(a4)
 950:	01c7af83          	lw	t6,28(a5)
 954:	01c72803          	lw	a6,28(a4)
 958:	000f8a9b          	sext.w	s5,t6
 95c:	06729263          	bne	t0,t2,9c0 <main+0x1d4>
 960:	0025051b          	addiw	a0,a0,2
 964:	030a9c63          	bne	s5,a6,99c <main+0x1b0>
 968:	0207a583          	lw	a1,32(a5)
 96c:	02072f03          	lw	t5,32(a4)
 970:	0247a783          	lw	a5,36(a5)
 974:	02472703          	lw	a4,36(a4)
 978:	00078a1b          	sext.w	s4,a5
 97c:	04bf1263          	bne	t5,a1,9c0 <main+0x1d4>
 980:	0025051b          	addiw	a0,a0,2
 984:	00ea1c63          	bne	s4,a4,99c <main+0x1b0>
 988:	020e8793          	addi	a5,t4,32
 98c:	02090713          	addi	a4,s2,32
 990:	f53518e3          	bne	a0,s3,8e0 <main+0xf4>
 994:	00bc6537          	lui	a0,0xbc6
 998:	14e50513          	addi	a0,a0,334 # bc614e <STACK+0xbc0686>
 99c:	7e010113          	addi	sp,sp,2016
 9a0:	7e813403          	ld	s0,2024(sp)
 9a4:	7e013483          	ld	s1,2016(sp)
 9a8:	7d813903          	ld	s2,2008(sp)
 9ac:	7d013983          	ld	s3,2000(sp)
 9b0:	7c813a03          	ld	s4,1992(sp)
 9b4:	7c013a83          	ld	s5,1984(sp)
 9b8:	7f010113          	addi	sp,sp,2032
 9bc:	00008067          	ret
 9c0:	0015051b          	addiw	a0,a0,1
 9c4:	fd9ff06f          	j	99c <main+0x1b0>

00000000000009c8 <end>:
 9c8:	00000013          	nop
 9cc:	00000013          	nop
 9d0:	00000013          	nop
 9d4:	00000013          	nop
 9d8:	00000013          	nop
 9dc:	00000013          	nop

00000000000009e0 <_last>:
 9e0:	fe9ff06f          	j	9c8 <end>
